NJ7P Assembler	                                 MICRO  MICROBASIC	Page 1  
 Line  Addr Object Code	Source Code

 00001			 NAM MICRO  MICROBASIC
 00002			
 00003			* ***** VERSION 1.3A *****
 00004			*
 00005			* BY ROBERT H UITERWYK, TAMPA, 
 00006			* FLORIDA, JUNE 1976
 00007			*
 00008			* MODIFIED TO RUN ON SIMH
 00009			* BY ROBERTO SANCHO (RSV) 2020
 00010			*
 00011			* MODIFIED TO RUN ON THE MC3
 00012			* BY DANIEL TUFVESSON (DTU) 2013
 00013			*
 00014			* ADDITIONAL BUGFIXES
 00015			* BY LES HILDENBRANDT (LHI) 2013
 00016			*
 00017			
 00018			* SimH ignores the first line of read S19 file 
 00019			* to workarround this, add a comment not starting with "S"
 00020			* on firsts lines of S19 file
 00021			
 00022      0020	        ORG  $20   
 00023 0020 0000 	INDEX1  FDB  $0000
 00024 0022 0000 	INDEX2  FDB  $0000 
 00025 0024 0000 	INDEX3  FDB  $0000 
 00026 0026 0000 	INDEX4  FDB  $0000 
 00027 0028 0000 	SAVESP  FDB  $0000 
 00028 002A 0CA4 	NEXTBA  FDB  END  
 00029 002C 0CA4 	WORKBA  FDB  END  
 00030 002E 0CA4 	SOURCE  FDB  END  
 00031 0030 0000 	PACKLN  FDB  $0000 
 00032 0032 0000 	HIGHLN  FDB  $0000 
 00033 0034 0000 	BASPNT  FDB  $0000 
 00034 0036 0000 	BASLIN  FDB  $0000 
 00035 0038 0000 	PUSHTX  FDB  $0000 
 00036 003A A07F 	XSTACK  FDB  $A07F 
 00037 003C 0000 	RNDVAL  FDB  $0000 
 00038 003E 0000 	DIMPNT  FDB  $0000 
 00039 0040 0000 	DIMCAL  FDB  $0000 
 00040 0042 00		PRCNT   FCB  0  
 00041 0043 48		MAXLIN  FCB  72  
 00042 0044 08		BACKSP  FCB  $08	                                #### /DTU  
 00043 0045 18		CANCEL  FCB  $18  
 00044 0046 1FFF 	MEMEND  FDB  $1FFF
 00045 0048 0000 	ARRTAB  FDB  $0000 
 00046 004A 0000 	KEYWD   FDB  $0000 
 00047 004C 00		TSIGN   FCB  0  
 00048 004D 00		NCMPR   FCB  0  
 00049 004E 00		TNUMB   FCB  0  
 00050 004F 00		ANUMB   FCB  0  
 00051 0050 00		BNUMB   FCB  0  
 00052 0051 021A 	AESTK   FDB  ASTACK 
 00053 0053 0069 	FORPNT  FDB  FORSTK 
 00054 0055 0103 	VARPNT  FDB  VARTAB 
 00055 0057 0059 	SBRPNT  FDB  SBRSTK 
 00056 0059 0010	SBRSTK  RMB  16  
 00057			*                    ORG * is needed as a workarround for RMB in
 00058			*                    cross assemble output generation   #### /RSV
 00059      0069		ORG  *
 00060			*
 00061 0069 0030	FORSTK  RMB  48
 00062			*                    ORG * is needed as a workarround for RMB in
 00063			*                    cross assemble output generation   #### /RSV
 00064      0099		ORG  *
NJ7P Assembler	                                 MICRO  MICROBASIC	Page 2  
 Line  Addr Object Code	Source Code

 00065			*
 00066 0099 0103 	DIMVAR  FDB  VARTAB 
 00067			            
 00068			            
 00069      00AC	  ORG $00AC    
 00070 00AC 00B0 	BUFNXT  FDB  $00B0 
 00071 00AE 00B0 	ENDBUF  FDB  $00B0 
 00072      00B0	        ORG  $00B0   
 00073 00B0 0050	BUFFER  RMB  $50 
 00074			*                    ORG * is needed as a workarround for RMB in
 00075			*                    cross assemble output generation   #### /RSV
 00076      0100		ORG  *
 00077			*
 00078			            
 00079      0100	        ORG  $0100
 00080 0100 7E 0646 	PROGM   JMP START
 00081 0103 004E	VARTAB  RMB  78  
 00082			*                    ORG * is needed as a workarround for RMB in
 00083			*                    cross assemble output generation   #### /RSV
 00084      0151		ORG  *
 00085			*
 00086 0151 1E		        FCB  $1E
 00087 0152 52 55 4E	COMMAN  FCC  /RUN/
 00088 0155 1E		        FCB  $1E
 00089 0156 06C0 	        FDB  RUN
 00090 0158 4C 49 53 54	        FCC  /LIST/
 00091 015C 1E		        FCB  $1E
 00092 015D 06EE 	        FDB  CLIST 
 00093 015F 4E 45 57	        FCC  /NEW/
 00094 0162 1E		        FCB  $1E
 00095 0163 0646 	        FDB  START
 00096 0165 50 41 54	        FCC  /PAT/
 00097 0168 1E		        FCB  $1E
 00098 0169 0730 	        FDB  PATCH
 00099 016B 47 4F 53 55	GOLIST  FCC  /GOSUB/
 00100 0170 1E		        FCB  $1E
 00101 0171 081C 	        FDB  GOSUB
 00102 0173 47 4F 54 4F	        FCC  /GOTO/
 00103 0177 1E		        FCB  $1E
 00104 0178 083F 	        FDB  GOTO
 00105 017A 47 4F 20 54	        FCC  /GO TO/
 00106 017F 1E		        FCB  $1E
 00107 0180 083F 	        FDB  GOTO
 00108 0182 53 49 5A 45	        FCC  /SIZE/
 00109 0186 1E		        FCB  $1E
 00110 0187 0A68 	        FDB  SIZE
 00111 0189 54 48 45 4E	        FCC  /THEN/
 00112 018D 1E		        FCB  $1E
 00113 018E 0C28 	        FDB  IF2
 00114 0190 50 52 49 4E	        FCC  /PRINT/
 00115 0195 1E		        FCB  $1E
 00116 0196 0940 	        FDB  PRINT
 00117 0198 4C 45 54	        FCC  /LET/
 00118 019B 1E		        FCB  $1E
 00119 019C 0A44 	        FDB  LET
 00120 019E 49 4E 50 55	        FCC  /INPUT/
 00121 01A3 1E		        FCB  $1E
 00122 01A4 0889 	        FDB  INPUT
 00123 01A6 49 46	        FCC  /IF/
 00124 01A8 1E		        FCB  $1E
 00125 01A9 0C13 	        FDB  IF
 00126 01AB 45 4E 44	        FCC  /END/
 00127 01AE 1E		        FCB  $1E
 00128 01AF 0662 	        FDB  READY
NJ7P Assembler	                                 MICRO  MICROBASIC	Page 3  
 Line  Addr Object Code	Source Code

 00129 01B1 52 45 54 55	        FCC  /RETURN/
 00130 01B7 1E		        FCB  $1E
 00131 01B8 0852 	        FDB  RETURN
 00132 01BA 44 49 4D	        FCC  /DIM/
 00133 01BD 1E		        FCB  $1E
 00134 01BE 0A8A 	        FDB  DIM
 00135 01C0 46 4F 52	        FCC  /FOR/
 00136 01C3 1E		        FCB  $1E
 00137 01C4 0B46 	        FDB  FOR
 00138 01C6 4E 45 58 54	        FCC  /NEXT/
 00139 01CA 1E		        FCB  $1E
 00140 01CB 0BB6 	        FDB  NEXT
 00141 01CD 52 45 4D	        FCC  /REM/
 00142 01D0 1E		        FCB  $1E
 00143 01D1 0A84 	        FDB  REMARK
 00144 01D3 50 41 55 53	PAUMSG  FCC  /PAUSE/
 00145 01D8 1E		        FCB  $1E
 00146 01D9 0868 	        FDB  PAUSE
 00147 01DB 20		        FCB  $20
 00148 01DC 1E		COMEND  FCB  $1E
 00149 01DD 0A44 	IMPLET  FDB  LET
 00150 01DF 003C	        RMB  60
 00151			*                    ORG * is needed as a workarround for RMB in
 00152			*                    cross assemble output generation   #### /RSV
 00153      021B		ORG  *
 00154			*
 00155      021A 	ASTACK  EQU  *-1
 00156 021B 0D		RDYMSG  FCB  $0D
 00157 021C 0A		        FCB  $0A
 00158 021D 15		        FCB  $15
 00159 021E 0A		        FCB  $0A
 00160 021F 15		        FCB  $15
 00161 0220 52 45 41 44	        FCC  /READY/
 00162 0225 1E		        FCB  $1E
 00163 0226 23		PROMPT  FCB  $23
 00164 0227 00		        FCB  $00
 00165 0228 1E		        FCB  $1E
 00166 0229 1E		        FCB  $1E
 00167 022A 10		PGCNTL  FCB  $10
 00168 022B 16		        FCB  $16
 00169 022C 1E		        FCB  $1E
 00170 022D 1E		        FCB  $1E
 00171 022E 1E		        FCB  $1E
 00172 022F 45 52 52 4F	ERRMS1  FCC  /ERROR# /
 00173 0236 1E		        FCB  $1E
 00174 0237 20 49 4E 20	ERRMS2  FCC  / IN LINE /
 00175 0240 1E		        FCB  $1E
 00176 0241 86 3F	KEYBD   LDA A #$3F
 00177 0243 8D 4D	        BSR  OUTCH
 00178 0245 CE 00B0 	KEYBD0  LDX  #BUFFER
 00179 0248 C6 0A	        LDA B #10
 00180 024A 8D 4B	KEYBD1  BSR  INCH
 00181 024C 81 00	        CMP A #$00
 00182 024E 26 06	        BNE  KEYB11
 00183 0250 5A		        DEC B
 00184 0251 26 F7	        BNE  KEYBD1	BNE KEYBD11			#### /LHI
 00185 0253 7E 0662 	KEYB10  JMP  READY
 00186 0256 91 45	KEYB11  CMP A CANCEL
 00187 0258 27 26	        BEQ  DEL
 00188 025A 81 0D	        CMP A #$0D
 00189 025C 27 2B	        BEQ  IEXIT
 00190 025E 81 0A	KEYBD2  CMP A #$0A
 00191 0260 27 E8	        BEQ  KEYBD1
 00192 0262 81 15	        CMP A #$15
NJ7P Assembler	                                 MICRO  MICROBASIC	Page 4  
 Line  Addr Object Code	Source Code

 00193 0264 27 E4	        BEQ  KEYBD1
 00194 0266 81 13	        CMP A #$13
 00195 0268 27 E0	        BEQ  KEYBD1
 00196 026A 91 44	KEYB55  CMP A BACKSP
 00197 026C 26 08	        BNE  KEYBD3
 00198 026E 8C 00B0 	        CPX  #BUFFER
 00199 0271 27 D7	        BEQ  KEYBD1
 00200 0273 09		        DEX 
 00201 0274 20 D4	        BRA  KEYBD1
 00202 0276 8C 00F7 	KEYBD3  CPX  #BUFFER+71
 00203 0279 27 CF	        BEQ  KEYBD1
 00204 027B A7 00	        STA A 0,X
 00205 027D 08		        INX 
 00206 027E 20 CA	        BRA  KEYBD1
 00207 0280 8D 34	DEL     BSR  CRLF
 00208 0282 CE 0226 	CNTLIN  LDX  #PROMPT
 00209 0285 8D 28	        BSR  OUTNCR
 00210 0287 20 BC	        BRA  KEYBD0
 00211 0289 86 1E	IEXIT   LDA A #$1E
 00212 028B A7 00	        STA A X
 00213 028D DF AE	        STX  ENDBUF
 00214 028F 8D 25	        BSR  CRLF
 00215 0291 39		        RTS 
 00216			            
 00217			OUTCH       
 00218 0292 8D 13		BSR  BREAK3					#### /RSV
 00219 0294 7E E1D1 		JMP  OUTEEE
 00220      E1D1 	OUTEEE  EQU  $E1D1
 00221			            
 00222 0297 7E E1AC 	INCH    JMP  INEEE
 00223			            
 00224 029A 7E 029D 	BREAK   JMP  BREAK1	THIS BREAK ROUTINE IS NOT USED FOR THE MC3
 00225 029D 36		BREAK1  PSH A		  DANIEL TUFVESSON 2013
 00226 029E B6 8004 	        LDA A PIAD	  CHKBRK IS USED INSTEAD
 00227      8004 	PIAD    EQU  $8004
 00228 02A1 2B 03	        BMI  BREAK2
 00229 02A3 7E 0662 	        JMP  READY
 00230			            
 00231 02A6 32		BREAK2  PUL A
 00232 02A7 39		BREAK3  RTS 
 00233			            
 00234      E1AC 	INEEE   EQU  $E1AC
 00235      02A8 	OUTPUT  EQU  *
 00236 02A8 8D 05	        BSR  OUTNCR
 00237 02AA 20 0A	        BRA  CRLF
 00238			            
 00239 02AC 8D E4	OUTPU2  BSR   OUTCH
 00240 02AE 08		OUTPU3  INX 
 00241 02AF A6 00	OUTNCR  LDA A 0,X
 00242 02B1 81 1E	        CMP A #$1E
 00243 02B3 26 F7	        BNE  OUTPU2
 00244 02B5 39		        RTS 
 00245			            
 00246 02B6 8D 12	CRLF    BSR  PUSHX
 00247 02B8 CE 02C0 	        LDX  #CRLFST
 00248 02BB 8D F2	        BSR  OUTNCR
 00249 02BD 8D 20	        BSR  PULLX
 00250 02BF 39		        RTS 
 00251			            
 00252 02C0 00		CRLFST  FCB  $00
 00253 02C1 0D		        FCB  $0D
 00254 02C2 0A		        FCB  $0A
 00255 02C3 15		        FCB  $15
 00256 02C4 1E		CREND   FCB  $1E
NJ7P Assembler	                                 MICRO  MICROBASIC	Page 5  
 Line  Addr Object Code	Source Code

 00257 02C5 FF FF	        FCB  $FF,$FF
 00258 02C7 FF FF	        FCB  $FF,$FF
 00259 02C9 1E		        FCB  $1E
 00260 02CA DF 38	PUSHX   STX  PUSHTX
 00261 02CC DE 3A	        LDX  XSTACK
 00262 02CE 09		        DEX 
 00263 02CF 09		        DEX 
 00264 02D0 DF 3A	        STX  XSTACK
 00265 02D2 36		        PSH A
 00266 02D3 96 38	        LDA A PUSHTX
 00267 02D5 A7 00	        STA A 0,X
 00268 02D7 96 39	        LDA A PUSHTX+1
 00269 02D9 A7 01	        STA A 1,X
 00270 02DB 32		        PUL A
 00271 02DC DE 38	        LDX  PUSHTX
 00272 02DE 39		        RTS 
 00273			            
 00274 02DF DE 3A	PULLX   LDX  XSTACK
 00275 02E1 EE 00	        LDX  0,X
 00276 02E3 7C 003B 	        INC  XSTACK+1
 00277 02E6 7C 003B 	        INC  XSTACK+1
 00278 02E9 39		        RTS 
 00279			            
 00280 02EA 36		STORE   PSH A
 00281 02EB 37		        PSH B
 00282 02EC 8D DC	        BSR  PUSHX
 00283 02EE BD 0470 	        JSR  PULLAE
 00284 02F1 DE 51	        LDX  AESTK
 00285 02F3 08		        INX 
 00286 02F4 08		        INX 
 00287 02F5 DF 51	        STX  AESTK
 00288 02F7 09		        DEX 
 00289 02F8 EE 00	        LDX  0,X
 00290 02FA A7 00	        STA A 0,X
 00291 02FC E7 01	        STA B 1,X
 00292 02FE 8D DF	        BSR  PULLX
 00293 0300 33		        PUL B
 00294 0301 32		        PUL A
 00295 0302 39		        RTS 
 00296			            
 00297 0303 8D C5	IND     BSR  PUSHX
 00298 0305 36		        PSH A
 00299 0306 37		        PSH B
 00300 0307 DE 51	        LDX  AESTK
 00301 0309 08		        INX 
 00302 030A 08		        INX 
 00303 030B DF 51	        STX  AESTK
 00304 030D 09		        DEX 
 00305 030E EE 00	        LDX  0,X
 00306 0310 A6 00	        LDA A 0,X
 00307 0312 E6 01	        LDA B 1,X
 00308 0314 BD 0465 	        JSR  PUSHAE
 00309 0317 33		        PUL B
 00310 0318 32		        PUL A
 00311 0319 8D C4	        BSR  PULLX
 00312 031B 39		        RTS 
 00313			            
 00314 031C DE 2A	LIST    LDX  NEXTBA
 00315 031E DF 2C	        STX  WORKBA
 00316 0320 DE 2E	        LDX  SOURCE
 00317 0322 20 02	        BRA  LIST1
 00318 0324 DE 24	LIST0   LDX  INDEX3
 00319 0326 9C 2C	LIST1   CPX  WORKBA
 00320 0328 27 05	        BEQ  LEXIT
NJ7P Assembler	                                 MICRO  MICROBASIC	Page 6  
 Line  Addr Object Code	Source Code

 00321 032A 8D 04	        BSR  OUTLIN
 00322 032C 08		        INX 
 00323 032D 20 F7	        BRA  LIST1
 00324 032F 39		LEXIT   RTS 
 00325			            
 00326 0330 A6 00	OUTLIN  LDA A 0,X
 00327 0332 7F 0042 	        CLR  PRCNT
 00328 0335 08		        INX 
 00329 0336 E6 00	        LDA B 0,X
 00330 0338 08		        INX 
 00331 0339 7F 004C 	        CLR  TSIGN
 00332 033C BD 09FD 	        JSR  PRN0
 00333 033F 8D 22	        BSR  PRINSP
 00334 0341 A6 00	OUTLI1  LDA A 0,X
 00335 0343 08		        INX 
 00336 0344 8D 84	        BSR  PUSHX
 00337 0346 CE 0152 	        LDX  #COMMAN
 00338 0349 DF 4A	        STX  KEYWD
 00339 034B 97 4B	        STA A KEYWD+1
 00340 034D DE 4A	        LDX  KEYWD
 00341 034F 09		        DEX 
 00342 0350 09		OUTLI2  DEX 
 00343 0351 A6 00	        LDA A 0,X
 00344 0353 81 1E	        CMP A #$1E
 00345 0355 26 F9	        BNE  OUTLI2
 00346 0357 08		        INX 
 00347 0358 08		        INX 
 00348 0359 08		        INX 
 00349 035A BD 02AF 	        JSR  OUTNCR
 00350 035D BD 02DF 	        JSR  PULLX
 00351 0360 7E 02A8 	        JMP  OUTPUT
 00352			            
 00353 0363 36		PRINSP  PSH A
 00354 0364 86 20	        LDA A #$20
 00355 0366 BD 0292 	        JSR  OUTCH
 00356 0369 32		        PUL A
 00357 036A 39		        RTS 
 00358			            
 00359 036B 08		RANDOM  INX 
 00360 036C 08		        INX 
 00361 036D A6 00	        LDA A 0,X
 00362 036F 81 44	        CMP A #'D
 00363 0371 26 65	        BNE   TSTVER
 00364 0373 BD 02CA 	        JSR  PUSHX
 00365 0376 96 3C	        LDA A RNDVAL
 00366 0378 D6 3D	        LDA B RNDVAL+1
 00367 037A CE 0000 	        LDX   #0000
 00368 037D E9 01	RAND1   ADC B 1,X
 00369 037F A9 00	        ADC A 0,X
 00370 0381 08		        INX 
 00371 0382 08		        INX 
 00372 0383 8C 003C 	        CPX  #RNDVAL
 00373 0386 26 F5	        BNE   RAND1
 00374 0388 84 7F	        AND A #$7F
 00375 038A 97 3C	        STA A RNDVAL
 00376 038C D7 3D	        STA B RNDVAL+1
 00377 038E DF 20	        STX    INDEX1
 00378 0390 96 20	        LDA A INDEX1
 00379 0392 D6 21	        LDA B INDEX1+1
 00380 0394 7E 0446 	        JMP    TSTV9
 00381			            
 00382 0397 BD 05E7 	TSTV    JSR    SKIPSP
 00383 039A BD 02A7 		JSR    BREAK3			#### /RSV
 00384 039D BD 044F 	        JSR    TSTLTR
NJ7P Assembler	                                 MICRO  MICROBASIC	Page 7  
 Line  Addr Object Code	Source Code

 00385 03A0 24 01	        BCC    TSTV1
 00386 03A2 39		        RTS 
 00387			            
 00388 03A3 81 52	TSTV1   CMP A #'R
 00389 03A5 26 06	        BNE  TSTV2
 00390 03A7 E6 01	        LDA B 1,X
 00391 03A9 C1 4E	        CMP B #'N
 00392 03AB 27 BE	        BEQ   RANDOM
 00393 03AD BD 02CA 	TSTV2   JSR  PUSHX
 00394 03B0 80 40	        SUB A #$40
 00395 03B2 97 56	        STA A VARPNT+1
 00396 03B4 48		        ASL A
 00397 03B5 9B 56	        ADD A VARPNT+1
 00398 03B7 97 56	        STA A VARPNT+1
 00399 03B9 DE 55	        LDX  VARPNT
 00400 03BB 96 55	        LDA A VARPNT
 00401 03BD D6 56	        LDA B VARPNT+1
 00402 03BF 6D 02	        TST   2,X
 00403 03C1 26 03	        BNE   TSTV20
 00404 03C3 7E 0446 	        JMP   TSTV9
 00405			            
 00406 03C6 EE 00	TSTV20  LDX   0,X
 00407 03C8 DF 3E	        STX   DIMPNT
 00408 03CA 08		        INX 
 00409 03CB 08		        INX 
 00410 03CC DF 40	        STX  DIMCAL
 00411 03CE BD 02DF 	        JSR   PULLX
 00412 03D1 BD 05ED 	        JSR  INXSKP
 00413 03D4 81 28	        CMP A #'(
 00414 03D6 27 03	        BEQ  TSTV22
 00415 03D8 7E 08D4 	TSTVER  JMP  DBLLTR
 00416 03DB 08		TSTV22  INX 
 00417 03DC BD 04BF 	        JSR  EXPR
 00418 03DF BD 02CA 	        JSR  PUSHX
 00419 03E2 BD 0470 	        JSR  PULLAE
 00420 03E5 4D		        TST A
 00421 03E6 27 03	        BEQ  TSTV3
 00422 03E8 7E 0AD7 	SUBER1  JMP   SUBERR
 00423			            
 00424 03EB DE 3E	TSTV3   LDX  DIMPNT
 00425 03ED 5D		        TST B
 00426 03EE 27 F8	        BEQ   SUBER1
 00427 03F0 E1 00	        CMP B 0,X
 00428 03F2 22 F4	        BHI   SUBER1
 00429 03F4 A6 01	        LDA A 1,X
 00430 03F6 97 4F	        STA A ANUMB
 00431 03F8 27 30	        BEQ  TST666
 00432 03FA DE 40	        LDX  DIMCAL
 00433 03FC 5A		TSTV4   DEC B
 00434 03FD 27 09	        BEQ  TSTV6
 00435 03FF 96 4F	        LDA A ANUMB
 00436 0401 08		TSTV5   INX 
 00437 0402 08		        INX 
 00438 0403 4A		        DEC A
 00439 0404 26 FB	        BNE  TSTV5
 00440 0406 20 F4	        BRA  TSTV4
 00441			            
 00442 0408 DF 40	TSTV6   STX  DIMCAL
 00443 040A BD 02DF 	        JSR  PULLX
 00444 040D BD 05E7 	        JSR  SKIPSP
 00445 0410 81 2C	        CMP A #',
 00446 0412 26 C4	        BNE  TSTVER
 00447 0414 08		        INX 
 00448 0415 BD 04BF 	        JSR  EXPR
NJ7P Assembler	                                 MICRO  MICROBASIC	Page 8  
 Line  Addr Object Code	Source Code

 00449 0418 BD 02CA 	        JSR  PUSHX
 00450 041B BD 0470 	        JSR  PULLAE
 00451 041E 4D		        TST A
 00452 041F 26 C7	        BNE  SUBER1
 00453 0421 DE 3E	        LDX  DIMPNT
 00454 0423 5D		        TST B
 00455 0424 27 C2	        BEQ  SUBER1
 00456 0426 E1 01	        CMP B 1,X
 00457 0428 22 BE	        BHI  SUBER1
 00458 042A DE 40	TST666  LDX  DIMCAL
 00459 042C 08		TSTV7   INX 
 00460 042D 08		        INX 
 00461 042E 5A		        DEC B
 00462 042F 26 FB	        BNE  TSTV7
 00463 0431 09		        DEX 
 00464 0432 09		        DEX 
 00465 0433 DF 40	        STX  DIMCAL
 00466 0435 BD 02DF 	        JSR  PULLX
 00467 0438 BD 05E7 	        JSR  SKIPSP
 00468 043B 81 29	TSTV8   CMP A  #')
 00469 043D 26 99	        BNE  TSTVER
 00470 043F BD 02CA 	        JSR  PUSHX
 00471 0442 96 40	        LDA A DIMCAL
 00472 0444 D6 41	        LDA B DIMCAL+1
 00473 0446 BD 02DF 	TSTV9   JSR   PULLX
 00474 0449 08		        INX 
 00475 044A BD 0465 	        JSR  PUSHAE
 00476 044D 0C		        CLC 
 00477 044E 39		        RTS 
 00478			            
 00479 044F 81 41	TSTLTR  CMP A #$41
 00480 0451 2B 0C	        BMI  NONO
 00481 0453 81 5A	        CMP A #$5A
 00482 0455 2F 0A	        BLE  YESNO
 00483 0457 81 30	TESTNO  CMP A #$30
 00484 0459 2B 04	        BMI  NONO
 00485 045B 81 39	        CMP A #$39
 00486 045D 2F 02	        BLE  YESNO
 00487 045F 0D		NONO    SEC 
 00488 0460 39		        RTS 
 00489 0461 0C		YESNO   CLC 
 00490 0462 39		        RTS 
 00491			            
 00492 0463 8D 0B	PULPSH  BSR  PULLAE
 00493 0465 9F 28	PUSHAE  STS  SAVESP
 00494 0467 9E 51	        LDS  AESTK
 00495 0469 37		        PSH B
 00496 046A 36		        PSH A
 00497 046B 9F 51	        STS  AESTK
 00498 046D 9E 28	        LDS  SAVESP
 00499 046F 39		        RTS 
 00500			            
 00501 0470 9F 28	PULLAE  STS  SAVESP
 00502 0472 9E 51	        LDS  AESTK
 00503 0474 32		        PUL A
 00504 0475 33		        PUL B
 00505 0476 9F 51	        STS  AESTK
 00506 0478 9E 28	        LDS  SAVESP
 00507 047A 39		        RTS 
 00508			            
 00509 047B BD 05E7 	FACT    JSR  SKIPSP
 00510 047E BD 0397 	        JSR  TSTV
 00511 0481 25 04	        BCS  FACT0
 00512 0483 BD 0303 	        JSR  IND
NJ7P Assembler	                                 MICRO  MICROBASIC	Page 9  
 Line  Addr Object Code	Source Code

 00513 0486 39		        RTS 
 00514			            
 00515 0487 BD 08D9 	FACT0   JSR  TSTN
 00516 048A 25 01	        BCS  FACT1
 00517 048C 39		        RTS 
 00518			            
 00519 048D 81 28	FACT1   CMP A #'(
 00520 048F 26 0C	        BNE  FACT2
 00521 0491 08		        INX 
 00522 0492 8D 2B	        BSR   EXPR
 00523 0494 BD 05E7 	        JSR   SKIPSP
 00524 0497 81 29	        CMP A #')
 00525 0499 26 02	        BNE  FACT2
 00526 049B 08		        INX 
 00527 049C 39		        RTS 
 00528			            
 00529 049D C6 0D	FACT2   LDA B #13
 00530 049F 7E 0694 	        JMP   ERROR
 00531			            
 00532 04A2 8D D7	TERM    BSR   FACT
 00533 04A4 BD 05E7 	TERM0   JSR  SKIPSP
 00534 04A7 81 2A	        CMP A #'*
 00535 04A9 26 07	        BNE  TERM1
 00536 04AB 08		        INX 
 00537 04AC 8D CD	        BSR  FACT
 00538 04AE 8D 41	        BSR  MPY
 00539 04B0 20 F2	        BRA  TERM0
 00540			            
 00541 04B2 81 2F	TERM1   CMP A #'/
 00542 04B4 26 08	        BNE  TERM2
 00543 04B6 08		        INX 
 00544 04B7 8D C2	        BSR  FACT
 00545 04B9 BD 0544 	        JSR  DIV
 00546 04BC 20 E6	        BRA  TERM0
 00547			            
 00548 04BE 39		TERM2   RTS 
 00549			            
 00550 04BF BD 05E7 	EXPR    JSR  SKIPSP
 00551 04C2 81 2D	        CMP A #'-
 00552 04C4 26 08	        BNE  EXPR0
 00553 04C6 08		        INX 
 00554 04C7 8D D9	        BSR  TERM
 00555 04C9 BD 058F 	        JSR  NEG
 00556 04CC 20 07	        BRA  EXPR1
 00557 04CE 81 2B	EXPR0   CMP A #'+
 00558 04D0 26 01	        BNE  EXPR00
 00559 04D2 08		        INX 
 00560 04D3 8D CD	EXPR00  BSR  TERM
 00561 04D5 BD 05E7 	EXPR1   JSR  SKIPSP
 00562 04D8 81 2B	        CMP A #'+
 00563 04DA 26 08	        BNE  EXPR2
 00564 04DC 08		        INX 
 00565 04DD 8D C3	        BSR  TERM
 00566 04DF BD 05A5 	        JSR  ADD
 00567 04E2 20 F1	        BRA  EXPR1
 00568 04E4 81 2D	EXPR2   CMP A #'-
 00569 04E6 26 08	        BNE  EXPR3
 00570 04E8 08		        INX 
 00571 04E9 8D B7	        BSR  TERM
 00572 04EB BD 05A3 	        JSR  SUB
 00573 04EE 20 E5	        BRA  EXPR1
 00574 04F0 39		EXPR3   RTS 
 00575			            
 00576 04F1 8D 32	MPY     BSR  MDSIGN
NJ7P Assembler	                                 MICRO  MICROBASIC	Page 10 
 Line  Addr Object Code	Source Code

 00577 04F3 86 0F	        LDA A #15
 00578 04F5 A7 00	        STA A 0,X
 00579 04F7 5F		        CLR B
 00580 04F8 4F		        CLR A
 00581 04F9 64 03	MPY4    LSR  3,X
 00582 04FB 66 04	        ROR  4,X
 00583 04FD 24 0B	        BCC  MPY5
 00584 04FF EB 02	        ADD B 2,X
 00585 0501 A9 01	        ADC A 1,X
 00586 0503 24 05	        BCC  MPY5
 00587 0505 86 02	MPYERR  LDA A #2
 00588 0507 7E 0694 	        JMP  ERROR
 00589 050A 68 02	MPY5    ASL  2,X
 00590 050C 69 01	        ROL  1,X
 00591 050E 6A 00	        DEC  0,X
 00592 0510 26 E7	        BNE  MPY4
 00593 0512 4D		        TST A
 00594 0513 2B F0	        BMI  MPYERR
 00595 0515 7D 004C 	        TST  TSIGN
 00596 0518 2A 03	        BPL  MPY6
 00597 051A BD 059C 	        JSR  NEGAB
 00598 051D E7 04	MPY6    STA B 4,X
 00599 051F A7 03	        STA A 3,X
 00600 0521 BD 02DF 	        JSR  PULLX
 00601 0524 39		        RTS 
 00602			            
 00603 0525 BD 02CA 	MDSIGN  JSR  PUSHX
 00604 0528 4F		        CLR A
 00605 0529 DE 51	        LDX  AESTK
 00606 052B 6D 01	        TST  1,X
 00607 052D 2A 04	        BPL  MDS2
 00608 052F 8D 5E	        BSR  NEG
 00609 0531 86 80	        LDA A #$80
 00610 0533 08		MDS2    INX 
 00611 0534 08		        INX 
 00612 0535 DF 51	        STX  AESTK
 00613 0537 6D 01	        TST  1,X
 00614 0539 2A 04	        BPL  MDS3
 00615 053B 8D 52	        BSR  NEG
 00616 053D 8B 80	        ADD A #$80
 00617 053F 97 4C	MDS3    STA A TSIGN
 00618 0541 09		        DEX 
 00619 0542 09		        DEX 
 00620 0543 39		        RTS 
 00621			            
 00622 0544 8D DF	DIV     BSR  MDSIGN
 00623 0546 6D 01	        TST  1,X
 00624 0548 26 09	        BNE  DIV33
 00625 054A 6D 02	        TST  2,X
 00626 054C 26 05	        BNE  DIV33
 00627 054E C6 08	        LDA B #8
 00628 0550 7E 0694 	        JMP  ERROR
 00629 0553 86 01	DIV33   LDA A #1
 00630 0555 4C		DIV4    INC A
 00631 0556 68 02	        ASL  2,X
 00632 0558 69 01	        ROL  1,X
 00633 055A 2B 04	        BMI  DIV5
 00634 055C 81 11	        CMP A #17
 00635 055E 26 F5	        BNE  DIV4
 00636 0560 A7 00	DIV5    STA A 0,X
 00637 0562 A6 03	        LDA A 3,X
 00638 0564 E6 04	        LDA B 4,X
 00639 0566 6F 03	        CLR  3,X
 00640 0568 6F 04	        CLR  4,X
NJ7P Assembler	                                 MICRO  MICROBASIC	Page 11 
 Line  Addr Object Code	Source Code

 00641 056A E0 02	DIV163  SUB B 2,X
 00642 056C A2 01	        SBC A 1,X
 00643 056E 24 07	        BCC  DIV165
 00644 0570 EB 02	        ADD B 2,X
 00645 0572 A9 01	        ADC A 1,X
 00646 0574 0C		        CLC 
 00647 0575 20 01	        BRA  DIV167
 00648 0577 0D		DIV165  SEC 
 00649 0578 69 04	DIV167  ROL  4,X
 00650 057A 69 03	        ROL  3,X
 00651 057C 64 01	        LSR  1,X
 00652 057E 66 02	        ROR  2,X
 00653 0580 6A 00	        DEC  0,X
 00654 0582 26 E6	        BNE  DIV163
 00655 0584 7D 004C 	        TST  TSIGN
 00656 0587 2A 02	        BPL  DIV169
 00657 0589 8D 04	        BSR  NEG
 00658 058B BD 02DF 	DIV169  JSR  PULLX
 00659 058E 39		        RTS 
 00660			            
 00661 058F 36		NEG     PSH A
 00662 0590 37		        PSH B
 00663 0591 BD 0470 	        JSR  PULLAE
 00664 0594 8D 06	        BSR  NEGAB
 00665 0596 BD 0465 	        JSR  PUSHAE
 00666 0599 33		        PUL B
 00667 059A 32		        PUL A
 00668 059B 39		        RTS 
 00669			            
 00670 059C 43		NEGAB   COM A
 00671 059D 53		        COM B
 00672 059E CB 01	        ADD B #1
 00673 05A0 89 00	        ADC A #0
 00674 05A2 39		        RTS 
 00675			            
 00676 05A3 8D EA	SUB     BSR  NEG
 00677 05A5 BD 0470 	ADD     JSR  PULLAE
 00678 05A8 D7 50	ADD1    STA B BNUMB
 00679 05AA 97 4F	        STA A ANUMB
 00680 05AC BD 0470 	        JSR  PULLAE
 00681 05AF DB 50	        ADD B BNUMB
 00682 05B1 99 4F	        ADC A ANUMB
 00683 05B3 BD 0465 	        JSR  PUSHAE
 00684 05B6 0C		        CLC 
 00685 05B7 39		        RTS 
 00686			            
 00687 05B8 96 32	FINDNO  LDA A HIGHLN
 00688 05BA D6 33	        LDA B HIGHLN+1
 00689 05BC D0 31	        SUB B PACKLN+1
 00690 05BE 92 30	        SBC A PACKLN
 00691 05C0 25 1C	        BCS   HIBALL
 00692 05C2 DE 2E	FINDN1  LDX   SOURCE
 00693 05C4 BD 0463 	FIND0   JSR  PULPSH
 00694 05C7 E0 01	        SUB B 1,X
 00695 05C9 A2 00	        SBC A 0,X
 00696 05CB 25 13	        BCS  FIND3
 00697 05CD 26 03	        BNE  FIND1
 00698 05CF 5D		        TST B
 00699 05D0 27 0F	        BEQ   FIND4
 00700 05D2 08		FIND1   INX 
 00701 05D3 8D 18	FIND2   BSR   INXSKP
 00702 05D5 81 1E	        CMP A #$1E
 00703 05D7 26 FA	        BNE   FIND2
 00704 05D9 08		        INX 
NJ7P Assembler	                                 MICRO  MICROBASIC	Page 12 
 Line  Addr Object Code	Source Code

 00705 05DA 9C 2A	        CPX  NEXTBA
 00706 05DC 26 E6	        BNE  FIND0
 00707 05DE DE 2A	HIBALL  LDX   NEXTBA
 00708 05E0 0D		FIND3   SEC 
 00709 05E1 DF 2C	FIND4   STX  WORKBA
 00710 05E3 BD 0470 	        JSR  PULLAE
 00711 05E6 39		        RTS 
 00712			            
 00713 05E7 A6 00	SKIPSP  LDA A 0,X
 00714 05E9 81 20	        CMP A #$20
 00715 05EB 26 03	        BNE   SKIPEX
 00716 05ED 08		INXSKP  INX 
 00717 05EE 20 F7	        BRA  SKIPSP
 00718 05F0 39		SKIPEX  RTS 
 00719			            
 00720 05F1 BD 08F4 	LINENO  JSR  INTSTN
 00721 05F4 24 05	        BCC   LINE1
 00722 05F6 C6 07	        LDA B #7
 00723 05F8 7E 0694 	        JMP   ERROR
 00724 05FB BD 0463 	LINE1   JSR  PULPSH
 00725 05FE 97 30	        STA A PACKLN
 00726 0600 D7 31	        STA B PACKLN+1
 00727 0602 DF AC	        STX  BUFNXT
 00728 0604 39		        RTS 
 00729			            
 00730 0605 DE 34	NXTLIN  LDX   BASPNT
 00731 0607 A6 00	NXTL12  LDA A 0,X
 00732 0609 08		        INX 
 00733 060A 81 1E	        CMP A #$1E
 00734 060C 26 F9	        BNE   NXTL12	BNE NXTLIN			#### /DTU
 00735 060E DF 36	        STX  BASLIN
 00736 0610 39		        RTS 
 00737			            
 00738 0611 8D D4	CCODE   BSR  SKIPSP
 00739 0613 DF 26	        STX  INDEX4
 00740 0615 9F 28	        STS  SAVESP
 00741 0617 CE 0151 	        LDX  #COMMAN-1
 00742 061A 9E 26	LOOP3   LDS   INDEX4
 00743 061C 34		        DES 
 00744 061D 08		LOOP4   INX 
 00745 061E 32		        PUL A
 00746 061F E6 00	        LDA B 0,X
 00747 0621 C1 1E	        CMP B #$1E
 00748 0623 27 13	        BEQ  LOOP7
 00749 0625 11		        CBA 
 00750 0626 27 F5	        BEQ   LOOP4
 00751 0628 08		LOOP5   INX 
 00752 0629 8C 01DC 	        CPX  #COMEND
 00753 062C 27 12	        BEQ  CCEXIT
 00754 062E E6 00	        LDA B 0,X
 00755 0630 C1 1E	        CMP B #$1E
 00756 0632 26 F4	        BNE   LOOP5
 00757 0634 08		LOOP6   INX 
 00758 0635 08		        INX 
 00759 0636 20 E2	        BRA  LOOP3
 00760 0638 08		LOOP7   INX 
 00761 0639 9F AC	        STS  BUFNXT
 00762 063B 9F 34	        STS  BASPNT
 00763 063D 9E 28	LOOP8   LDS  SAVESP
 00764 063F 39		        RTS 
 00765			            
 00766 0640 9E 28	CCEXIT  LDS  SAVESP
 00767 0642 CE 01DD 	        LDX  #IMPLET
 00768 0645 39		        RTS 
NJ7P Assembler	                                 MICRO  MICROBASIC	Page 13 
 Line  Addr Object Code	Source Code

 00769			            
 00770 0646 DE 2E	START   LDX  SOURCE
 00771 0648 DF 2A	        STX  NEXTBA
 00772 064A DF 2C	        STX  WORKBA
 00773 064C DF 48	        STX  ARRTAB
 00774 064E 09		        DEX 
 00775 064F 4F		        CLR A
 00776 0650 08		START2  INX 
 00777 0651 A7 00	        STA A 0,X
 00778 0653 9C 46	        CPX  MEMEND
 00779 0655 26 F9	        BNE   START2
 00780 0657 4F		START1  CLR A
 00781 0658 97 30	        STA A PACKLN
 00782 065A 97 31	        STA A PACKLN+1
 00783 065C 97 42	        STA A PRCNT
 00784 065E DE 30	        LDX  PACKLN
 00785 0660 DF 32	        STX  HIGHLN
 00786 0662 8E A045 	READY   LDS  #$A045
 00787 0665 CE 021B 	        LDX  #RDYMSG
 00788 0668 BD 02A8 	        JSR  OUTPUT
 00789 066B 8E A045 	NEWLIN  LDS  #$A045
 00790 066E CE A07F 	        LDX  #$A07F
 00791 0671 DF 3A	        STX  XSTACK
 00792 0673 7F 0042 	        CLR  PRCNT
 00793 0676 BD 0282 	NEWL3   JSR  CNTLIN
 00794 0679 CE 00B0 	        LDX  #BUFFER
 00795 067C BD 05E7 	        JSR  SKIPSP
 00796 067F DF AC	        STX  BUFNXT
 00797 0681 BD 0457 	        JSR  TESTNO
 00798 0684 25 03	        BCS  LOOP2
 00799 0686 7E 0742 	        JMP  NUMBER
 00800 0689 81 1E	LOOP2   CMP A #$1E
 00801 068B 27 DE	        BEQ  NEWLIN
 00802 068D BD 0611 	        JSR  CCODE
 00803 0690 EE 00	        LDX  0,X
 00804 0692 6E 00	        JMP   0,X
 00805			            
 00806 0694 8E A045 	ERROR   LDS  #$A045
 00807 0697 BD 02B6 	        JSR  CRLF
 00808 069A CE 022F 	        LDX  #ERRMS1
 00809 069D BD 02AF 	        JSR  OUTNCR
 00810 06A0 4F		        CLR A
 00811 06A1 BD 0465 	        JSR  PUSHAE
 00812 06A4 BD 09E2 	        JSR  PRN
 00813 06A7 CE 0237 	        LDX  #ERRMS2
 00814 06AA BD 02AF 	        JSR  OUTNCR
 00815 06AD 5F		        CLR B
 00816 06AE 96 36	        LDA A BASLIN
 00817 06B0 27 06	        BEQ  ERROR2
 00818 06B2 DE 36	        LDX  BASLIN
 00819 06B4 A6 00	        LDA A 0,X
 00820 06B6 E6 01	        LDA B 1,X
 00821 06B8 BD 09FD 	ERROR2  JSR  PRN0
 00822 06BB BD 02B6 	        JSR  CRLF
 00823 06BE 20 A2	        BRA  READY
 00824			            
 00825 06C0 DE 2E	RUN     LDX   SOURCE
 00826 06C2 DF 36	        STX  BASLIN
 00827 06C4 CE 0059 	        LDX  #SBRSTK
 00828 06C7 DF 57	        STX  SBRPNT
 00829 06C9 CE 0069 	        LDX  #FORSTK
 00830 06CC DF 53	        STX  FORPNT
 00831 06CE CE A07F 	        LDX  #$A07F
 00832 06D1 DF 3A	        STX  XSTACK
NJ7P Assembler	                                 MICRO  MICROBASIC	Page 14 
 Line  Addr Object Code	Source Code

 00833 06D3 DE 2A	        LDX  NEXTBA
 00834 06D5 DF 48	        STX  ARRTAB
 00835 06D7 4F		        CLR A
 00836 06D8 09		        DEX 
 00837 06D9 08		RUN1    INX 
 00838 06DA A7 00	        STA A 0,X
 00839 06DC 9C 46	        CPX  MEMEND
 00840 06DE 26 F9	        BNE  RUN1
 00841 06E0 CE 0103 	        LDX  #VARTAB
 00842 06E3 C6 4E	        LDA B  #78
 00843 06E5 A7 00	RUN2    STA A 0,X
 00844 06E7 08		        INX 
 00845 06E8 5A		        DEC B
 00846 06E9 26 FA	        BNE  RUN2
 00847 06EB 7E 07F5 	        JMP   BASIC
 00848			            
 00849 06EE CE 022A 	CLIST   LDX  #PGCNTL
 00850 06F1 BD 02A8 	        JSR  OUTPUT
 00851 06F4 DE 34	        LDX   BASPNT
 00852 06F6 BD 05E7 	CLIST1  JSR  SKIPSP
 00853 06F9 81 1E	        CMP A #$1E
 00854 06FB 27 2C	        BEQ  CLIST4
 00855 06FD BD 08F4 	        JSR  INTSTN
 00856 0700 DF 34	        STX  BASPNT
 00857 0702 BD 05C2 	        JSR  FINDN1
 00858 0705 DF 24	        STX  INDEX3
 00859 0707 DE 34	        LDX  BASPNT
 00860 0709 36		        PSH A
 00861 070A BD 05E7 	        JSR  SKIPSP
 00862 070D 81 1E	        CMP A #$1E
 00863 070F 32		        PUL A
 00864 0710 26 05	        BNE  CLIST2
 00865 0712 BD 0465 	        JSR  PUSHAE
 00866 0715 20 04	        BRA   CLIST3
 00867 0717 08		CLIST2  INX 
 00868 0718 BD 08F4 	        JSR   INTSTN
 00869 071B 4F		CLIST3  CLR A
 00870 071C C6 01	        LDA B #1
 00871 071E BD 05A8 	        JSR  ADD1
 00872 0721 BD 05C2 	        JSR  FINDN1
 00873 0724 BD 0324 	        JSR  LIST0
 00874 0727 20 03	        BRA  CLIST5
 00875 0729 BD 031C 	CLIST4  JSR   LIST
 00876 072C 7E 0A84 	CLIST5  JMP   REMARK
 00877 072F 01		        NOP 
 00878			            
 00879 0730 BD 0605 	PATCH   JSR   NXTLIN
 00880 0733 CE 07F5 	        LDX  #BASIC
 00881 0736 FF A046 	        STX  $A046
 00882 0739 8E A040 	        LDS  #$A040
 00883 073C BF A008 	        STS  SP
 00884      A008 	SP      EQU  $A008
 00885 073F 7E C000 	        JMP  CONTRL
 00886      C000 	CONTRL  EQU   $C000
 00887			            
 00888 0742 BD 05F1 	NUMBER  JSR  LINENO
 00889 0745 BD 05B8 	NUM1    JSR  FINDNO
 00890 0748 24 0A	        BCC  DELREP
 00891 074A DE 2C	        LDX  WORKBA
 00892 074C 9C 2A	        CPX  NEXTBA
 00893 074E 27 1E	        BEQ  CAPPEN
 00894 0750 8D 50	        BSR  INSERT
 00895 0752 20 17	        BRA  NEXIT
 00896 0754 DE AC	DELREP  LDX  BUFNXT
NJ7P Assembler	                                 MICRO  MICROBASIC	Page 15 
 Line  Addr Object Code	Source Code

 00897 0756 BD 05E7 	        JSR  SKIPSP
 00898 0759 81 1E	        CMP A #$1E
 00899 075B 26 0A	        BNE  REPLAC
 00900 075D DE 2A	        LDX  NEXTBA
 00901 075F 9C 2E	        CPX  SOURCE
 00902 0761 27 08	        BEQ  NEXIT
 00903 0763 8D 11	        BSR  DELETE
 00904 0765 20 04	        BRA  NEXIT
 00905			            
 00906 0767 8D 0D	REPLAC  BSR  DELETE
 00907 0769 8D 37	        BSR  INSERT
 00908 076B 7E 066B 	NEXIT   JMP  NEWLIN
 00909 076E 8D 32	CAPPEN  BSR  INSERT
 00910 0770 DE 30	        LDX  PACKLN
 00911 0772 DF 32	        STX  HIGHLN
 00912 0774 20 F5	        BRA  NEXIT
 00913 0776 9F 28	DELETE  STS  SAVESP
 00914 0778 DE 2C	        LDX  WORKBA
 00915 077A 9E 2A	        LDS  NEXTBA
 00916 077C C6 02	        LDA B #2
 00917 077E 08		        INX 
 00918 077F 08		        INX 
 00919 0780 34		        DES 
 00920 0781 34		        DES 
 00921 0782 A6 00	DEL2    LDA A  0,X
 00922 0784 34		        DES 
 00923 0785 08		        INX 
 00924 0786 5C		        INC B
 00925 0787 81 1E	        CMP A #$1E
 00926 0789 26 F7	        BNE  DEL2
 00927 078B 9F 2A	        STS  NEXTBA
 00928 078D 9F 48	        STS  ARRTAB
 00929 078F DE 2C	        LDX  WORKBA
 00930 0791 F7 0799 	        STA B DEL5+1
 00931			* IN AT OBJECT TIME
 00932 0794 9C 2A	DEL4    CPX   NEXTBA
 00933 0796 27 07	        BEQ   DELEX
 00934 0798 A6 00	DEL5    LDA A 0,X
 00935 079A A7 00	        STA A 0,X
 00936 079C 08		        INX 
 00937 079D 20 F5	        BRA  DEL4
 00938			            
 00939 079F 9E 28	DELEX   LDS  SAVESP
 00940 07A1 39		        RTS 
 00941			            
 00942 07A2 DE AC	INSERT  LDX  BUFNXT
 00943 07A4 BD 0611 	        JSR   CCODE
 00944 07A7 DF 4A	INS1    STX   KEYWD
 00945 07A9 D6 AF	        LDA B ENDBUF+1
 00946 07AB D0 AD	        SUB B BUFNXT+1
 00947 07AD CB 04	        ADD B #$04
 00948 07AF F7 07CC 	        STA B OFFSET+1
 00949 07B2 DB 2B	        ADD B NEXTBA+1
 00950 07B4 86 00	        LDA A #$00
 00951 07B6 99 2A	        ADC A NEXTBA
 00952 07B8 91 46	        CMP A MEMEND
 00953 07BA 22 34	        BHI  OVERFL
 00954 07BC D7 2B	        STA B NEXTBA+1
 00955 07BE 97 2A	        STA A NEXTBA
 00956 07C0 DE 2A	        LDX  NEXTBA
 00957 07C2 DF 48	        STX   ARRTAB
 00958 07C4 9C 2C	INS2    CPX   WORKBA
 00959 07C6 27 07	        BEQ  BUFWRT
 00960 07C8 09		        DEX 
NJ7P Assembler	                                 MICRO  MICROBASIC	Page 16 
 Line  Addr Object Code	Source Code

 00961 07C9 A6 00	        LDA A 0,X
 00962 07CB A7 00	OFFSET  STA A 0,X
 00963 07CD 20 F5	        BRA   INS2
 00964 07CF DE 2C	BUFWRT  LDX   WORKBA
 00965 07D1 9F 28	        STS  SAVESP
 00966 07D3 96 30	        LDA A PACKLN
 00967 07D5 A7 00	        STA A 0,X
 00968 07D7 08		        INX 
 00969 07D8 96 31	        LDA A PACKLN+1
 00970 07DA A7 00	        STA A 0,X
 00971 07DC 08		        INX 
 00972 07DD 96 4B	        LDA A KEYWD+1
 00973 07DF A7 00	        STA A 0,X
 00974 07E1 08		        INX 
 00975 07E2 9E AC	        LDS  BUFNXT
 00976 07E4 34		        DES 
 00977 07E5 32		BUF3    PUL A
 00978 07E6 A7 00	        STA A 0,X
 00979 07E8 08		        INX 
 00980 07E9 81 1E	        CMP A #$1E
 00981 07EB 26 F8	        BNE  BUF3
 00982 07ED 9E 28	        LDS  SAVESP
 00983 07EF 39		        RTS 
 00984			            
 00985 07F0 C6 0E	OVERFL  LDA B #14
 00986 07F2 7E 0694 	        JMP  ERROR
 00987 07F5 DE 36	BASIC   LDX  BASLIN
 00988 07F7 9C 2A	        CPX  NEXTBA
 00989 07F9 26 03	        BNE  BASIC1
 00990 07FB 7E 0662 	BASIC0  JMP  READY
 00991 07FE 7D 0036 	BASIC1  TST  BASLIN
 00992 0801 27 F8	        BEQ  BASIC0
 00993 0803 08		        INX 
 00994 0804 08		        INX 
 00995 0805 A6 00	        LDA A 0,X
 00996 0807 08		        INX 
 00997 0808 DF 34	        STX   BASPNT
 00998 080A CE 0152 	        LDX  #COMMAN
 00999 080D DF 4A	        STX  KEYWD
 01000 080F 97 4B	        STA A KEYWD+1
 01001 0811 CE 021A 	        LDX  #ASTACK
 01002 0814 DF 51	        STX  AESTK
 01003 0816 DE 4A	        LDX  KEYWD
 01004 0818 EE 00	        LDX  0,X
 01005 081A 6E 00	BASIC2  JMP  0,X
 01006			            
 01007 081C DE 36	GOSUB   LDX  BASLIN
 01008 081E DF 20	        STX  INDEX1
 01009 0820 BD 0605 	        JSR  NXTLIN
 01010 0823 DE 57	        LDX  SBRPNT
 01011 0825 8C 0069 	        CPX  #SBRSTK+16
 01012 0828 26 05	        BNE   GOSUB1
 01013 082A C6 09	        LDA B #9
 01014 082C 7E 0694 	        JMP   ERROR
 01015 082F 96 36	GOSUB1  LDA A BASLIN
 01016 0831 A7 00	        STA A 0,X
 01017 0833 08		        INX 
 01018 0834 96 37	        LDA A BASLIN+1
 01019 0836 A7 00	        STA A 0,X
 01020 0838 08		        INX 
 01021 0839 DF 57	        STX  SBRPNT
 01022 083B DE 20	        LDX  INDEX1
 01023 083D DF 36	        STX  BASLIN
 01024 083F DE 34	GOTO    LDX  BASPNT
NJ7P Assembler	                                 MICRO  MICROBASIC	Page 17 
 Line  Addr Object Code	Source Code

 01025 0841 BD 04BF 	        JSR  EXPR
 01026 0844 BD 05C2 	        JSR  FINDN1
 01027 0847 24 05	        BCC  GOTO2
 01028 0849 C6 07	        LDA B #7
 01029 084B 7E 0694 	        JMP   ERROR
 01030 084E DF 36	GOTO2   STX  BASLIN
 01031 0850 20 A3	        BRA   BASIC
 01032			            
 01033 0852 DE 57	RETURN  LDX   SBRPNT
 01034 0854 8C 0059 	        CPX  #SBRSTK
 01035 0857 26 05	        BNE  RETUR1
 01036 0859 C6 0A	        LDA B #10
 01037 085B 7E 0694 	        JMP   ERROR
 01038 085E 09		RETUR1  DEX 
 01039 085F 09		        DEX 
 01040 0860 DF 57	        STX  SBRPNT
 01041 0862 EE 00	        LDX   0,X
 01042 0864 DF 36	        STX  BASLIN
 01043 0866 20 8D	        BRA  BASIC
 01044			            
 01045 0868 CE 01D3 	PAUSE   LDX   #PAUMSG
 01046 086B BD 02AF 	        JSR  OUTNCR
 01047 086E BD 0363 	        JSR  PRINSP
 01048 0871 DE 36	        LDX   BASLIN
 01049 0873 A6 00	        LDA A 0,X
 01050 0875 08		        INX 
 01051 0876 E6 00	        LDA B 0,X
 01052 0878 08		        INX 
 01053 0879 BD 09FD 	        JSR   PRN0
 01054 087C BD 0297 	PAUSE1  JSR   INCH
 01055 087F 81 0D	        CMP A #$0D
 01056 0881 26 F9	        BNE   PAUSE1
 01057 0883 BD 02B6 	        JSR   CRLF
 01058 0886 7E 0A84 	PAUSE2  JMP   REMARK
 01059 0889 96 34	INPUT   LDA A  BASPNT
 01060 088B 26 04	        BNE  INPUT0
 01061 088D C6 0C	        LDA B #12
 01062 088F 20 20	        BRA  INPERR
 01063 0891 BD 0241 	INPUT0  JSR  KEYBD
 01064 0894 CE 00B0 	        LDX   #BUFFER
 01065 0897 DF AC	        STX  BUFNXT
 01066 0899 DE 34	        LDX  BASPNT
 01067 089B BD 0397 	INPUT1  JSR  TSTV
 01068 089E 25 2C	        BCS  INPEX
 01069 08A0 DF 34	        STX  BASPNT
 01070 08A2 DE AC	        LDX  BUFNXT
 01071 08A4 8D 43	INPUT2  BSR   INNUM
 01072 08A6 24 14	        BCC  INPUT4
 01073 08A8 09		        DEX 
 01074 08A9 A6 00	        LDA A 0,X
 01075 08AB 81 1E	        CMP A #$1E
 01076 08AD 27 05	        BEQ  INPUTS
 01077 08AF C6 02	        LDA B #2
 01078 08B1 7E 0694 	INPERR  JMP   ERROR
 01079 08B4 BD 0241 	INPUTS  JSR   KEYBD
 01080 08B7 CE 00B0 	        LDX  #BUFFER
 01081 08BA 20 E8	        BRA  INPUT2
 01082 08BC BD 02EA 	INPUT4  JSR   STORE
 01083 08BF 08		        INX 
 01084 08C0 DF AC	        STX  BUFNXT
 01085 08C2 DE 34	        LDX  BASPNT
 01086 08C4 BD 05E7 	        JSR  SKIPSP
 01087 08C7 08		        INX 
 01088 08C8 81 2C	        CMP A #',
NJ7P Assembler	                                 MICRO  MICROBASIC	Page 18 
 Line  Addr Object Code	Source Code

 01089 08CA 27 CF	        BEQ  INPUT1
 01090 08CC 09		INPEX   DEX 
 01091 08CD 7F 0042 	        CLR  PRCNT
 01092 08D0 81 1E	        CMP A #$1E
 01093 08D2 27 B2	        BEQ  PAUSE2
 01094 08D4 C6 03	DBLLTR  LDA B #3
 01095 08D6 7E 0694 	        JMP   ERROR
 01096 08D9 8D 19	TSTN    BSR  INTSTN
 01097 08DB 25 06	        BCS  TSTN0
 01098 08DD BD 0470 	        JSR  PULLAE
 01099 08E0 4D		        TST A
 01100 08E1 2A 02	        BPL  TSTN1
 01101 08E3 0D		TSTN0   SEC 
 01102 08E4 39		        RTS 
 01103 08E5 BD 0465 	TSTN1   JSR   PUSHAE
 01104 08E8 39		        RTS 
 01105			            
 01106 08E9 BD 05E7 	INNUM   JSR   SKIPSP
 01107 08EC 97 4C	        STA A TSIGN
 01108 08EE 08		        INX 
 01109 08EF 81 2D	        CMP A #'-
 01110 08F1 27 04	        BEQ   INNUM0
 01111 08F3 09		        DEX 
 01112 08F4 7F 004C 	INTSTN  CLR   TSIGN
 01113 08F7 BD 05E7 	INNUM0  JSR    SKIPSP
 01114 08FA BD 0457 	        JSR  TESTNO
 01115 08FD 24 01	        BCC  INNUM1
 01116 08FF 39		        RTS 
 01117 0900 09		INNUM1  DEX 
 01118 0901 4F		        CLR A
 01119 0902 5F		        CLR B
 01120 0903 08		INNUM2  INX 
 01121 0904 36		        PSH A
 01122 0905 A6 00	        LDA A 0,X
 01123 0907 BD 0457 	        JSR  TESTNO
 01124 090A 25 26	        BCS  INNEX
 01125 090C 80 30	        SUB A #$30
 01126 090E 97 4E	        STA A TNUMB
 01127 0910 32		        PUL A
 01128 0911 58		        ASL B
 01129 0912 49		        ROL A
 01130 0913 25 18	        BCS  INNERR
 01131 0915 D7 50	        STA B BNUMB
 01132 0917 97 4F	        STA A ANUMB
 01133 0919 58		        ASL B
 01134 091A 49		        ROL A
 01135 091B 25 10	        BCS  INNERR
 01136 091D 58		        ASL B
 01137 091E 49		        ROL A
 01138 091F 25 0C	        BCS  INNERR
 01139 0921 DB 50	        ADD B BNUMB
 01140 0923 99 4F	        ADC A ANUMB
 01141 0925 25 06	        BCS  INNERR
 01142 0927 DB 4E	        ADD B TNUMB
 01143 0929 89 00	        ADC A #0
 01144 092B 24 D6	        BCC   INNUM2
 01145 092D C6 02	INNERR  LDA B #2
 01146 092F 7E 0694 	        JMP   ERROR
 01147 0932 32		INNEX   PUL A
 01148 0933 7D 004C 	        TST  TSIGN
 01149 0936 27 03	        BEQ  INNEX2
 01150 0938 BD 059C 	        JSR  NEGAB
 01151 093B BD 0465 	INNEX2  JSR  PUSHAE
 01152 093E 0C		        CLC 
NJ7P Assembler	                                 MICRO  MICROBASIC	Page 19 
 Line  Addr Object Code	Source Code

 01153 093F 39		        RTS 
 01154			            
 01155 0940 DE 34	PRINT   LDX   BASPNT
 01156 0942 BD 05E7 	PRINT0  JSR   SKIPSP
 01157 0945 81 22	        CMP A #'"
 01158 0947 26 18	        BNE  PRINT4
 01159 0949 08		        INX 
 01160 094A A6 00	PRINT1  LDA A 0,X
 01161 094C 08		        INX 
 01162 094D 81 22	        CMP A  #'"
 01163 094F 27 5A	        BEQ   PRIN88
 01164 0951 81 1E	        CMP A #$1E
 01165 0953 26 04	        BNE  PRINT2
 01166 0955 C6 04	        LDA B  #4
 01167 0957 20 34	        BRA   PRINTE
 01168 0959 BD 0292 	PRINT2  JSR   OUTCH
 01169 095C BD 09D2 	        JSR  ENLINE
 01170 095F 20 E9	        BRA  PRINT1
 01171 0961 81 1E	PRINT4  CMP A #$1E
 01172 0963 26 14	        BNE  PRINT6
 01173 0965 09		        DEX 
 01174 0966 A6 00	        LDA A 0,X
 01175 0968 08		        INX 
 01176 0969 81 3B	        CMP A #';
 01177 096B 27 06	        BEQ  PRINT5
 01178 096D BD 02B6 	        JSR  CRLF
 01179 0970 7F 0042 	        CLR  PRCNT
 01180 0973 08		PRINT5  INX 
 01181 0974 DF 36	        STX  BASLIN
 01182 0976 7E 07F5 	        JMP  BASIC
 01183 0979 81 54	PRINT6  CMP A #'T
 01184 097B 26 28	        BNE  PRINT8
 01185 097D E6 01	        LDA B 1,X
 01186 097F C1 41	        CMP B #'A
 01187 0981 26 22	        BNE  PRINT8
 01188 0983 08		        INX 
 01189 0984 08		        INX 
 01190 0985 A6 00	        LDA A 0,X
 01191 0987 81 42	        CMP A #'B
 01192 0989 27 05	        BEQ  PRINT7
 01193 098B C6 0B	        LDA B #11
 01194 098D 7E 0694 	PRINTE  JMP   ERROR
 01195 0990 08		PRINT7  INX 
 01196 0991 BD 04BF 	        JSR  EXPR
 01197 0994 BD 0470 	        JSR  PULLAE
 01198 0997 D0 42	        SUB B PRCNT
 01199 0999 23 10	        BLS  PRIN88
 01200 099B BD 0363 	PRIN77  JSR  PRINSP
 01201 099E 8D 32	        BSR  ENLINE
 01202 09A0 5A		        DEC B
 01203 09A1 26 F8	        BNE  PRIN77
 01204 09A3 20 06	        BRA  PRIN88
 01205 09A5 BD 04BF 	PRINT8  JSR   EXPR
 01206 09A8 BD 09E2 	        JSR   PRN
 01207 09AB BD 05E7 	PRIN88  JSR   SKIPSP
 01208 09AE 81 2C	        CMP A #',
 01209 09B0 26 10	        BNE  PRIN99
 01210 09B2 08		        INX 
 01211 09B3 96 42	PRLOOP  LDA A PRCNT
 01212 09B5 16		        TAB 
 01213 09B6 C4 F8	        AND B #$F8
 01214 09B8 10		        SBA 
 01215 09B9 27 0C	        BEQ  PRI999
 01216 09BB BD 0363 	        JSR  PRINSP
NJ7P Assembler	                                 MICRO  MICROBASIC	Page 20 
 Line  Addr Object Code	Source Code

 01217 09BE 8D 12	        BSR  ENLINE
 01218 09C0 20 F1	        BRA  PRLOOP
 01219 09C2 81 3B	PRIN99  CMP A #';
 01220 09C4 26 04	        BNE  PREND
 01221 09C6 08		        INX 
 01222 09C7 7E 0942 	PRI999  JMP   PRINT0
 01223 09CA 81 1E	PREND   CMP A #$1E
 01224 09CC 27 93	        BEQ  PRINT4
 01225 09CE C6 06	        LDA B #6
 01226 09D0 20 BB	        BRA  PRINTE
 01227 09D2 36		ENLINE  PSH A
 01228 09D3 96 42	        LDA A PRCNT
 01229 09D5 4C		        INC A
 01230 09D6 91 43	        CMP A MAXLIN
 01231 09D8 26 04	        BNE  ENLEXT
 01232 09DA BD 02B6 	        JSR  CRLF
 01233 09DD 4F		        CLR A
 01234 09DE 97 42	ENLEXT  STA A PRCNT
 01235 09E0 32		        PUL A
 01236 09E1 39		        RTS 
 01237 09E2 BD 0363 	PRN     JSR  PRINSP
 01238 09E5 8D EB	        BSR  ENLINE
 01239 09E7 86 FF	        LDA A #$FF
 01240 09E9 97 4C	        STA A TSIGN
 01241 09EB BD 0470 	        JSR  PULLAE
 01242 09EE 4D		        TST A
 01243 09EF 2A 0C	        BPL  PRN0
 01244 09F1 BD 059C 	        JSR  NEGAB
 01245 09F4 36		        PSH A
 01246 09F5 86 2D	        LDA A #'-
 01247 09F7 BD 0292 	        JSR  OUTCH
 01248 09FA 8D D6	        BSR  ENLINE
 01249 09FC 32		        PUL A
 01250 09FD BD 02CA 	PRN0    JSR   PUSHX
 01251 0A00 CE 0A3A 	        LDX  #KIOK
 01252 0A03 7F 004E 	PRN1    CLR   TNUMB
 01253 0A06 E0 01	PRN2    SUB B 1,X
 01254 0A08 A2 00	        SBC A 0,X
 01255 0A0A 25 05	        BCS  PRN5
 01256 0A0C 7C 004E 	        INC  TNUMB
 01257 0A0F 20 F5	        BRA  PRN2
 01258 0A11 EB 01	PRN5    ADD B 1,X
 01259 0A13 A9 00	        ADC A 0,X
 01260 0A15 36		        PSH A
 01261 0A16 96 4E	        LDA A TNUMB
 01262 0A18 26 0A	        BNE  PRN6
 01263 0A1A 8C 0A42 	        CPX  #KIOK+8
 01264 0A1D 27 05	        BEQ  PRN6
 01265 0A1F 7D 004C 	        TST  TSIGN
 01266 0A22 26 0A	        BNE  PRN7
 01267 0A24 8B 30	PRN6    ADD A #$30
 01268 0A26 7F 004C 	        CLR  TSIGN
 01269 0A29 BD 0292 	        JSR  OUTCH
 01270 0A2C 8D A4	        BSR  ENLINE
 01271 0A2E 32		PRN7    PUL A
 01272 0A2F 08		        INX 
 01273 0A30 08		        INX 
 01274 0A31 8C 0A44 	        CPX  #KIOK+10
 01275 0A34 26 CD	        BNE  PRN1
 01276 0A36 BD 02DF 	        JSR  PULLX
 01277 0A39 39		        RTS 
 01278			            
 01279 0A3A 2710 	KIOK    FDB  10000
 01280 0A3C 03E8 	        FDB  1000
NJ7P Assembler	                                 MICRO  MICROBASIC	Page 21 
 Line  Addr Object Code	Source Code

 01281 0A3E 0064 	        FDB  100
 01282 0A40 000A 	        FDB  10
 01283 0A42 0001 	        FDB  1
 01284			            
 01285 0A44 DE 34	LET     LDX  BASPNT
 01286 0A46 BD 0397 	        JSR  TSTV
 01287 0A49 24 05	        BCC  LET1
 01288 0A4B C6 0C	LET0    LDA B #12
 01289 0A4D 7E 0694 	LET00   JMP   ERROR
 01290 0A50 BD 05E7 	LET1    JSR   SKIPSP
 01291 0A53 08		        INX 
 01292 0A54 81 3D	        CMP A #'=
 01293 0A56 27 04	        BEQ  LET3
 01294 0A58 C6 06	LET2    LDA B #6
 01295 0A5A 20 F1	        BRA  LET00
 01296 0A5C BD 04BF 	LET3    JSR  EXPR
 01297 0A5F 81 1E	        CMP A #$1E
 01298 0A61 26 F5	        BNE  LET2
 01299 0A63 BD 02EA 	        JSR  STORE
 01300 0A66 20 1C	        BRA  REMARK
 01301 0A68 D6 49	SIZE    LDA B ARRTAB+1
 01302 0A6A 96 48	        LDA A ARRTAB
 01303 0A6C D0 2F	        SUB B SOURCE+1
 01304 0A6E 92 2E	        SBC A SOURCE
 01305 0A70 BD 09FD 	        JSR  PRN0
 01306 0A73 BD 0363 	        JSR  PRINSP
 01307 0A76 D6 47	        LDA B MEMEND+1
 01308 0A78 96 46	        LDA A MEMEND
 01309 0A7A D0 49	        SUB B ARRTAB+1
 01310 0A7C 92 48	        SBC A ARRTAB
 01311 0A7E BD 09FD 	        JSR  PRN0
 01312 0A81 BD 02B6 	        JSR  CRLF
 01313 0A84 BD 0605 	REMARK  JSR  NXTLIN
 01314 0A87 7E 07F5 	        JMP  BASIC
 01315 0A8A DE 34	DIM     LDX  BASPNT
 01316 0A8C BD 05E7 	DIM1    JSR  SKIPSP
 01317 0A8F BD 044F 	        JSR  TSTLTR
 01318 0A92 24 03	        BCC  DIM111
 01319 0A94 7E 0B2B 	        JMP  DIMEX
 01320 0A97 80 40	DIM111  SUB A #$40
 01321 0A99 97 9A	        STA A DIMVAR+1
 01322 0A9B 48		        ASL A
 01323 0A9C 9B 9A	        ADD A DIMVAR+1
 01324 0A9E 97 9A	        STA A DIMVAR+1
 01325 0AA0 BD 02CA 	        JSR  PUSHX
 01326 0AA3 DE 99	        LDX  DIMVAR
 01327 0AA5 6D 00	        TST  0,X
 01328 0AA7 26 1C	        BNE  DIMERR
 01329 0AA9 6D 01	        TST  1,X
 01330 0AAB 26 18	        BNE  DIMERR
 01331 0AAD 6D 02	        TST  2,X
 01332 0AAF 26 14	        BNE  DIMERR
 01333 0AB1 96 49	        LDA A ARRTAB+1
 01334 0AB3 A7 01	        STA A 1,X
 01335 0AB5 96 48	        LDA A ARRTAB
 01336 0AB7 A7 00	        STA A 0,X
 01337 0AB9 A7 02	        STA A 2,X
 01338 0ABB BD 02DF 	        JSR  PULLX
 01339 0ABE BD 05ED 	        JSR  INXSKP
 01340 0AC1 81 28	        CMP A #'(
 01341 0AC3 27 05	        BEQ   DIM2
 01342 0AC5 C6 05	DIMERR  LDA B #5
 01343 0AC7 7E 0694 	DIMER1  JMP  ERROR
 01344 0ACA 08		DIM2    INX 
NJ7P Assembler	                                 MICRO  MICROBASIC	Page 22 
 Line  Addr Object Code	Source Code

 01345 0ACB BD 04BF 	        JSR  EXPR
 01346 0ACE BD 0463 	        JSR  PULPSH
 01347 0AD1 5D		        TST B
 01348 0AD2 27 03	        BEQ  SUBERR
 01349 0AD4 4D		        TST A
 01350 0AD5 27 04	        BEQ   DIM3
 01351 0AD7 C6 0F	SUBERR  LDA B #15
 01352 0AD9 20 EC	        BRA  DIMER1
 01353 0ADB 8D 55	DIM3    BSR  STRSUB
 01354 0ADD A6 00	        LDA A 0,X
 01355 0ADF 81 2C	        CMP A #',
 01356 0AE1 26 12	        BNE  DIM6
 01357 0AE3 08		        INX 
 01358 0AE4 BD 04BF 	        JSR  EXPR
 01359 0AE7 BD 0463 	        JSR  PULPSH
 01360 0AEA 5D		        TST B
 01361 0AEB 27 EA	        BEQ  SUBERR
 01362 0AED 4D		        TST A
 01363 0AEE 26 E7	        BNE  SUBERR
 01364 0AF0 8D 40	        BSR  STRSUB
 01365 0AF2 BD 04F1 	        JSR  MPY
 01366 0AF5 4F		DIM6    CLR A
 01367 0AF6 C6 02	        LDA B #2
 01368 0AF8 BD 0465 	        JSR  PUSHAE
 01369 0AFB BD 04F1 	        JSR  MPY
 01370 0AFE A6 00	        LDA A 0,X
 01371 0B00 81 29	        CMP A #')
 01372 0B02 26 C1	        BNE  DIMERR
 01373 0B04 08		        INX 
 01374 0B05 D6 49	        LDA B ARRTAB+1
 01375 0B07 96 48	        LDA A ARRTAB
 01376 0B09 BD 05A8 	        JSR  ADD1
 01377 0B0C 4F		        CLR A
 01378 0B0D C6 02	        LDA B #2
 01379 0B0F BD 05A8 	        JSR  ADD1
 01380 0B12 BD 0470 	        JSR  PULLAE
 01381 0B15 91 46	        CMP A MEMEND
 01382 0B17 23 03	        BLS  DIM7
 01383 0B19 7E 07F0 	        JMP  OVERFL
 01384 0B1C 97 48	DIM7    STA A ARRTAB
 01385 0B1E D7 49	        STA B ARRTAB+1
 01386 0B20 BD 05E7 	        JSR  SKIPSP
 01387 0B23 81 2C	        CMP A #',
 01388 0B25 26 04	        BNE  DIMEX
 01389 0B27 08		        INX 
 01390 0B28 7E 0A8C 	        JMP  DIM1
 01391 0B2B 81 1E	DIMEX   CMP A #$1E
 01392 0B2D 26 96	        BNE  DIMERR
 01393 0B2F 7E 0A84 	        JMP  REMARK
 01394 0B32 BD 02CA 	STRSUB  JSR  PUSHX
 01395 0B35 DE 99	        LDX  DIMVAR
 01396 0B37 EE 00	        LDX  0,X
 01397 0B39 6D 00	STRSU2  TST  0,X
 01398 0B3B 27 03	        BEQ  STRSU3
 01399 0B3D 08		        INX 
 01400 0B3E 20 F9	        BRA  STRSU2
 01401 0B40 E7 00	STRSU3  STA B 0,X
 01402 0B42 BD 02DF 	        JSR  PULLX
 01403 0B45 39		        RTS 
 01404			            
 01405 0B46 DE 34	FOR     LDX   BASPNT
 01406 0B48 BD 0397 	        JSR  TSTV
 01407 0B4B 24 03	        BCC  FOR1
 01408 0B4D 7E 0A4B 	        JMP  LET0
NJ7P Assembler	                                 MICRO  MICROBASIC	Page 23 
 Line  Addr Object Code	Source Code

 01409 0B50 DF 34	FOR1    STX  BASPNT
 01410 0B52 BD 0463 	        JSR  PULPSH
 01411 0B55 DE 53	        LDX  FORPNT
 01412 0B57 8C 0099 	        CPX  #FORSTK+48
 01413 0B5A 26 05	        BNE  FOR11
 01414 0B5C C6 10	        LDA B #16
 01415 0B5E 7E 0694 	        JMP  ERROR
 01416 0B61 A7 00	FOR11   STA A 0,X
 01417 0B63 08		        INX 
 01418 0B64 E7 00	        STA B 0,X
 01419 0B66 08		        INX 
 01420 0B67 DF 53	        STX  FORPNT
 01421 0B69 DE 34	        LDX  BASPNT
 01422 0B6B BD 05E7 	        JSR  SKIPSP
 01423 0B6E 08		        INX 
 01424 0B6F 81 3D	        CMP A #'=
 01425 0B71 27 03	        BEQ   FOR3
 01426 0B73 7E 0A58 	FOR2    JMP   LET2
 01427 0B76 BD 04BF 	FOR3    JSR  EXPR
 01428 0B79 BD 02EA 	        JSR  STORE
 01429 0B7C 08		        INX 
 01430 0B7D 81 54	        CMP A #'T
 01431 0B7F 26 F2	        BNE  FOR2
 01432 0B81 A6 00	        LDA A 0,X
 01433 0B83 08		        INX 
 01434 0B84 81 4F	        CMP A #'O
 01435 0B86 26 EB	        BNE  FOR2
 01436 0B88 BD 04BF 	        JSR  EXPR
 01437 0B8B BD 0470 	        JSR  PULLAE
 01438 0B8E DF 34	        STX  BASPNT
 01439 0B90 DE 53	        LDX  FORPNT
 01440 0B92 A7 00	        STA A 0,X
 01441 0B94 08		        INX 
 01442 0B95 E7 00	        STA B 0,X
 01443 0B97 08		        INX 
 01444 0B98 DF 53	        STX  FORPNT
 01445 0B9A DE 34	        LDX  BASPNT
 01446 0B9C A6 00	        LDA A 0,X
 01447 0B9E 81 1E	        CMP A #$1E
 01448 0BA0 26 D1	FOR8    BNE  FOR2
 01449 0BA2 08		        INX 
 01450 0BA3 DF 36	        STX  BASLIN
 01451 0BA5 DE 53	        LDX  FORPNT
 01452 0BA7 96 36	        LDA A BASLIN
 01453 0BA9 A7 00	        STA A 0,X
 01454 0BAB 08		        INX 
 01455 0BAC D6 37	        LDA B BASLIN+1
 01456 0BAE E7 00	        STA B 0,X
 01457 0BB0 08		        INX 
 01458 0BB1 DF 53	        STX  FORPNT
 01459 0BB3 7E 07F5 	        JMP  BASIC
 01460			            
 01461 0BB6 DE 34	NEXT    LDX  BASPNT
 01462 0BB8 BD 0397 	        JSR  TSTV
 01463 0BBB 24 03	        BCC  NEXT1
 01464 0BBD 7E 0A4B 	        JMP  LET0
 01465 0BC0 BD 05E7 	NEXT1   JSR  SKIPSP
 01466 0BC3 81 1E	        CMP A #$1E
 01467 0BC5 26 D9	        BNE  FOR8
 01468 0BC7 08		        INX 
 01469 0BC8 DF 36	        STX   BASLIN
 01470 0BCA CE 0069 	        LDX  #FORSTK
 01471 0BCD BD 0463 	        JSR  PULPSH
 01472 0BD0 9C 53	NEXT2   CPX  FORPNT
NJ7P Assembler	                                 MICRO  MICROBASIC	Page 24 
 Line  Addr Object Code	Source Code

 01473 0BD2 27 3A	        BEQ  NEXT6
 01474 0BD4 A1 00	        CMP A 0,X
 01475 0BD6 26 2E	        BNE  NEXT5
 01476 0BD8 E1 01	        CMP B 1,X
 01477 0BDA 26 2A	        BNE  NEXT5
 01478 0BDC BD 0303 	        JSR  IND
 01479 0BDF BD 0463 	        JSR  PULPSH
 01480 0BE2 E0 03	        SUB B 3,X
 01481 0BE4 A2 02	        SBC A 2,X
 01482 0BE6 25 05	        BCS  NEXT4
 01483 0BE8 DF 53	        STX   FORPNT
 01484 0BEA 7E 07F5 	NEXT3   JMP   BASIC
 01485 0BED BD 0470 	NEXT4   JSR  PULLAE
 01486 0BF0 CB 01	        ADD B #1
 01487 0BF2 89 00	        ADC A #0
 01488 0BF4 BD 02CA 	        JSR  PUSHX
 01489 0BF7 EE 00	        LDX  0,X
 01490 0BF9 A7 00	        STA A 0,X
 01491 0BFB E7 01	        STA B 1,X
 01492 0BFD BD 02DF 	        JSR  PULLX
 01493 0C00 EE 04	        LDX  4,X
 01494 0C02 DF 36	        STX  BASLIN
 01495 0C04 20 E4	        BRA   NEXT3
 01496 0C06 08		NEXT5   INX 
 01497 0C07 08		        INX 
 01498 0C08 08		        INX 
 01499 0C09 08		        INX 
 01500 0C0A 08		        INX 
 01501 0C0B 08		        INX 
 01502 0C0C 20 C2	        BRA  NEXT2
 01503 0C0E C6 11	NEXT6   LDA B #17 
 01504 0C10 7E 0694 	        JMP  ERROR
 01505			            
 01506 0C13 DE 34	IF      LDX  BASPNT
 01507 0C15 BD 04BF 	        JSR  EXPR
 01508 0C18 8D 17	        BSR  RELOP
 01509 0C1A 97 4D	        STA A NCMPR
 01510 0C1C BD 04BF 	        JSR  EXPR
 01511 0C1F DF 34	        STX  BASPNT
 01512 0C21 8D 4A	        BSR  CMPR
 01513 0C23 24 03	        BCC  IF2
 01514 0C25 7E 0A84 	        JMP   REMARK
 01515 0C28 DE 34	IF2     LDX   BASPNT
 01516 0C2A BD 0611 	        JSR   CCODE
 01517 0C2D EE 00	        LDX  0,X
 01518 0C2F 6E 00	        JMP  0,X
 01519 0C31 BD 05E7 	RELOP   JSR  SKIPSP
 01520 0C34 08		        INX 
 01521 0C35 81 3D	        CMP A #'=
 01522 0C37 26 03	        BNE  RELOP0
 01523 0C39 86 00	        LDA A #0
 01524 0C3B 39		        RTS 
 01525 0C3C E6 00	RELOP0  LDA B 0,X
 01526 0C3E 81 3C	        CMP A #'<
 01527 0C40 26 13	        BNE  RELOP4
 01528 0C42 C1 3D	        CMP B #'=
 01529 0C44 26 04	        BNE  RELOP1
 01530 0C46 08		        INX 
 01531 0C47 86 02	        LDA A #2
 01532 0C49 39		        RTS 
 01533 0C4A C1 3E	RELOP1  CMP B #'>
 01534 0C4C 26 04	        BNE  RELOP3
 01535 0C4E 08		RELOP2  INX 
 01536 0C4F 86 03	        LDA A #3
NJ7P Assembler	                                 MICRO  MICROBASIC	Page 25 
 Line  Addr Object Code	Source Code

 01537 0C51 39		        RTS 
 01538 0C52 86 01	RELOP3  LDA A #1
 01539 0C54 39		        RTS 
 01540 0C55 81 3E	RELOP4  CMP A #'>
 01541 0C57 27 05	        BEQ  REL44
 01542 0C59 C6 06	        LDA B #6
 01543 0C5B 7E 0694 	        JMP  ERROR
 01544 0C5E C1 3D	REL44   CMP B  #'=
 01545 0C60 26 04	        BNE  RELOP5
 01546 0C62 08		        INX 
 01547 0C63 86 05	        LDA A #5
 01548 0C65 39		        RTS 
 01549 0C66 C1 3C	RELOP5  CMP B #'<
 01550 0C68 27 E4	        BEQ  RELOP2
 01551 0C6A 86 04	        LDA A #4
 01552 0C6C 39		        RTS 
 01553			            
 01554 0C6D 96 4D	CMPR    LDA A  NCMPR
 01555 0C6F 48		        ASL A
 01556 0C70 48		        ASL A
 01557 0C71 B7 0C7F 	        STA A FUNNY+1
 01558 0C74 CE 0C80 	        LDX  #CMPR1
 01559 0C77 BD 05A3 	        JSR  SUB
 01560 0C7A BD 0470 	        JSR  PULLAE
 01561 0C7D 4D		        TST A
 01562 0C7E 6E 00	FUNNY   JMP   0,X
 01563 0C80 27 18	CMPR1   BEQ  MAYEQ
 01564 0C82 20 12	        BRA  NOCMPR
 01565 0C84 2B 12	        BMI  OKCMPR
 01566 0C86 20 0E	        BRA  NOCMPR
 01567 0C88 2B 0E	        BMI  OKCMPR
 01568 0C8A 20 F4	        BRA  CMPR1
 01569 0C8C 26 0A	        BNE  OKCMPR
 01570 0C8E 20 0F	        BRA  MYNTEQ
 01571 0C90 27 0D	        BEQ  MYNTEQ
 01572 0C92 2B 02	        BMI  NOCMPR
 01573 0C94 2A 02	        BPL  OKCMPR
 01574 0C96 0D		NOCMPR  SEC 
 01575 0C97 39		        RTS 
 01576 0C98 0C		OKCMPR  CLC 
 01577 0C99 39		        RTS 
 01578 0C9A 5D		MAYEQ   TST B
 01579 0C9B 27 FB	        BEQ  OKCMPR
 01580 0C9D 20 F7	        BRA  NOCMPR
 01581 0C9F 5D		MYNTEQ  TST B
 01582 0CA0 26 F6	        BNE  OKCMPR
 01583 0CA2 20 F2	        BRA  NOCMPR
 01584			            
 01585			******************************
 01586				    
 01587      0CA4 	END     EQU  *
 01588			
 01589			*	ORG $100
 01590			*	LDA A #'A
 01591			*	JSR  OUTEEE
 01592			*	JMP  $E0D0
 01593			
 01594 0CA4		        END 


End of Assembly
No errors found
NJ7P Assembler	                                 MICRO  MICROBASIC	Page 26 
          Symbol Addr Seg Flg           Symbol Addr Seg Flg

             ADD 05A5  A  A*              ADD1 05A8  A  A*  
           AESTK 0051  A  AD             ANUMB 004F  A  AD  
          ARRTAB 0048  A  AD            ASTACK 021A  A  A*  
          BACKSP 0044  A  AD             BASIC 07F5  A  A*  
          BASIC0 07FB  A  A*            BASIC1 07FE  A  A*  
          BASIC2 081A  A  A             BASLIN 0036  A  AD  
          BASPNT 0034  A  AD             BNUMB 0050  A  AD  
           BREAK 029A  A  A             BREAK1 029D  A  A*  
          BREAK2 02A6  A  A*            BREAK3 02A7  A  A*  
            BUF3 07E5  A  A*            BUFFER 00B0  A  AD  
          BUFNXT 00AC  A  AD            BUFWRT 07CF  A  A*  
          CANCEL 0045  A  AD            CAPPEN 076E  A  A*  
          CCEXIT 0640  A  A*             CCODE 0611  A  A*  
           CLIST 06EE  A  A*            CLIST1 06F6  A  A   
          CLIST2 0717  A  A*            CLIST3 071B  A  A*  
          CLIST4 0729  A  A*            CLIST5 072C  A  A*  
            CMPR 0C6D  A  A*             CMPR1 0C80  A  A*  
          CNTLIN 0282  A  A*            COMEND 01DC  A  A*  
          COMMAN 0152  A  A*            CONTRL C000  A  A*  
           CREND 02C4  A  A               CRLF 02B6  A  A*  
          CRLFST 02C0  A  A*            DBLLTR 08D4  A  A*  
             DEL 0280  A  A*              DEL2 0782  A  A*  
            DEL4 0794  A  A*              DEL5 0798  A  A*  
          DELETE 0776  A  A*             DELEX 079F  A  A*  
          DELREP 0754  A  A*               DIM 0A8A  A  A*  
            DIM1 0A8C  A  A*            DIM111 0A97  A  A*  
            DIM2 0ACA  A  A*              DIM3 0ADB  A  A*  
            DIM6 0AF5  A  A*              DIM7 0B1C  A  A*  
          DIMCAL 0040  A  AD            DIMER1 0AC7  A  A*  
          DIMERR 0AC5  A  A*             DIMEX 0B2B  A  A*  
          DIMPNT 003E  A  AD            DIMVAR 0099  A  AD  
             DIV 0544  A  A*            DIV163 056A  A  A*  
          DIV165 0577  A  A*            DIV167 0578  A  A*  
          DIV169 058B  A  A*             DIV33 0553  A  A*  
            DIV4 0555  A  A*              DIV5 0560  A  A*  
             END 0CA4  A  A*            ENDBUF 00AE  A  AD  
          ENLEXT 09DE  A  A*            ENLINE 09D2  A  A*  
          ERRMS1 022F  A  A*            ERRMS2 0237  A  A*  
           ERROR 0694  A  A*            ERROR2 06B8  A  A*  
            EXPR 04BF  A  A*             EXPR0 04CE  A  A*  
          EXPR00 04D3  A  A*             EXPR1 04D5  A  A*  
           EXPR2 04E4  A  A*             EXPR3 04F0  A  A*  
            FACT 047B  A  A*             FACT0 0487  A  A*  
           FACT1 048D  A  A*             FACT2 049D  A  A*  
           FIND0 05C4  A  A*             FIND1 05D2  A  A*  
           FIND2 05D3  A  A*             FIND3 05E0  A  A*  
           FIND4 05E1  A  A*            FINDN1 05C2  A  A*  
          FINDNO 05B8  A  A*               FOR 0B46  A  A*  
            FOR1 0B50  A  A*             FOR11 0B61  A  A*  
            FOR2 0B73  A  A*              FOR3 0B76  A  A*  
            FOR8 0BA0  A  A*            FORPNT 0053  A  AD  
          FORSTK 0069  A  AD             FUNNY 0C7E  A  A*  
          GOLIST 016B  A  A              GOSUB 081C  A  A*  
          GOSUB1 082F  A  A*              GOTO 083F  A  A*  
           GOTO2 084E  A  A*            HIBALL 05DE  A  A*  
          HIGHLN 0032  A  AD             IEXIT 0289  A  A*  
              IF 0C13  A  A*               IF2 0C28  A  A*  
          IMPLET 01DD  A  A*              INCH 0297  A  A*  
             IND 0303  A  A*            INDEX1 0020  A  AD  
          INDEX2 0022  A  AD            INDEX3 0024  A  AD  
          INDEX4 0026  A  AD             INEEE E1AC  A  A*  
          INNERR 092D  A  A*             INNEX 0932  A  A*  
          INNEX2 093B  A  A*             INNUM 08E9  A  A*  
NJ7P Assembler	                                 MICRO  MICROBASIC	Page 27 
          Symbol Addr Seg Flg           Symbol Addr Seg Flg

          INNUM0 08F7  A  A*            INNUM1 0900  A  A*  
          INNUM2 0903  A  A*            INPERR 08B1  A  A*  
           INPEX 08CC  A  A*             INPUT 0889  A  A*  
          INPUT0 0891  A  A*            INPUT1 089B  A  A*  
          INPUT2 08A4  A  A*            INPUT4 08BC  A  A*  
          INPUTS 08B4  A  A*              INS1 07A7  A  A   
            INS2 07C4  A  A*            INSERT 07A2  A  A*  
          INTSTN 08F4  A  A*            INXSKP 05ED  A  A*  
          KEYB10 0253  A  A             KEYB11 0256  A  A*  
          KEYB55 026A  A  A              KEYBD 0241  A  A*  
          KEYBD0 0245  A  A*            KEYBD1 024A  A  A*  
          KEYBD2 025E  A  A             KEYBD3 0276  A  A*  
           KEYWD 004A  A  AD              KIOK 0A3A  A  A*  
             LET 0A44  A  A*              LET0 0A4B  A  A*  
           LET00 0A4D  A  A*              LET1 0A50  A  A*  
            LET2 0A58  A  A*              LET3 0A5C  A  A*  
           LEXIT 032F  A  A*             LINE1 05FB  A  A*  
          LINENO 05F1  A  A*              LIST 031C  A  A*  
           LIST0 0324  A  A*             LIST1 0326  A  A*  
           LOOP2 0689  A  A*             LOOP3 061A  A  A*  
           LOOP4 061D  A  A*             LOOP5 0628  A  A*  
           LOOP6 0634  A  A              LOOP7 0638  A  A*  
           LOOP8 063D  A  A             MAXLIN 0043  A  AD  
           MAYEQ 0C9A  A  A*              MDS2 0533  A  A*  
            MDS3 053F  A  A*            MDSIGN 0525  A  A*  
          MEMEND 0046  A  AD               MPY 04F1  A  A*  
            MPY4 04F9  A  A*              MPY5 050A  A  A*  
            MPY6 051D  A  A*            MPYERR 0505  A  A*  
          MYNTEQ 0C9F  A  A*             NCMPR 004D  A  AD  
             NEG 058F  A  A*             NEGAB 059C  A  A*  
           NEWL3 0676  A  A             NEWLIN 066B  A  A*  
           NEXIT 076B  A  A*              NEXT 0BB6  A  A*  
           NEXT1 0BC0  A  A*             NEXT2 0BD0  A  A*  
           NEXT3 0BEA  A  A*             NEXT4 0BED  A  A*  
           NEXT5 0C06  A  A*             NEXT6 0C0E  A  A*  
          NEXTBA 002A  A  AD            NOCMPR 0C96  A  A*  
            NONO 045F  A  A*              NUM1 0745  A  A   
          NUMBER 0742  A  A*            NXTL12 0607  A  A*  
          NXTLIN 0605  A  A*            OFFSET 07CB  A  A*  
          OKCMPR 0C98  A  A*             OUTCH 0292  A  A*  
          OUTEEE E1D1  A  A*            OUTLI1 0341  A  A   
          OUTLI2 0350  A  A*            OUTLIN 0330  A  A*  
          OUTNCR 02AF  A  A*            OUTPU2 02AC  A  A*  
          OUTPU3 02AE  A  A             OUTPUT 02A8  A  A*  
          OVERFL 07F0  A  A*            PACKLN 0030  A  AD  
           PATCH 0730  A  A*            PAUMSG 01D3  A  A*  
           PAUSE 0868  A  A*            PAUSE1 087C  A  A*  
          PAUSE2 0886  A  A*            PGCNTL 022A  A  A*  
            PIAD 8004  A  A*             PRCNT 0042  A  AD  
           PREND 09CA  A  A*            PRI999 09C7  A  A*  
          PRIN77 099B  A  A*            PRIN88 09AB  A  A*  
          PRIN99 09C2  A  A*            PRINSP 0363  A  A*  
           PRINT 0940  A  A*            PRINT0 0942  A  A*  
          PRINT1 094A  A  A*            PRINT2 0959  A  A*  
          PRINT4 0961  A  A*            PRINT5 0973  A  A*  
          PRINT6 0979  A  A*            PRINT7 0990  A  A*  
          PRINT8 09A5  A  A*            PRINTE 098D  A  A*  
          PRLOOP 09B3  A  A*               PRN 09E2  A  A*  
            PRN0 09FD  A  A*              PRN1 0A03  A  A*  
            PRN2 0A06  A  A*              PRN5 0A11  A  A*  
            PRN6 0A24  A  A*              PRN7 0A2E  A  A*  
           PROGM 0100  A  A             PROMPT 0226  A  A*  
          PULLAE 0470  A  A*             PULLX 02DF  A  A*  
NJ7P Assembler	                                 MICRO  MICROBASIC	Page 28 
          Symbol Addr Seg Flg           Symbol Addr Seg Flg

          PULPSH 0463  A  A*            PUSHAE 0465  A  A*  
          PUSHTX 0038  A  AD             PUSHX 02CA  A  A*  
           RAND1 037D  A  A*            RANDOM 036B  A  A*  
          RDYMSG 021B  A  A*             READY 0662  A  A*  
           REL44 0C5E  A  A*             RELOP 0C31  A  A*  
          RELOP0 0C3C  A  A*            RELOP1 0C4A  A  A*  
          RELOP2 0C4E  A  A*            RELOP3 0C52  A  A*  
          RELOP4 0C55  A  A*            RELOP5 0C66  A  A*  
          REMARK 0A84  A  A*            REPLAC 0767  A  A*  
          RETUR1 085E  A  A*            RETURN 0852  A  A*  
          RNDVAL 003C  A  AD               RUN 06C0  A  A*  
            RUN1 06D9  A  A*              RUN2 06E5  A  A*  
          SAVESP 0028  A  AD            SBRPNT 0057  A  AD  
          SBRSTK 0059  A  AD              SIZE 0A68  A  A*  
          SKIPEX 05F0  A  A*            SKIPSP 05E7  A  A*  
          SOURCE 002E  A  AD                SP A008  A  A*  
           START 0646  A  A*            START1 0657  A  A   
          START2 0650  A  A*             STORE 02EA  A  A*  
          STRSU2 0B39  A  A*            STRSU3 0B40  A  A*  
          STRSUB 0B32  A  A*               SUB 05A3  A  A*  
          SUBER1 03E8  A  A*            SUBERR 0AD7  A  A*  
            TERM 04A2  A  A*             TERM0 04A4  A  A*  
           TERM1 04B2  A  A*             TERM2 04BE  A  A*  
          TESTNO 0457  A  A*             TNUMB 004E  A  AD  
           TSIGN 004C  A  AD            TST666 042A  A  A*  
          TSTLTR 044F  A  A*              TSTN 08D9  A  A*  
           TSTN0 08E3  A  A*             TSTN1 08E5  A  A*  
            TSTV 0397  A  A*             TSTV1 03A3  A  A*  
           TSTV2 03AD  A  A*            TSTV20 03C6  A  A*  
          TSTV22 03DB  A  A*             TSTV3 03EB  A  A*  
           TSTV4 03FC  A  A*             TSTV5 0401  A  A*  
           TSTV6 0408  A  A*             TSTV7 042C  A  A*  
           TSTV8 043B  A  A              TSTV9 0446  A  A*  
          TSTVER 03D8  A  A*            VARPNT 0055  A  AD  
          VARTAB 0103  A  A*            WORKBA 002C  A  AD  
          XSTACK 003A  A  AD             YESNO 0461  A  A*  

