EPTAB  013142 
TEND2  013146 
.FDVA  000241 
MPYA   000243 
FLUNA  000244 
PLTSC  000050 
EPT01  013146 
ARGET  013173 
COGET  013204 
PLPER  013236 
LTONE  013243 
PTOUT  013250 
PASS1  013264 
PASOT  013317 
MASK1  013325 
MASK2  013326 
MASK3  013327 
MASK4  013330 
PDWRD  013331 
PUWRD  013332 
M0016  013333 
PLPTC  013334 
PCTST  013335 
ARGAD  013336 
XWORD  013337 
YWORD  013340 
PLPEL  013341 
PLPEA  013342 
EPT02  013351 
SCSET  013404 
DIVDR  013414 
LTLNE  013453 
CHCNT  013466 
EOCHX  013523 
CHGET  013531 
MVGET  013563 
PCBIT  013615 
NMOVE  013627 
CRGET  013640 
LFGET  013652 
RTSET  013656 
SCALE  013670 
NEXTB  013677 
ADDER  013726 
CRCHC  013734 
LFCHC  013735 
CMSK1  013736 
CMSK2  013737 
CMSK3  013740 
BITNO  013741 
CHTAD  013742 
MVTAD  013743 
COEAD  013744 
LFCAD  013745 
MANDT  013746 
BUFAD  013747 
BUFLN  013750 
CHMCT  013751 
CHMAD  013752 
CHMPT  013753 
COEPT  013754 
BMASK  013755 
BCNTR  013756 
XRETN  013757 
YRETN  013760 
COEF1  013761 
COEF2  013763 
COEF3  013765 
COEF4  013767 
TTYAD  013771 
LTLAD  013772 
BLKLN  013773 
XCNST  013774 
YCNST  013775 
MXMAX  013776 
MYMAX  013777 
CHTAB  014000 
MVTAB  014101 
PEND2  014665 
                ASMB,A,B,L,T,C           ** BASIC CALLABLE DRIVER **
                      HED COMPLETE BASIC CALLABLE PLOTTER DRIVER FOR HP 7210
* 
* 
* 
***** COMPLETE BASIC CALLABLE PLOTTER DRIVER FOR HP 7210 *****
* 
*     SOURCE TAPE 1     PART NO. 72003-80001
*     SOURCE TAPE 2     PART NO. 72003-80002
*     LISTING           PART NO. 72003-90001
* 
* 
*     THIS DRIVER IS DESIGNED TO OPERATE THE HP 7210 DIGITAL
* PLOTTER USING HP BASIC AS SUPPLIED BY BASIC SYSTEM PART NO. 
* 20392A AND AS DOCUMENTED IN THE HP BASIC MANUAL PART NO.
* 02116-9077.  THE FUNCTION OF THIS DRIVER IS TO PROCESS
* POSITION CALLS, LETTERING CALLS, AND CHARACTER CODE BUFFERS 
* GENERATED BY HP BASIC.
* 
*     THE DRIVER PROCESSES POSITION CALLS BY CONVERTING THE 4 
* FLOATING POINT ARGUMENTS SUPPLIED INTO CONTROL BITS AND FIXED 
* POINT POSITION COMPONENTS AND THEN TRANSMITTING THIS INFORMATION
* TO THE PLOTTER. 
* 
*     THE DRIVER PROCESSES LETTERING CALLS BY CONVERTING THE 4
* FLOATING POINT ARGUMENTS SUPPLIED INTO 4 STORED COEFFICIENTS
* WHICH SPECIFY THE GEOMETRIC CHARACTERISTICS OF THE CHARACTERS 
* TO BE LETTERED AND THEN CHANGING THE TTY DRIVER ENTRY POINT 
* ADDRESS CONTAINED IN LOCATION 102B TO THE CHARACTER CODE BUFFER 
* PROCESSING ENTRY POINT ADDRESS. 
* 
*     THE DRIVER PROCESSES CHARACTER CODE BUFFERS BY CONVERTING 
* EACH CHARACTER CODE IN THE BUFFER INTO THE SEQUENCE OF SCALED 
* MOVES REQUIRED TO LETTER THAT CHARACTER AND TRANSMITTING THESE
* MOVES TO THE PLOTTER. 
* 
*        IF THE CHARACTER COUNT FOR A GIVEN BUFFER IS EXPRESSED 
*   AS A NON-NEGATIVE NUMBER THEN WHEN THE LAST CHARACTER IN THIS 
*   BUFFER HAS BEEN PROCESSED A CARRIAGE RETURN AND LINE FEED 
*   WILL BE SIMULATED AND THE CONTENTS OF LOCATION 102B WILL BE 
*   RESET TO THE ENTRY POINT ADDRESS OF THE TTY DRIVER. 
* 
*        IF THE CHARACTER COUNT FOR A GIVEN BUFFER IS EXPRESSED 
*   AS A NEGATIVE NUMBER THEN WHEN THE LAST CHARACTER IN THIS 
*   BUFFER HAS BEEN PROCESSED THE PEN WILL REMAIN RAISED AT THE 
*   STARTING POINT FOR THE NEXT CHARACTER IN THAT LINE AND THE
*   CONTENTS OF LOCATION 102B WILL REMAIN UNCHANGED SO THAT THE 
*   CONTENTS OF THE NEXT BUFFER WILL BE LETTERED STARTING AT
*   THIS POINT. 
* 
* 
*     INSTRUCTIONS FOR USING THIS DRIVER IN HP BASIC ARE GIVEN IN 
* THE OPERATING AND SERVICE MANUAL FOR THE HP 17210 INTERFACE KIT,
* PART NO. 17210-90000. 
* 
* 
*     TO OBTAIN THE ABSOLUTE BINARY TAPE REQUIRED TO CONFIGURE AN 
* OTHERWISE UNMODIFIED BASIC SYSTEM CHANGE LINE 108 OF THIS TAPE
* (SOURCE TAPE 1) TO GIVE THE VALUE OF THE PLOTTER SELECT CODE
* WHICH WILL BE USED AND THEN ASSEMBLING THIS MODIFIED CODE AND 
* SOURCE TAPE 2 TOGETHER AS ONE PROGRAM.
* 
* 
* 
***** LINKAGES AND MEMORY ALLOCATION *****
* 
* 
* 
* FIRST WORD OF AVAILABLE MEMORY (FWA)
* 
  00110               ORG 110B           LOCATION FOR VALUE OF FWA
  00110 014665        DEF PEND2          SET NEW VALUE OF FWA 
* 
* LINKAGE TABLE (LT) ADDRESSES
* 
  00121               ORG 121B           LOCATION FOR LT ADDRESS
  00121 013142        DEF EPTAB          STARTING ADDRESS OF LT 
  00122 013146        DEF TEND2          LAST ADDRESS OF LT +1
* 
* 
***** START OF SUBROUTINE AREA USED FOR DRIVER *****
* 
* 
  13142               ORG 13142B         =1ST WORD OF AVAILABLE AREA
* 
* LINKAGE TABLE 
* 
  13142 002001  EPTAB OCT 002001         4 ARGUMENTS FOR CALL(1,--- 
  13143 013146        DEF EPT01          ENTRY POINT FOR CALL(1,--- 
  13144 002002        OCT 002002         4 ARGUMENTS FOR CALL(2,--- 
  13145 013351        DEF EPT02          ENTRY POINT FOR CALL(2,--- 
  13146         TEND2 EQU *              DEFINES LAST WORD OF LT+1
* 
* 
* EXTERNAL ADDRESSES
* 
* 
  00241         .FDVA EQU 241B           ADD. FOR FLOATING DIVIDE 
  00243         MPYA  EQU 243B           ADD. FOR FLOATING MULTIPLY 
  00244         FLUNA EQU 244B           ADDRESS FOR FLOATING UNPACK
* 
* 
* 
***** PLOTTER SELECT CODE - ENTER CORRECT VALUE BEFORE ASSEMBLING 
* 
* 
* 
  00050         PLTSC EQU 50B            VALUE OF PLOTTER S.C.
* 
* 
* 
***** POSITION CALL PROCESSING *****
* 
* 
* 
  13146 000000  EPT01 NOP                POSITION CALL ENTRY POINT
  13147 073336        STA ARGAD          INITIALIZE ARGUMENT ADDRESS
  13150 017173        JSB ARGET          GET 1ST ARGUMENT 
  13151 001210        RAL,SLA            ROTATE AND TEST FOR NOT UP 
  13152 027155        JMP *+3            ELSE A=(PCTST) FOR PEN UP
  13153 003021        CMA,SSA,RSS        COMPLIMENT AND TEST FOR PNT
  13154 002400        CLA                CLEAR FOR DOWN IF NOT POINT
  13155 073335        STA PCTST          SET PEN CONTROL FLAG = A 
  13156 017173        JSB ARGET          GET 2ND ARGUMENT 
  13157 006400        CLB                SET B FOR ABSOLUTE 
  13160 077757        STB XRETN          CLEAR X RETURN DISTANCE
  13161 077760        STB YRETN          CLEAR Y RETURN DISTANCE
  13162 002020        SSA                TEST FOR ABSOLUTE MODE 
  13163 067330        LDB MASK4          SET B FOR RELATIVE IF A<0
  13164 077327        STB MASK3          SET MODE CONTROL = B 
  13165 017204        JSB COGET          GET 3RD ARG AND CONVERT
  13166 073337        STA XWORD          SET VALUE OF X COMPONENT 
  13167 017204        JSB COGET          GET 4TH ARG AND CONVERT
  13170 073340        STA YWORD          SET VALUE OF Y COMPONENT 
  13171 017250        JSB PTOUT          TRANSMIT MOVE TO PLOTTER 
  13172 127146        JMP EPT01,I        RETURN TO CALLING PROGRAM
* 
* 
***** ARGUMENT REFFERENCE SUBROUTINE *****
* 
*     ASSUMES (ARGAD)=HEAD OF ARGUMENT LIST ON 1ST ENTRY
*     RETURNS FLOATING POINT ARGUMENT VALUE IN A AND B
* 
* 
  13173 000000  ARGET NOP                ENTRY POINT
  13174 167336        LDB ARGAD,I        B=ADDRESS OF CURRENT ARG 
  13175 003400        CCA                A=-1 
  13176 043336        ADA ARGAD          A=NEXT ARG LIST ADDRESS
  13177 073336        STA ARGAD          SET NEW ARG LIST ADDRESS 
  13200 160001        LDA 1B,I           A=1ST WORD OF ARGUMENT 
  13201 006004        INB                B=ADDRESS OF 2ND ARG WORD
  13202 164001        LDB 1B,I           B=2ND WORD OF ARGUMENT 
  13203 127173        JMP ARGET,I        RETURN TO CALL 
* 
* 
****** COMPONENT REFFERENCE AND CONVERSION SUBROUTINE ***** 
* 
*     ASSUMES SUBROUTINE ARGET HAS BEEN INITIALIZED AND PROPER
*     NUMBER OF ARGUMENTS HAVE BEEN REFFERENCED PREVIOUSLY. 
* 
*     THIS SUBROUTINE REFFERENCES AN APPROPRIATE FLOATING POINT 
*     ARGUMENT, CONVERTS IT TO FIXED POINT, TESTS IT FOR VALIDITY 
*     AND GENERATES ANY ERROR MESSAGES REQUIRED.
* 
*     THE COMPONENT PRODUCED IS RETURNED IN THE A REGISTER AS A 
*     2'S COMPLEMENT FIXED POINT NUMBER OF THE FORM 
* 
*                 XXXXXXXXXXXXXXX.X 
* 
* 
  13204 000000  COGET NOP                ENTRY POINT
  13205 017173        JSB ARGET          GET NEXT ARGUMENT
  13206 073173        STA ARGET          SAVE HIGH ORDER FRACTION 
  13207 002020        SSA                TEST SIGN OF ARGUMENT
  13210 002401        CLA,RSS            A=ABSOLUTE IF ARG<0
  13211 002404        CLA,INA            A#MODE CONTROL IF ARG>=0 
  13212 053327        CPA MASK3          TEST FOR ARG<0 AND ABSOLUTE
  13213 027236        JMP PLPER          ERROR IF ARG<0 AND ABSOLUTE
  13214 114244        JSB FLUNA,I        GET EXP FROM WORD 2 OF ARG 
  13215 002004        INA                MULTIPLY BY 2 TO GET 0.X 
  13216 002020        SSA                TEST FOR ARG >=0.1B
  13217 027243        JMP LTONE          ELSE PROCESS FRACTIONAL ARG
  13220 043333        ADA M0016          ADJUST EXP FOR RT JUSTFY 
  13221 002021        SSA,RSS            TEST FOR VALID RT JUSTFY 
  13222 027236        JMP PLPER          ERROR IF INVALID RT JSTFY
  13223 067173        LDB ARGET          A=HIGH ORDER FRACTION
  13224 002001        RSS                SKIP 1ST SHIFT 
  13225 005100        BRS                RIGHT SHIFT TO JUSTIFY 
  13226 002006        INA,SZA            INCREMENT SHFT CNT AND TEST
  13227 027225        JMP *-2            SHIFT AGAIN IF CNT<0 
  13230 060001        LDA 1B             A=B=JUSTIFIED ARGUMENT 
  13231 006020        SSB                TEST SIGN OF ARGUMENT
  13232 007004        CMB,INB            NEGATE IF ARG<0
  13233 047334        ADB PLPTC          B_B-MAX COMP-0.1B
  13234 006020        SSB                TEST FOR MAGNITUDE TO BIG
  13235 127204        JMP COGET,I        RETURN TO CALL - NOT TO BIG
  13236 063341  PLPER LDA PLPEL          A=ERROR MESSAGE LENGTH 
  13237 067342        LDB PLPEA          B=ERROR MESSAGE ADDRESS
  13240 114102        JSB 102B,I         TRANSMIT ERROR MESSAGE 
  13241 063334        LDA PLPTC          GET STANDARD BAD ARGUMENT
  13242 127204        JMP COGET,I        RETURN TO CALL - BAD ARG 
  13243 063173  LTONE LDA ARGET          A=HIGH ORDER FRACTION
  13244 002020        SSA                TEST SIGN OF ARGUMENT
  13245 003401        CCA,RSS            SET A=-0.1B IF ARG<0 
  13246 002400        CLA                ELSE SET A=0.0B
  13247 127204        JMP COGET,I        RETURN TO CALL - NOT TO BIG
* 
* 
***** MOVE TRANSMISSION SUBROUTINE *****
* 
*     ON ENTRY THE FOLLOWING CONDITIONS MUST BE SATISFIED 
* 
*     (XWORD)=X COMPONENT IN FORM XXXXXXXXXXXXXXX.X 
*     (YWORD)=Y COMPONENT IN FORM YYYYYYYYYYYYYYY.Y 
*     (PCTST)=0##############0 FOR PEN DOWN 
*            =0##############1 FOR PEN UP 
*            =1##############1 FOR POINTS 
*     (MASK3)=MODE CONTROL BITS 
* 
*     THE NECESSARY PASSES TO CONTROL AND MOVE THE PEN ARE SENT 
*     NO VALUES ARE RETURNED ON COMPLETION
* 
* 
  13250 000000  PTOUT NOP                ENTRY POINT
  13251 102350        SFS PLTSC          TEST FOR PLOTTER READY 
  13252 027251        JMP *-1            ELSE TRY AGAIN 
  13253 102550        LIA PLTSC          SET A=PLOTTER STATUS 
  13254 023335        XOR PCTST          A=0 IF PEN SPEC=PEN STATUS 
  13255 067335        LDB PCTST          SET B=PEN CONTROL SPEC 
  13256 000010        SLA                TEST FOR PEN CHANGE NEEDED 
  13257 027264        JMP PASS1          ELSE TRANSMITT POSITION
  13260 063331        LDA PDWRD          SET A=PEN DOWN PASS
  13261 004010        SLB                TEST FOR PEN DOWN SPEC 
  13262 063332        LDA PUWRD          ELSE SET A=PEN UP PASS 
  13263 017317        JSB PASOT          SEND PEN CHANGE PASS 
  13264 063337  PASS1 LDA XWORD          SET A=X COMPONENT
  13265 001100        ARS                REMOVE .X BIT
  13266 001727        ALF,ALF            POSITION HIGH ORDER BITS 
  13267 013325        AND MASK1          EXTRACT HIGH ORDER BITS
  13270 033326        IOR MASK2          INSERT PASS 1 CONTROL BITS 
  13271 017317        JSB PASOT          SEND 1ST PASS
  13272 063337        LDA XWORD          SET A=X COMPONENT
  13273 001100        ARS                REMOVE .X BIT
  13274 013325        AND MASK1          EXTRACT LOW ORDER BITS 
  13275 017317        JSB PASOT          SEND 2ND PASS
  13276 063340        LDA YWORD          SET A=Y COMPONENT
  13277 001100        ARS                REMOVE .Y BIT
  13300 001727        ALF,ALF            POSITION HIGH ORDER BITS 
  13301 013325        AND MASK1          EXTRACT HIGH ORDER BITS
  13302 017317        JSB PASOT          SEND 3RD PASS
  13303 063340        LDA YWORD          SET A=Y COMPONENT
  13304 001100        ARS                REMOVE .Y BIT
  13305 013325        AND MASK1          EXTRACT LOW ORDER BITS 
  13306 033327        IOR MASK3          INSERT PASS 4 CONTROL BITS 
  13307 017317        JSB PASOT          SEND 4TH PASS
  13310 006021        SSB,RSS            TEST PEN SPEC FOR POINTS 
  13311 127250        JMP PTOUT,I        ELSE RETURN TO CALL
  13312 063331        LDA PDWRD          A=PEN DOWN PASS
  13313 017317        JSB PASOT          SEND PEN DOWN PASS 
  13314 063332        LDA PUWRD          A=PEN UP PASS
  13315 017317        JSB PASOT          SEND PEN UP PASS 
  13316 127250        JMP PTOUT,I        RETURN TO CALL 
* 
* 
***** PASS TRANSMISSION SUBROUTINE *****
* 
*     ON ENTRY A REGISTER CONTAINS PASS 
*     TO BE TRANSMITTED 
* 
* 
  13317 000000  PASOT NOP                ENTRY POINT
  13320 102350        SFS PLTSC          TEST FOR PLOTTER READY 
  13321 027320        JMP *-1            ELSE TRY AGAIN 
  13322 102650        OTA PLTSC          SET PASS IN OUTPUT REGISTER
  13323 103750        STC PLTSC,C        TRANSMIT OUTPUT REGISTER 
  13324 127317        JMP PASOT,I        RETURN TO CALL 
* 
* 
* CONSTANT AND VARIABLE STORAGE 
* 
* 
  13325 000377  MASK1 OCT 000377         EXTRACTS LOW ORDER 8 BITS
  13326 102000  MASK2 OCT 102000         1ST PASS CONTROL BITS
  13327 000000  MASK3 OCT 000000         4TH PASS CONTROL BITS,ABS M
  13330 004000  MASK4 OCT 004000         4TH PASS CONTROL BITS,REL M
  13331 101400  PDWRD OCT 101400         PEN DOWN PASS
  13332 101000  PUWRD OCT 101000         PEN UP PASS
  13333 177760  M0016 DEC -16            CONSTANT FOR ARG. CONV.
  13334 130741  PLPTC DEC -19999         CONSTANT FOR VALIDITY TEST 
  13335 000000  PCTST OCT 0              PEN CONTROL WORD 
  13336 000000  ARGAD OCT 0              ARG. LIST ENTRY ADD. 
  13337 000000  XWORD OCT 0              X COMPONENT BUFFER 
  13340 000000  YWORD OCT 0              Y COMPONENT BUFFER 
  13341 000014  PLPEL DEC 12             ERROR MESSAGE CH. COUNT
  13342 013343  PLPEA DEF *+1            ERROR MESSAGE ADDRESS
  13343 041101        ASC 6,BAD CMP XMTD
  13344 042040  
  13345 041515  
  13346 050040  
  13347 054115  
  13350 052104  
* 
* 
* 
***** LETTERING CALL PROCESSING ***** 
* 
* 
* 
  13351 000000  EPT02 NOP                LETTERING CALL ENTRY POINT 
  13352 073336        STA ARGAD          INITIALIZE ARGUMENT ADDRESS
  13353 063776        LDA MXMAX          A=X NORMALIZING FACTOR 
  13354 067774        LDB XCNST          B=X BIT COUNT
  13355 017404        JSB SCSET          SET UP X NORMALIZING VALUE 
  13356 017414        JSB DIVDR          GET AND NORMALIZE 1ST ARG. 
  13357 073762        STA COEF1+1        SET 1ST COEF. EXPONENT 
  13360 077761        STB COEF1          SET 1ST COEF. FACTOR 
  13361 017414        JSB DIVDR          GET AND NORMALIZE 2ND ARG. 
  13362 073766        STA COEF3+1        SET 3RD COEF. EXPONENT 
  13363 077765        STB COEF3          SET 3RD COEF. FACTOR 
  13364 063777        LDA MYMAX          A=Y NORMALIZING FACTOR 
  13365 067775        LDB YCNST          B=Y BIT COUNT
  13366 017404        JSB SCSET          SET UP Y NORMALIZING VALUE 
  13367 017414        JSB DIVDR          GET AND NORMALIZE 3RD ARG. 
  13370 073764        STA COEF2+1        SET 2ND COEF. EXPONENT 
  13371 077763        STB COEF2          SET 2ND COEF FACTOR
  13372 017414        JSB DIVDR          GET AND NORMALIZE 4TH ARG. 
  13373 073770        STA COEF4+1        SET 4TH COEF. EXPONENT 
  13374 077767        STB COEF4          SET 4TH COEF. FACTOR 
* 
* 
***** INITIALIZE TRANSFER TO CHARACTER BUFFER PROCESSING *****
* 
* 
  13375 060102        LDA 102B           A=CURRENT PRINT DEVICE T.A.
  13376 053772        CPA LTLAD          TEST FOR T.A. NOT SET
  13377 027401        JMP *+2            ELSE USE OLD T.A. FOR RESET
  13400 073771        STA TTYAD          USE CURRENT T.A. FOR RESET 
  13401 063772        LDA LTLAD          A=CH BUFFER PROCESSING T.A.
  13402 070102        STA 102B           SET NEW PRINT DEVICE T.A.
  13403 127351        JMP EPT02,I        RETURN TO CALL - FINISHED
* 
* 
***** NORMALIZING VALUE SET UP SUBROUTINE ***** 
* 
*     ON ENTRY
*     A=NORMALIZING FACTOR PROVIDED BY CHARACTER SET TAPE 
*     B=CORRESPONDING BIT COUNT PROVIDED BY CHARACTER SET TAPE
* 
*     AFTER EXECUTION 
*     (XWORD) AND (YWORD) =F.P. NORMALIZING VALUE 
*     (PCTST)=NEGATED AND DECREMENTED BIT COUNT 
* 
* 
  13404 000000  SCSET NOP                ENTRY POINT
  13405 003004        CMA,INA            NEGATE NORMALIZING FACTOR
  13406 073337        STA XWORD          SET F.P. FRACTION FOR VALUE
  13407 007000        CMB                NEGATE AND DECREMENT 
  13410 077335        STB PCTST          SAVE ADJUSTED BIT COUNT
  13411 005000        BLS                INSERT F.P. EXPONENT SIGN
  13412 077340        STB YWORD          SET F.P. EXPONENT FOR VALUE
  13413 127404        JMP SCSET,I        RETURN TO CALL 
* 
* 
***** LETTERING CALL ARGUMENT REFFERENCE AND *****
***** NORMALIZATION SUBROUTINE               *****
* 
*     ON ENTRY IT IS ASSUMED THAT 
*     THE SUBROUTINE ARGET HAS BEEN INITIALIZED 
*     THE SUBROUTINE SCSET HAS BEEN USED TO SET REQUIRED VALUES 
* 
*     AFTER EXECUTION 
*     A=EXPONENT AND SIGN (BIT 0) FOR GEOMETRIC COEFFICIENT 
*     B=(COEF4)=MAGNITUDE OF FACTOR FOR GEOMETRIC COEFFICIENT 
* 
* 
  13414 000000  DIVDR NOP                ENTRY POINT
  13415 017173        JSB ARGET          GET NEXT ARGUMENT
  13416 002003        SZA,RSS            TEST FOR NON-ZERO ARG. 
  13417 127414        JMP DIVDR,I        ELSE RETURN - COMPLETED
  13420 114241        JSB .FDVA,I        NORMALIZE TO F.P. QUOTIENT 
  13421 013337        DEF XWORD          DIVIDING BY F.P. NORM.VALUE
  13422 073173        STA ARGET          SAVE RAW F.P. FRACTION 
  13423 114244        JSB FLUNA,I        UNPACK F.P. EXPONENT 
  13424 043335        ADA PCTST          BIAS BY DECREMENTED BIT CNT
  13425 043741        ADA BITNO          BIAS BY PROCESS CONSTANT 
  13426 073770        STA COEF4+1        SAVE RAW COEF. EXPONENT
  13427 063173        LDA ARGET          RESTORE RAW F.P. FRACTION
  13430 002021        SSA,RSS            TEST FOR COEF. >= 0
  13431 027437        JMP *+6            ELSE SHIFT ALL BITS LEFT 1 
  13432 007104        CMB,CLE,INB        NEGATE LOW BITS,CARY TO E
  13433 003040        CMA,SEZ            NEGATE HIGH BITS,NO CARY ? 
  13434 002004        INA                ELSE CARY TO HIGH BITS 
  13435 002320        CCE,SSA            SET E=1,TEST FOR LEFT SHIFT
  13436 027441        JMP *+3            ELSE SAVE COEF. FRACTION 
  13437 005600        ELB                BIT FROM B TO E
  13440 001640        ELA,CLE            BIT FROM E TO A,SET E=0
  13441 073767        STA COEF4          SAVE COEF. MAGNITUDE 
  13442 063770        LDA COEF4+1        GET RAW EXPONENT 
  13443 067173        LDB ARGET          GET RAW FRACTION 
  13444 005610        ELB,SLB            SIGN TO E,E TO LB,TEST LB=0
  13445 002004        INA                ELSE INCREMENT EXP. FOR SHFT 
  13446 002021        SSA,RSS            TEST FOR VALID EXPONENT
  13447 003400        CCA                ELSE SET EXP=-1IF OVERFLOW 
  13450 001600        ELA                INSERT SIGN OF FRACTION
  13451 067767        LDB COEF4          RESTORE MAGNITUDE OF COEF. 
  13452 127414        JMP DIVDR,I        RETURN TO CALL 
* 
* 
***** CHARACTER CODE BUFFER PROCESSING *****
* 
* INITIALIZATION AND PRINT DEVICE ENTRY POINT ADDRESS PROCESSING
* 
* 
  13453 000000  LTLNE NOP                ENTRY POINT
  13454 077747        STB BUFAD          SAVE BUFFER ADDRESS
  13455 067771        LDB TTYAD          B=ORIGINAL ADDRESS 
  13456 002020        SSA                TEST FOR RESET ADDRESS 
  13457 003005        CMA,INA,RSS        ELSE NEGATE CHARACTER COUNT
  13460 074102        STB 102B           RESET ENTRY POINT ADDRESS
  13461 073750        STA BUFLN          SAVE ADJUSTED CHARACTER CNT
  13462 002400        CLA                SET A=0
  13463 073746        STA MANDT          CLEAR CHAR. COUNTER
  13464 063330        LDA MASK4          SET A= RELATIVE CONTROL BITS 
  13465 073327        STA MASK3          SET MODE TO RELATIVE 
* 
* 
* CONTROL, CHARACTER IDENTIFICATION AND EXIT PROCESSING 
* 
* 
  13466 067746  CHCNT LDB MANDT          B=CHARACTER COUNT
  13467 057750        CPB BUFLN          TEST FOR MORE CHARACTERS 
  13470 027523        JMP EOCHX          ELSE EXIT PROCESSING 
  13471 037746        ISZ MANDT          INCREMENT CHARACTER COUNT
  13472 163747        LDA BUFAD,I        A=CURRENT BUFFER WORD
  13473 006011        SLB,RSS            TEST FOR 2ND CHAR
  13474 001727        ALF,ALF            ELSE POSITION 1ST CHAR 
  13475 013736        AND CMSK1          EXTRACT 7 BIT CHARACTER
  13476 004010        SLB                TEST FOR 1ST CHAR
  13477 037747        ISZ BUFAD          ELSE REFFERENCE NEXT WORD
  13500 073173        STA ARGET          SAVE CHARACTER CODE
  13501 013740        AND CMSK3          EXTRACT BITS 6 AND7
  13502 002002        SZA                TEST FOR BOTH=0
  13503 023740        XOR CMSK3          SET A=0 IF BOTH=1
  13504 002003        SZA,RSS            TEST FOR PRINTING CHAR 
  13505 027514        JMP *+7            ELSE TEST FOR SPECIAL CHARS
  13506 063173        LDA ARGET          RESTORE CHARACTER CODE 
  13507 013737        AND CMSK2          ISOLATE 6 BIT CHARACTER
  13510 043742        ADA CHTAD          SET UP ABSOLUTE CH.TAB.ADD.
  13511 017531        JSB CHGET          PROCESS CHAR. REFFERENCED
  13512 017656        JSB RTSET          UPDATE CARRIAGE RETURN 
  13513 027466        JMP CHCNT          PROCESS NEXT BUFFER ENTRY
  13514 063734        LDA CRCHC          A=CARRIAGE RETURN CHAR.CODE
  13515 053173        CPA ARGET          TEST FOR NOT CARRIAGE RTN
  13516 017640        JSB CRGET          ELSE SIMULATE CARRIAGE RTN 
  13517 063735        LDA LFCHC          A=LINE FEED CHAR. CODE 
  13520 053173        CPA ARGET          TEST FOR NOT LINE FEED 
  13521 017652        JSB LFGET          ELSE SIMULATE LINE FEED
  13522 027466        JMP CHCNT          PROCESS NEXT BUFFER ENTRY
  13523 063772  EOCHX LDA LTLAD          A=CH. BUFFER ENTRY ADD 
  13524 050102        CPA 102B           TEST FOR LINE FINISHED 
  13525 127453        JMP LTLNE,I        ELSE RETURN - MORE COMMING 
  13526 017640        JSB CRGET          SIMULATE CARRIAGE RETURN 
  13527 017652        JSB LFGET          SIMULATE LINE FEED 
  13530 127453        JMP LTLNE,I        RETURN TO CALL - FINISHED
* 
* 
***** CHARACTER TABLE ENTRY PROCESSING SUBROUTINE ***** 
* 
*     ON ENTRY
*     A=ADDRESS OF CHARACTER TABLE ENTRY TO BE PROCESSED
*     (COEF1) THROUGH (COEF4+1) GIVE CORRECT GEOMETRIC COEFFICIENTS 
* 
*     AFTER EXECUTION 
*     THE CHARACTER CORRESPONDING TO (A) HAS BEEN LETTERED
*     THE PEN IS CORRECTLY POSITIONED TO START THE NEXT CHARACTER 
*     THE CARRIAGE RETURN HAS BEEN UPDATED FOR ALL BUT THE LAST 
*     MOVE OF THE CHARACTER JUST LETTERED - THIS MOVE IS STILL  
*     AVAILABLE FOR PROCESSING BY THE SUBROUTINE RTSET
* 
* 
* 
  13531 000000  CHGET NOP                RETURN ADDRESS 
  13532 160000        LDA 0B,I           GET CH. TABLE ENTRY FOR CH.
  13533 073755        STA BMASK          SAVE COMPLETE ENTRY
  13534 013736        AND CMSK1          A=RELATIVE BLOCK ADDRESS 
  13535 073751        STA CHMCT          SAVE RELATIVE BLOCK ADDRESS
  13536 114243        JSB MPYA,I         RELATIVE WORD ADD.=PRODUCT 
  13537 013773        DEF BLKLN          WITH BLOCK LENGTH IN WORDS 
  13540 043743        ADA MVTAD          A=ABSOLUTE MOVE ADDRESS
  13541 073752        STA CHMAD          SET CURRENT MOVE LOCATION
  13542 063755        LDA BMASK          GET COMPLETE ENTRY 
  13543 023751        XOR CHMCT          EXTRACT COUNT AND MASK DATA
  13544 001722        ALF,RAL            POSITION COUNT DATA
  13545 070001        STA 1B             SAVE COUNT AND MASK DATA 
  13546 013736        AND CMSK1          ISOLATE COUNT DATA 
  13547 073755        STA BMASK          SAVE COUNT DATA
  13550 003004        CMA,INA            NEGATE 
  13551 073751        STA CHMCT          SET CHAR. MOVE COUNTER 
  13552 060001        LDA 1B             GET COUNT AND MASK DATA
  13553 023755        XOR BMASK          ISOLATE MASK DATA
  13554 001700        ALF                POSITION MASK DATA 
  13555 003000        CMA                NEGATE AND DECREMENT 1 
  13556 006404        CLB,INB            SET BIT POSITION 15
  13557 005300        RBR                MOVE BIT TO NEXT POSITION
  13560 002006        INA,SZA            INCREMENT COUNTER AND TEST 
  13561 027557        JMP *-2            INCOMPLETE -ROTATE AGAIN 
  13562 077755        STB BMASK          SET BMASK FOR THIS CHAR. 
* 
* 
* GET CURRENT MOVE AND SCALE FOR TRANSMISSION 
* 
* 
  13563 063752  MVGET LDA CHMAD          A=CURRENT MOVE LOCATION
  13564 073753        STA CHMPT          RESET CH. MOVE WORD POINTER
  13565 063744        LDA COEAD          GET COEFFICIENT ADDRESS
  13566 073754        STA COEPT          SET COEFFICIENT POINTER
  13567 063774        LDA XCNST          GET X COMPONENT BIT COUNT
  13570 017670        JSB SCALE          PERFORM AXX*X
  13571 063337        LDA XWORD          GET PREVIOUS X COMPONENT 
  13572 000010        SLA                TEST OLD MOVE FOR 0.XB=0.0B
  13573 006004        INB                ELSE BRING 0.1B FOREWARD 
  13574 077337        STB XWORD          SAVE AXX*X 
  13575 063775        LDA YCNST          GET Y COMPONENT BIT COUNT
  13576 017670        JSB SCALE          PERFORM AYX*Y
  13577 047337        ADB XWORD          FORM AXX*X+AYX*Y 
  13600 077337        STB XWORD          SET X=AXX*X+AYX*Y
  13601 063752        LDA CHMAD          GET CHAR. MOVE WORD ADDRESS
  13602 073753        STA CHMPT          RESET CH. MOVE POINTER 
  13603 063774        LDA XCNST          GET X COMPONENT BIT COUNT
  13604 017670        JSB SCALE          PERFORM AXY*X
  13605 063340        LDA YWORD          GET PREVIOUS Y COMPONENT 
  13606 000010        SLA                TEST OLD MOVE FOR 0.YB=0.0B
  13607 006004        INB                ELSE BRING 0.1B FOREWARD 
  13610 077340        STB YWORD          SAVE AXY*X 
  13611 063775        LDA YCNST          GET Y COMPONENT BIT COUNT
  13612 017670        JSB SCALE          PERFORM AYY*Y
  13613 047340        ADB YWORD          FORM AXY*X+AYY*Y 
  13614 077340        STB YWORD          SET Y=AXY*X+AYY*Y
* 
* 
* PROCESS PEN CONTROL BIT FOR CURRENT MOVE
* 
* 
  13615 006400  PCBIT CLB                SET B=PEN DOWN 
  13616 163753        LDA CHMPT,I        GET PEN CONTROL WORD 
  13617 013755        AND BMASK          ISOLATE PEN CONTROL BIT
  13620 002002        SZA                TEST FOR PEN UP
  13621 006004        INB                CHANGE TO PEN UP 
  13622 077335        STB PCTST          SET PEN CONTROL FLAG 
  13623 017250        JSB PTOUT          SEND MOVE
  13624 037751        ISZ CHMCT          INCREMENT  MOVE COUNTER
  13625 027627        JMP NMOVE          SET  UP FOR NEXT MOVE
  13626 127531        JMP CHGET,I        RETURN, CHARACTER FINISHED 
* 
* 
* SET UP TO PROCESS NEXT MOVE 
* 
* 
  13627 017656  NMOVE JSB RTSET          UPDATE CARRIAGE RETURN 
  13630 063755        LDA BMASK          A=CURRENT BIT MASK 
  13631 067752        LDB CHMAD          B=CURRENT ABS. WORD ADDRESS
  13632 001300        RAR                A=BIT MASK FOR NEXT MOVE 
  13633 073755        STA BMASK          SAVE NEW BIT MASK
  13634 002020        SSA                USE OLD ADD. IF BIT15#1
  13635 047773        ADB BLKLN          B=NEW ADDRESS IF BIT15=1 
  13636 077752        STB CHMAD          SAVE NEW ABS. WORD ADDRESS 
  13637 027563        JMP MVGET          PROCESS NEXT MOVE
* 
* 
***** CARRIAGE RETURN SIMULATION SUBROUTINE ***** 
* 
* 
  13640 000000  CRGET NOP                ENTRY POINT
  13641 063757        LDA XRETN          GET X RETURN DISTANCE
  13642 003004        CMA,INA            NEGATE 
  13643 073337        STA XWORD          SET X RETURN COMPONENT 
  13644 063760        LDA YRETN          GET Y RETURN DISTANCE
  13645 003004        CMA,INA            NEGATE 
  13646 073340        STA YWORD          SET Y RETURN COMPONENT 
  13647 017250        JSB PTOUT          SEND MOVE
  13650 017656        JSB RTSET          CLEAR CARRIAGE RETRUN
  13651 127640        JMP CRGET,I        RETURN TO CALL 
* 
* 
***** LINE FEED SIMULATION SUBROUTINE ***** 
* 
*     NOTE: 
*     FOR PROPER OPERATION CARRIAGE RETRUN SHOULD NOT BE
*     UPDATED AFTER EXECUTING THIS SUBROUTINE 
* 
* 
  13652 000000  LFGET NOP                ENTRY POINT
  13653 063745        LDA LFCAD          A=L.F. CH. TABLE ADDRESS 
  13654 017531        JSB CHGET          GENERATE THE L.F. CHARACTER
  13655 127652        JMP LFGET,I        RETURN TO CALL 
* 
* 
***** CARRIAGE RETURN UPDATING SUBROUTINE ***** 
* 
*     ON ENTRY
*     (XWORD)=X COMPONENT JUST TRANSMITTED
*     (YWORD)=Y COMPONENT JUST TRANSMITTED
* 
*     AFTER EXECUTION 
*     COMPONENTS JUST TRANSMITTED HAVE BEEN ACCUMULATED IN
*     LOCATIONS XRETN AND YRETN 
* 
* 
  13656 000000  RTSET NOP                ENTRY POINT
  13657 063337        LDA XWORD          A=CURRENT X COMPONENT
  13660 001566        ERA,CLE,ELA        SET 0.XB = 0.0B
  13661 043757        ADA XRETN          A=NEW X RETURN DISTANCE
  13662 073757        STA XRETN          SAVE NEW X RETURN DISTANCE 
  13663 063340        LDA YWORD          A=CURRENT Y COMPONENT
  13664 001566        ERA,CLE,ELA        SET 0.YB = 0.0B
  13665 043760        ADA YRETN          A=NEW Y RETURN DISTANCE
  13666 073760        STA YRETN          SAVE NEW Y RETURN DISTANCE 
  13667 127656        JMP RTSET,I        RETURN TO CALL 
* 
* 
***** CHARACTER MOVE SCALING SUBROUTINE ***** 
* 
* 
* 
*     THIS SUBROUTINE PERFORMS THE MULTIPLICATION REQUIRED TO SCALE 
* THE CHARACTER MOVE COMPONENTS BEFORE THEY ARE TRANSMITTED.
* THE X AND Y COMPONENTS OF A GIVEN MOVE ARE PROCESSED AS AN ORDERED
* PAIR WITH THE X COMPONENT BEING PROCESSED ON THE 1ST ENTRY. 
* BEFORE ENTERING THIS SUBROUTINE THE FOLLOWING CONDITIONS MUST 
* BE SATISFIED. 
* 
*     A=NEGATED BIT COUNT FOR COMPONENT TO BE SCALED
*     (CHMPT)=ADDRESS OF 1ST WORD OF CHAR. IN CHAR. MOVE TABLE
*     (BMASK)=BIT ON IN POSITION CORRESPONDING TO REQUIRED MOVE 
*     (COEPT)=ADDRESS OF WORD PRECEDING 1ST WORD OF DESIRED COEF. 
* 
*     THE SCALED COMPONENT PRODUCED IS RETURNED IN THE B REGISTER 
* 
* 
  13670 000000  SCALE NOP                ENTRY POINT
  13671 073756        STA BCNTR          INITIALIZE BIT COUNTER 
  13672 006400        CLB                SET B=0
  13673 077173        STB ARGET          CLEAR PRODUCT ACCUMULATOR
  13674 037754        ISZ COEPT          INCREMENT CEOFICIENT PNTR
  13675 167754        LDB COEPT,I        B=UNSIGNED COEF. FACTOR
  13676 037754        ISZ COEPT          ADDRESS COEF. EXP AND SIGN 
  13677 163753  NEXTB LDA CHMPT,I        GET MOVE WORD
  13700 013755        AND BMASK          ISOLATE MOVE BIT 
  13701 037753        ISZ CHMPT          INCREMENT WORD POINTER 
  13702 037756        ISZ BCNTR          INCREMENT BIT COUNTER
  13703 027726        JMP ADDER          ADD IF BIT COUNT#0 
  13704 006003        SZB,RSS            ELSE TEST FOR COEF.#0
  13705 127670        JMP SCALE,I        ELSE RETURN - PRODUCT = 0
  13706 007400        CCB                SET B=-1 IF COMPONENT IS + 
  13707 002002        SZA                TEST FOR COMPONENT POSITIVE
  13710 006400        CLB                ELSE SET B=0 FOR COMP -
  13711 163754        LDA COEPT,I        GET COEF. EXP. AND SIGN
  13712 000031        SLA,ARS            TEST FOR COEF>=0,SHFT EXP
  13713 007000        CMB                ELSE CHANGE SIGN OF PRODUCT
  13714 077404        STB SCSET          SAVE SIGN OF PRODUCT 
  13715 067173        LDB ARGET          GET RAW PRODUCT
  13716 002007        INA,SZA,RSS        INC SHFT CNT,TEST-NOT DONE 
  13717 006004        INB                ELSE ROUND UP ON #.#1
  13720 004065        CLE,ERB            RIGHT SHFT 16 BIT MAGNITUDE
  13721 002002        SZA                TEST FOR SHIFTS COMPLETE 
  13722 027716        JMP *-4            ELSE SHIFT AGAIN 
  13723 037404        ISZ SCSET          TEST FOR PRODUCT + 
  13724 007004        CMB,INB            ELSE NEGATE PRODUCT
  13725 127670        JMP SCALE,I        RETURN TO CALL 
  13726 004065  ADDER CLE,ERB            RIGHT SHFT 16 BIT MAGNITUDE
  13727 002002        SZA                TEST FOR PARTIAL PROD. =0
  13730 060001        LDA 1B             ELSE A=SHIFTED MAGNITUDE 
  13731 043173        ADA ARGET          ACCUMULATE PARTIAL PRODUCT 
  13732 073173        STA ARGET          SAVE NEW PARTIAL SUM 
  13733 027677        JMP NEXTB          PROCESS NEXT BIT OF COMP.
* 
* 
* 
***** CHARACTER PROCESSING CONSTANTS AND VARIABLES *****
* 
* 
* 
  13734 000015  CRCHC OCT 000015         CARRIAGE RETURN CHAR. CODE 
  13735 000012  LFCHC OCT 000012         LINE FEED CHARACTER CODE 
  13736 000177  CMSK1 OCT 000177         EXTRACTS 7 BIT CHAR. CODE
  13737 000077  CMSK2 OCT 000077         EXTRACTS 6 BIT CHAR. CODE
  13740 000140  CMSK3 OCT 000140         FOR TESTING BITS 6 AND 7 
  13741 177761  BITNO DEC -15            PROCESS EXPONENT BIAS
  13742 014000  CHTAD DEF CHTAB          ORIGINE OF CHARACTER TABLES
  13743 014101  MVTAD DEF MVTAB          ORIGINE OF MOVE TABLE
  13744 013760  COEAD DEF COEF1-1        COEF TABLE STARTING ADDRESS
  13745 014100  LFCAD DEF MVTAB-1        ADDRESS OF LINE FEED ENTRY 
  13746 000000  MANDT OCT 000000         CHARACTER COUNTER
  13747 000000  BUFAD OCT 000000         CHARACTER BUFFER ADDRESS 
  13750 000000  BUFLN OCT 000000         CHARACTER BUFFER LENGTH
  13751 000000  CHMCT OCT 000000         CHARACTER MOVE CNTR
  13752 000000  CHMAD OCT 000000         CURRENT MOVE LOCATION
  13753 000000  CHMPT OCT 000000         ABSOLUTE MOVE WORD POINTER 
  13754 000000  COEPT OCT 000000         COEF. TABLE POINTER
  13755 000000  BMASK OCT 000000         CURRENT BIT ADDRESS OF MOVE
  13756 000000  BCNTR OCT 000000         UTILITY BIT COUNTER
  13757 000000  XRETN OCT 000000         X RETURN DISTANCE
  13760 000000  YRETN OCT 000000         Y RETURN DISTANCE
  13761 000000  COEF1 OCT 000000         UNSIGNED FACTOR FOR AXX
  13762 000000        OCT 000000         EXPONENT AND SIGN FOR AXX
  13763 000000  COEF2 OCT 000000         UNSIGNED FACTOR FOR AYX
  13764 000000        OCT 000000         EXPONENT AND SIGN FOR AYX
  13765 000000  COEF3 OCT 000000         UNSIGNED FACTOR FOR AXY
  13766 000000        OCT 000000         EXPONENT AND SIGN FOR AXY
  13767 000000  COEF4 OCT 000000         UNSIGNED FACTOR FOR AYY
  13770 000000        OCT 000000         EXPONENT AND SIGN FOR AYY
  13771 000000  TTYAD OCT 000000         OLD PRINT DEVICE ENTRY ADD 
  13772 013453  LTLAD DEF LTLNE          CH.BUF.PROCESSING ENTRY ADD
* 
* 
* 
* 
*     THE CHARACTER TABLES WHICH FOLLOW ARE GIVEN ON SOURCE TAPE 2
* (PART NO. 72003-80002). 
* 
*     THIS CHARACTER TABLE TAPE WAS PUNCHED BY USING A CHARACTER
* TABLE GENERATING PROGRAM. BECAUSE OF THE BIT PACKING USED IN THE
* CHARACTER TABLE SUCH A PROGRAM SHOULD ALWAYS BE USED TO SET UP
* ALTERNATE CHARACTER SETS. 
* 
*     FOR INFORMATION ON ALTERNATE CHARACTER SETS CONTACT YOUR
* NEAREST HEWLETT-PACKARD SALES AND SERVICE OFFICE. 
* 
* 
* 
* 
* 
* 
* 
* 
*                                     
*                                     
*                                     
*                                     
  13773 000014  BLKLN DEC 12          
  13774 177773  XCNST DEC -05         
  13775 177772  YCNST DEC -06         
  13776 104000  MXMAX OCT 104000      
  13777 134000  MYMAX OCT 134000      
  14000 114000  CHTAB OCT 114000      
  14001 024601        OCT 024601      
  14002 062001        OCT 062001      
  14003 045002        OCT 045002      
  14004 037202        OCT 037202      
  14005 035003        OCT 035003      
  14006 026603        OCT 026603      
  14007 050004        OCT 050004      
  14010 032404        OCT 032404      
  14011 034005        OCT 034005      
  14012 041605        OCT 041605      
  14013 033605        OCT 033605      
  14014 021206        OCT 021206      
  14015 036206        OCT 036206      
  14016 024007        OCT 024007      
  14017 051207        OCT 051207      
  14020 037607        OCT 037607      
  14021 065410        OCT 065410      
  14022 044611        OCT 044611      
  14023 067011        OCT 067011      
  14024 026212        OCT 026212      
  14025 037412        OCT 037412      
  14026 025213        OCT 025213      
  14027 042413        OCT 042413      
  14030 020414        OCT 020414      
  14031 031414        OCT 031414      
  14032 027014        OCT 027014      
  14033 024215        OCT 024215      
  14034 015415        OCT 015415      
  14035 026215        OCT 026215      
  14036 033415        OCT 033415      
  14037 005016        OCT 005016      
  14040 005216        OCT 005216      
  14041 051416        OCT 051416      
  14042 004017        OCT 004017      
  14043 044217        OCT 044217      
  14044 076417        OCT 076417      
  14045 062220        OCT 062220      
  14046 065221        OCT 065221      
  14047 034422        OCT 034422      
  14050 026222        OCT 026222      
  14051 027422        OCT 027422      
  14052 044623        OCT 044623      
  14053 027023        OCT 027023      
  14054 030224        OCT 030224      
  14055 015624        OCT 015624      
  14056 026424        OCT 026424      
  14057 017624        OCT 017624      
  14060 060425        OCT 060425      
  14061 033425        OCT 033425      
  14062 055026        OCT 055026      
  14063 053626        OCT 053626      
  14064 032227        OCT 032227      
  14065 053627        OCT 053627      
  14066 062230        OCT 062230      
  14067 025231        OCT 025231      
  14070 106431        OCT 106431      
  14071 062632        OCT 062632      
  14072 055633        OCT 055633      
  14073 060434        OCT 060434      
  14074 023434        OCT 023434      
  14075 024435        OCT 024435      
  14076 021635        OCT 021635      
  14077 072635        OCT 072635      
  14100 006236        OCT 006236      
  14101 100000  MVTAB OCT 100000      
  14102 000010        OCT 000010      
  14103 033335        OCT 033335      
  14104 075425        OCT 075425      
  14105 034034        OCT 034034      
  14106 000000        OCT 000000      
  14107 000042        OCT 000042      
  14110 144202        OCT 144202      
  14111 152465        OCT 152465      
  14112 100165        OCT 100165      
  14113 016207        OCT 016207      
  14114 100000        OCT 100000      
  14115 003200        OCT 003200      
  14116 154401        OCT 154401      
  14117 036133        OCT 036133      
  14120 120421        OCT 120421      
  14121 002023        OCT 002023      
  14122 014000        OCT 014000      
  14123 000000        OCT 000000      
  14124 002444        OCT 002444      
  14125 076572        OCT 076572      
  14126 000000        OCT 000000      
  14127 024400        OCT 024400      
  14130 022400        OCT 022400      
  14131 014004        OCT 014004      
  14132 021050        OCT 021050      
  14133 027562        OCT 027562      
  14134 020010        OCT 020010      
  14135 003400        OCT 003400      
  14136 104000        OCT 104000      
  14137 050201        OCT 050201      
  14140 000201        OCT 000201      
  14141 152733        OCT 152733      
  14142 000000        OCT 000000      
  14143 110710        OCT 110710      
  14144 054010        OCT 054010      
  14145 053716        OCT 053716      
  14146 010041        OCT 010041      
  14147 113115        OCT 113115      
  14150 010041        OCT 010041      
  14151 141204        OCT 141204      
  14152 024020        OCT 024020      
  14153 001205        OCT 001205      
  14154 000000        OCT 000000      
  14155 124221        OCT 124221      
  14156 000000        OCT 000000      
  14157 021205        OCT 021205      
  14160 011245        OCT 011245      
  14161 101110        OCT 101110      
  14162 020001        OCT 020001      
  14163 172210        OCT 172210      
  14164 000201        OCT 000201      
  14165 070200        OCT 070200      
  14166 100042        OCT 100042      
  14167 004024        OCT 004024      
  14170 004500        OCT 004500      
  14171 056542        OCT 056542      
  14172 000024        OCT 000024      
  14173 016122        OCT 016122      
  14174 100125        OCT 100125      
  14175 001000        OCT 001000      
  14176 170106        OCT 170106      
  14177 004250        OCT 004250      
  14200 001002        OCT 001002      
  14201 024010        OCT 024010      
  14202 022023        OCT 022023      
  14203 000000        OCT 000000      
  14204 000000        OCT 000000      
  14205 022643        OCT 022643      
  14206 000000        OCT 000000      
  14207 002202        OCT 002202      
  14210 125412        OCT 125412      
  14211 140400        OCT 140400      
  14212 034230        OCT 034230      
  14213 150401        OCT 150401      
  14214 004275        OCT 004275      
  14215 040000        OCT 040000      
  14216 003102        OCT 003102      
  14217 050030        OCT 050030      
  14220 030030        OCT 030030      
  14221 043132        OCT 043132      
  14222 000030        OCT 000030      
  14223 051022        OCT 051022      
  14224 126201        OCT 126201      
  14225 020002        OCT 020002      
  14226 005042        OCT 005042      
  14227 003564        OCT 003564      
  14230 064002        OCT 064002      
  14231 000160        OCT 000160      
  14232 134001        OCT 134001      
  14233 000210        OCT 000210      
  14234 000210        OCT 000210      
  14235 134735        OCT 134735      
  14236 000000        OCT 000000      
  14237 024034        OCT 024034      
  14240 006002        OCT 006002      
  14241 106000        OCT 106000      
  14242 002421        OCT 002421      
  14243 053672        OCT 053672      
  14244 002000        OCT 002000      
  14245 014070        OCT 014070      
  14246 000000        OCT 000000      
  14247 002104        OCT 002104      
  14250 020105        OCT 020105      
  14251 050356        OCT 050356      
  14252 022000        OCT 022000      
  14253 072016        OCT 072016      
  14254 003001        OCT 003001      
  14255 004140        OCT 004140      
  14256 100022        OCT 100022      
  14257 062727        OCT 062727      
  14260 020020        OCT 020020      
  14261 000500        OCT 000500      
  14262 010000        OCT 010000      
  14263 000320        OCT 000320      
  14264 101000        OCT 101000      
  14265 012415        OCT 012415      
  14266 001320        OCT 001320      
  14267 103624        OCT 103624      
  14270 020130        OCT 020130      
  14271 000010        OCT 000010      
  14272 021324        OCT 021324      
  14273 073410        OCT 073410      
  14274 000324        OCT 000324      
  14275 070020        OCT 070020      
  14276 000247        OCT 000247      
  14277 000000        OCT 000000      
  14300 104000        OCT 104000      
  14301 152446        OCT 152446      
  14302 000000        OCT 000000      
  14303 000605        OCT 000605      
  14304 000326        OCT 000326      
  14305 000000        OCT 000000      
  14306 045300        OCT 045300      
  14307 160026        OCT 160026      
  14310 005631        OCT 005631      
  14311 000000        OCT 000000      
  14312 017360        OCT 017360      
  14313 000006        OCT 000006      
  14314 000006        OCT 000006      
  14315 127366        OCT 127366      
  14316 000006        OCT 000006      
  14317 105122        OCT 105122      
  14320 006140        OCT 006140      
  14321 034027        OCT 034027      
  14322 002700        OCT 002700      
  14323 174027        OCT 174027      
  14324 142700        OCT 142700      
  14325 010102        OCT 010102      
  14326 165012        OCT 165012      
  14327 000740        OCT 000740      
  14330 000000        OCT 000000      
  14331 165012        OCT 165012      
  14332 000740        OCT 000740      
  14333 044542        OCT 044542      
  14334 053230        OCT 053230      
  14335 040404        OCT 040404      
  14336 102302        OCT 102302      
  14337 027056        OCT 027056      
  14340 102204        OCT 102204      
  14341 020010        OCT 020010      
  14342 051425        OCT 051425      
  14343 000000        OCT 000000      
  14344 000000        OCT 000000      
  14345 051425        OCT 051425      
  14346 000000        OCT 000000      
  14347 010404        OCT 010404      
  14350 143306        OCT 143306      
  14351 006001        OCT 006001      
  14352 016001        OCT 016001      
  14353 177510        OCT 177510      
  14354 167006        OCT 167006      
  14355 100106        OCT 100106      
  14356 000021        OCT 000021      
  14357 010006        OCT 010006      
  14360 170006        OCT 170006      
  14361 010267        OCT 010267      
  14362 000000        OCT 000000      
  14363 130045        OCT 130045      
  14364 117021        OCT 117021      
  14365 104300        OCT 104300      
  14366 100110        OCT 100110      
  14367 177765        OCT 177765      
  14370 114700        OCT 114700      
  14371 013201        OCT 013201      
  14372 000000        OCT 000000      
  14373 021000        OCT 021000      
  14374 021102        OCT 021102      
  14375 052565        OCT 052565      
  14376 052440        OCT 052440      
  14377 011120        OCT 011120      
  14400 152540        OCT 152540      
  14401 000340        OCT 000340      
  14402 105125        OCT 105125      
  14403 052000        OCT 052000      
  14404 000200        OCT 000200      
  14405 141060        OCT 141060      
  14406 000500        OCT 000500      
  14407 000001        OCT 000001      
  14410 020052        OCT 020052      
  14411 053501        OCT 053501      
  14412 001000        OCT 001000      
  14413 002443        OCT 002443      
  14414 001201        OCT 001201      
  14415 002040        OCT 002040      
  14416 057400        OCT 057400      
  14417 004616        OCT 004616      
  14420 004000        OCT 004000      
  14421 011616        OCT 011616      
  14422 000000        OCT 000000      
  14423 000000        OCT 000000      
  14424 127140        OCT 127140      
  14425 000273        OCT 000273      
  14426 000100        OCT 000100      
  14427 105003        OCT 105003      
  14430 006000        OCT 006000      
  14431 120100        OCT 120100      
  14432 000004        OCT 000004      
  14433 172657        OCT 172657      
  14434 040353        OCT 040353      
  14435 002040        OCT 002040      
  14436 000302        OCT 000302      
  14437 120020        OCT 120020      
  14440 120051        OCT 120051      
  14441 035122        OCT 035122      
  14442 100000        OCT 100000      
  14443 101271        OCT 101271      
  14444 060306        OCT 060306      
  14445 020204        OCT 020204      
  14446 031066        OCT 031066      
  14447 053062        OCT 053062      
  14450 042500        OCT 042500      
  14451 042202        OCT 042202      
  14452 000000        OCT 000000      
  14453 104031        OCT 104031      
  14454 051063        OCT 051063      
  14455 101542        OCT 101542      
  14456 012510        OCT 012510      
  14457 143121        OCT 143121      
  14460 032532        OCT 032532      
  14461 101203        OCT 101203      
  14462 001102        OCT 001102      
  14463 052153        OCT 052153      
  14464 101202        OCT 101202      
  14465 010010        OCT 010010      
  14466 000001        OCT 000001      
  14467 000500        OCT 000500      
  14470 000000        OCT 000000      
  14471 165025        OCT 165025      
  14472 100500        OCT 100500      
  14473 105104        OCT 105104      
  14474 101503        OCT 101503      
  14475 150000        OCT 150000      
  14476 041045        OCT 041045      
  14477 022522        OCT 022522      
  14500 040006        OCT 040006      
  14501 103400        OCT 103400      
  14502 110000        OCT 110000      
  14503 000214        OCT 000214      
  14504 000214        OCT 000214      
  14505 116524        OCT 116524      
  14506 006524        OCT 006524      
  14507 104704        OCT 104704      
  14510 064006        OCT 064006      
  14511 010004        OCT 010004      
  14512 011042        OCT 011042      
  14513 126521        OCT 126521      
  14514 000002        OCT 000002      
  14515 120160        OCT 120160      
  14516 054000        OCT 054000      
  14517 000000        OCT 000000      
  14520 000210        OCT 000210      
  14521 062731        OCT 062731      
  14522 000000        OCT 000000      
  14523 030730        OCT 030730      
  14524 114003        OCT 114003      
  14525 000620        OCT 000620      
  14526 043342        OCT 043342      
  14527 125103        OCT 125103      
  14530 003210        OCT 003210      
  14531 006450        OCT 006450      
  14532 000304        OCT 000304      
  14533 001050        OCT 001050      
  14534 010000        OCT 010000      
  14535 134355        OCT 134355      
  14536 000000        OCT 000000      
  14537 100244        OCT 100244      
  14540 000313        OCT 000313      
  14541 000400        OCT 000400      
  14542 042242        OCT 042242      
  14543 126165        OCT 126165      
  14544 000200        OCT 000200      
  14545 006007        OCT 006007      
  14546 000200        OCT 000200      
  14547 001100        OCT 001100      
  14550 010010        OCT 010010      
  14551 134335        OCT 134335      
  14552 000000        OCT 000000      
  14553 100234        OCT 100234      
  14554 000300        OCT 000300      
  14555 001100        OCT 001100      
  14556 024261        OCT 024261      
  14557 052112        OCT 052112      
  14560 004200        OCT 004200      
  14561 000203        OCT 000203      
  14562 006000        OCT 006000      
  14563 100240        OCT 100240      
  14564 100204        OCT 100204      
  14565 152652        OCT 152652      
  14566 000600        OCT 000600      
  14567 014600        OCT 014600      
  14570 006140        OCT 006140      
  14571 000000        OCT 000000      
  14572 001044        OCT 001044      
  14573 132572        OCT 132572      
  14574 000040        OCT 000040      
  14575 110100        OCT 110100      
  14576 000000        OCT 000000      
  14577 000041        OCT 000041      
  14600 044201        OCT 044201      
  14601 136773        OCT 136773      
  14602 000000        OCT 000000      
  14603 176050        OCT 176050      
  14604 000060        OCT 000060      
  14605 000000        OCT 000000      
  14606 043000        OCT 043000      
  14607 126522        OCT 126522      
  14610 001400        OCT 001400      
  14611 160020        OCT 160020      
  14612 000000        OCT 000000      
  14613 001400        OCT 001400      
  14614 010010        OCT 010010      
  14615 125255        OCT 125255      
  14616 000000        OCT 000000      
  14617 035051        OCT 035051      
  14620 001410        OCT 001410      
  14621 040007        OCT 040007      
  14622 040000        OCT 040000      
  14623 132456        OCT 132456      
  14624 020000        OCT 020000      
  14625 102041        OCT 102041      
  14626 000000        OCT 000000      
  14627 000006        OCT 000006      
  14630 000203        OCT 000203      
  14631 055320        OCT 055320      
  14632 000002        OCT 000002      
  14633 041025        OCT 041025      
  14634 060206        OCT 060206      
  14635 132340        OCT 132340      
  14636 041042        OCT 041042      
  14637 020405        OCT 020405      
  14640 041045        OCT 041045      
  14641 010100        OCT 010100      
  14642 000000        OCT 000000      
  14643 021060        OCT 021060      
  14644 164760        OCT 164760      
  14645 000015        OCT 000015      
  14646 040465        OCT 040465      
  14647 145041        OCT 145041      
  14650 065460        OCT 065460      
  14651 000200        OCT 000200      
  14652 040000        OCT 040000      
  14653 002400        OCT 002400      
  14654 050200        OCT 050200      
  14655 042000        OCT 042000      
  14656 000100        OCT 000100      
  14657 000100        OCT 000100      
  14660 040000        OCT 040000      
  14661 135200        OCT 135200      
  14662 160100        OCT 160100      
  14663 174300        OCT 174300      
  14664 010300        OCT 010300      
  14665         PEND2 EQU *               
                      END EPT02       
*                     
*                     
*                     
*                     
*                     
