
MA	EQU $00	FIRST ARG FOR MULTS FUNCTION
MB	EQU $02	SECOND ARG FOR MULTS FUNCTION

T1	EQU $06	TRANSFORMATION MATRIX COEFFICIENT 
T2	EQU $08	TRANSFORMATION MATRIX COEFFICIENT 
T3	EQU $0A	TRANSFORMATION MATRIX COEFFICIENT 
T4	EQU $0C	TRANSFORMATION MATRIX COEFFICIENT 
T5	EQU $0E	TRANSFORMATION MATRIX COEFFICIENT 
T6	EQU $10	TRANSFORMATION MATRIX COEFFICIENT 	
T7	EQU $12	TRANSFORMATION MATRIX COEFFICIENT 
T8	EQU $14	TRANSFORMATION MATRIX COEFFICIENT 
T9	EQU $16	TRANSFORMATION MATRIX COEFFICIENT 

XV	EQU $0100	;VIEWER POSITION WEST (0000-7FFF), EAST (FFFF-8000)
YV	EQU $0102	;VIEWER POSITION ALTITUDE
ZV	EQU $0104	;VIEWER POSITION SOUTH (0000-7FFF), NORTH (FFFF-8000)
PV 	EQU $0106	;VIEWER PITCH ANGLE ($FF -> 360 DEGREES)
BV 	EQU $0108	;VIEWER BANK ANGLE
HV 	EQU $010A	;VIEWER HEADING ANGLE
SCRN	EQU $010E	;SCREEN WIDTH FOR OUTPUT
IBP 	EQU $010F	;INPUT BUFFER POINTER
OBP 	EQU $0111	;OUTPUT BUFFER POINTER


G	EQU $011B	;G VALUE (=X + XV)
S	EQU $011D       ;S VALUE (=Y + YV) 
K	EQU $011F       ;K VALUE (=Z + ZV)

0119:	7F FFFA         CLR  $FFFA
011C:	80 01           SUBA #$01
011E:	88 00           EORA #$00
0120:	60 C4           NEG  196,X
0122:	38              ???
0123:	84 07           ANDA #$07
0125:	1B              ABA 
0126:	8A 40           ORAA #$40
0128:	B7 8019         STAA $8019
012B:	B6 8018         LDAA $8018
012E:	27 FB           BEQ  $012B
0130:	FF 0144         STX  $0144
0133:	FE 0500         LDX  $0500
0136:	09              DEX 
0137:	27 0D           BEQ  $0146
0139:	FF 0500         STX  $0500
013C:	FE 0144         LDX  $0144
013F:	08              INX 
0140:	20 DA           BRA  $011C
0142:	03              ???
0143:	30              TSX 
0144:	08              INX 
0145:	31              INS 
0146:	FE 0142         LDX  $0142
0149:	FF 0500         STX  $0500
014C:	7E 0017         JMP  $0017
014F:	DE 8C           LDX  $8C
0151:	D6 ED           LDAB $ED
0153:	FA 8DB7         ORAB $8DB7
0156:	8D 9E           BSR  $00F6
0158:	8D 58           BSR  $01B2
015A:	EC              ???
015B:	FD              ???
015C:	4D              TSTA
015D:	6B              ???
015E:	88 A6           EORA #$A6
0160:	90 EA           SUBA $EA
0162:	90 6A           SUBA $6A
0164:	87              ???
0165:	2C 9F           BGE  $0106
0167:	09              DEX 
0168:	B4 6F81         ANDA $6F81
016B:	2E 85           BGT  $00F2
016D:	06              TAP 
016E:	A4 6F           ANDA 111,X
0170:	A5 7D           BITA 125,X
0172:	85 6E           BITA #$6E
0174:	FD              ???
0175:	0E              CLI 
0176:	81 6A           CMPA #$6A
0178:	E9 68           ADCB 104,X
017A:	B5 492D         BITA $492D
017D:	64 81           LSR  129,X
017F:	75              ???
0180:	C9 CA           ADCB #$CA
0182:	F1 BF9B         CMPB $BF9B
0185:	FD              ???
0186:	90 8F           SUBA $8F
0188:	99 EE           ADCA $EE
018A:	8A DE           ORAA #$DE
018C:	99 FF           ADCA $FF
018E:	88 B6           EORA #$B6
0190:	8D 3E           BSR  $01D0
0192:	89 FE           ADCA #$FE
0194:	A9 DF           ADCA 223,X
0196:	8D AE           BSR  $0146
0198:	AD DE           JSR X 222,X
019A:	AD E6           JSR X 230,X
019C:	D8 9E           EORB $9E
019E:	C8 44           EORB #$44
01A0:	24 EC           BCC  $018E
01A2:	A5 6A           BITA 106,X
01A4:	F4 6E80         ANDB $6E80
01A7:	6A B4           DEC  180,X
01A9:	2A A4           BPL  $014F
01AB:	62              ???
01AC:	A1 32           CMPA 50,X
01AE:	90 0E           SUBA $0E
01B0:	88 6C           EORA #$6C
01B2:	CD              ???
01B3:	6C C8           INC  200,X
01B5:	6C A9           INC  169,X
01B7:	DE A5           LDX  $A5
01B9:	50              NEGB
01BA:	AD 22           JSR X 34,X
01BC:	A4 6B           ANDA 107,X
01BE:	81 75           CMPA #$75
01C0:	8D AC           BSR  $016E
01C2:	D9 DF           ADCB $DF
01C4:	A0 6E           SUBA 110,X
01C6:	F9 F88D         ADCB $F88D
01C9:	AE CD           LDS X 205,X
01CB:	DA 9D           ORAB $9D
01CD:	FE 91CA         LDX  $91CA
01D0:	E5 BE           BITB 190,X
01D2:	A8 FA           EORA 250,X
01D4:	CC              ???
01D5:	BE E1BE         LDS  $E1BE
01D8:	AD FE           JSR X 254,X
01DA:	89 EE           ADCA #$EE
01DC:	8D 7B           BSR  $0259
01DE:	C1 66           CMPB #$66
01E0:	A0 CF           SUBA 207,X
01E2:	C1 89           CMPB #$89
01E4:	85 60           BITA #$60
01E6:	F7 A889         STAB $A889
01E9:	06              TAP 
01EA:	DD              ???
01EB:	6D 9C           TST  156,X
01ED:	06              TAP 
01EE:	F8 6ED9         EORB $6ED9
01F1:	64 AD           LSR  173,X
01F3:	E6 DF           LDAB 223,X
01F5:	66 9D           ROR  157,X
01F7:	AA F9           ORAA 249,X
01F9:	CD              ???
01FA:	A9 44           ADCA 68,X
01FC:	AC 46           CPX X 70,X
01FE:	A8 7E           EORA 126,X
0200:	97 01           STAA MA+1
0202:	D7 00           STAB MA
0204:	DF 02           STX  MB
0206:	DF 04           STX  $04
0208:	20 12           BRA  MULTS	MULTIPLY WITH SIGN
020A:	DE 04           LDX  $04
020C:	39              RTS 

020D:	97 01           STAA MA+1
020F:	D7 00           STAB MA
0211:	96 04           LDAA $04
0213:	97 02           STAA MB
0215:	96 05           LDAA $05
0217:	97 03           STAA MB+1
0219:	20 01           BRA  MULTS	MULTIPLY WITH SIGN
021B:	39              RTS 

021C:	D6 00    MULTS  LDAB $00	MULTIPLY WITH SIGN (00,01) X (02,03)
021E:	D8 02           EORB $02	RESULT IN B-REB, A-REG
0220:	D7 40           STAB $40
0222:	96 00           LDAA $00
0224:	2A 08           BPL  $022E
0226:	4F              CLRA
0227:	70 0001         NEG  $0001
022A:	92 00           SBCA $00
022C:	97 00           STAA $00
022E:	96 02           LDAA $02
0230:	2A 08           BPL  $023A
0232:	4F              CLRA
0233:	70 0003         NEG  $0003
0236:	92 02           SBCA $02
0238:	97 02           STAA $02
023A:	4F              CLRA
023B:	5F              CLRB
023C:	74 0001         LSR  $0001
023F:	24 04           BCC  $0245
0241:	9B 03           ADDA $03
0243:	D9 02           ADCB $02
0245:	54              LSRB
0246:	46              RORA
0247:	74 0001         LSR  $0001
024A:	24 04           BCC  $0250
024C:	9B 03           ADDA $03
024E:	D9 02           ADCB $02
0250:	54              LSRB
0251:	46              RORA
0252:	74 0001         LSR  $0001
0255:	24 04           BCC  $025B
0257:	9B 03           ADDA $03
0259:	D9 02           ADCB $02
025B:	54              LSRB
025C:	46              RORA
025D:	74 0001         LSR  $0001
0260:	24 04           BCC  $0266
0262:	9B 03           ADDA $03
0264:	D9 02           ADCB $02
0266:	54              LSRB
0267:	46              RORA
0268:	74 0001         LSR  $0001
026B:	24 04           BCC  $0271
026D:	9B 03           ADDA $03
026F:	D9 02           ADCB $02
0271:	54              LSRB
0272:	46              RORA
0273:	74 0001         LSR  $0001
0276:	24 04           BCC  $027C
0278:	9B 03           ADDA $03
027A:	D9 02           ADCB $02
027C:	54              LSRB
027D:	46              RORA
027E:	74 0001         LSR  $0001
0281:	24 04           BCC  $0287
0283:	9B 03           ADDA $03
0285:	D9 02           ADCB $02
0287:	54              LSRB
0288:	46              RORA
0289:	74 0001         LSR  $0001
028C:	24 04           BCC  $0292
028E:	9B 03           ADDA $03
0290:	D9 02           ADCB $02
0292:	54              LSRB
0293:	46              RORA
0294:	74 0000         LSR  $0000
0297:	24 04           BCC  $029D
0299:	9B 03           ADDA $03
029B:	D9 02           ADCB $02
029D:	54              LSRB
029E:	46              RORA
029F:	74 0000         LSR  $0000
02A2:	24 04           BCC  $02A8
02A4:	9B 03           ADDA $03
02A6:	D9 02           ADCB $02
02A8:	54              LSRB
02A9:	46              RORA
02AA:	74 0000         LSR  $0000
02AD:	24 04           BCC  $02B3
02AF:	9B 03           ADDA $03
02B1:	D9 02           ADCB $02
02B3:	54              LSRB
02B4:	46              RORA
02B5:	74 0000         LSR  $0000
02B8:	24 04           BCC  $02BE
02BA:	9B 03           ADDA $03
02BC:	D9 02           ADCB $02
02BE:	54              LSRB
02BF:	46              RORA
02C0:	74 0000         LSR  $0000
02C3:	24 04           BCC  $02C9
02C5:	9B 03           ADDA $03
02C7:	D9 02           ADCB $02
02C9:	54              LSRB
02CA:	46              RORA
02CB:	74 0000         LSR  $0000
02CE:	24 04           BCC  $02D4
02D0:	9B 03           ADDA $03
02D2:	D9 02           ADCB $02
02D4:	54              LSRB
02D5:	46              RORA
02D6:	74 0000         LSR  $0000
02D9:	24 04           BCC  $02DF
02DB:	9B 03           ADDA $03
02DD:	D9 02           ADCB $02
02DF:	54              LSRB
02E0:	46              RORA
02E1:	7D 0040         TST  $0040
02E4:	2A 06           BPL  $02EC
02E6:	D7 40           STAB $40
02E8:	5F              CLRB
02E9:	40              NEGA
02EA:	D2 40           SBCB $40
02EC:	39              RTS 

02ED:	78 CCA8         ASL  $CCA8
02F0:	8B 2A           ADDA #$2A
02F2:	80 6A           SUBA #$6A
02F4:	89 3F           ADCA #$3F
02F6:	CC              ???
02F7:	2E A9           BGT  $02A2
02F9:	48              ASLA
02FA:	25 6E           BCS  $036A
02FC:	21              ???
02FD:	42              ???
02FE:	A1 24           CMPA 36,X

					APPLY TRANSLATION OF XYZ 3D POINT
					AND TRANSFORMATION MATRIX

0300:	E6 00     TRMAT LDAB 0,X	GET BIT BITS 3D X COORD INTO
0302:	A6 01           LDAA 1,X	A AND B REGISTERS
0304:	BB 0101         ADDA XV+1	CALC G=X+XV
0307:	F9 0100         ADCB XV		VIEWER POSITION WEST (0000-7FFF), EAST (FFFF-8000)
030A:	F7 011B         STAB G 		VALUE (=X + XV)
030D:	B7 011C         STAA G+1
0310:	E6 02           LDAB 2,X	GET BIT BITS 3D Y COORD INTO
0312:	A6 03           LDAA 3,X	A AND B REGISTERS
0314:	BB 0103         ADDA YV+1	CALC S=Y+YV
0317:	F9 0102         ADCB YV		VIEWER POSITION ALTITUDE
031A:	F7 011D         STAB S 		VALUE (=Y + YV)
031D:	B7 011E         STAA S+1
0320:	E6 04           LDAB 4,X	GET BIT BITS 3D Z COORD INTO
0322:	A6 05           LDAA 5,X	A AND B REGISTERS
0324:	BB 0105         ADDA ZV+1	CALC K=Z+ZV
0327:	F9 0104         ADCB ZV		VIEWER POSITION SOUTH (0000-7FFF), NORTH (FFFF-8000)
032A:	F7 011F         STAB K 		VALUE (=Z + ZV)
032D:	B7 0120         STAA K+1
0330:	DF 38           STX  $38	SAVE X-REG
0332:	FE 011B         LDX  G 		VALUE (=X + XV)
0335:	DF 00           STX  MA
0337:	DE 06           LDX  T1		TRANSFORMATION MATRIX COEFFICIENT 
0339:	DF 02           STX  MB
033B:	BD 021C         JSR  MULTS	MULTIPLY WITH SIGN
033E:	D7 3A           STAB $3A
0340:	97 3B           STAA $3B
0342:	FE 011D         LDX  S 		VALUE (=Y + YV)
0345:	DF 00           STX  MA
0347:	DE 0C           LDX  $0C
0349:	DF 02           STX  MB
034B:	BD 021C         JSR  MULTS	MULTIPLY WITH SIGN
034E:	D7 3C           STAB $3C
0350:	97 3D           STAA $3D
0352:	FE 011F         LDX  K 		VALUE (=Z + ZV)
0355:	DF 00           STX  MA
0357:	DE 12           LDX  $12
0359:	DF 02           STX  MB
035B:	BD 021C         JSR  MULTS	MULTIPLY WITH SIGN
035E:	9B 3B           ADDA $3B
0360:	D9 3A           ADCB $3A
0362:	9B 3D           ADDA $3D
0364:	D9 3C           ADCB $3C
0366:	DE 18           LDX  $18
0368:	E7 00           STAB 0,X
036A:	A7 01           STAA 1,X
036C:	FE 011B         LDX  G 		VALUE (=X + XV)
036F:	DF 00           STX  MA
0371:	DE 08           LDX  T2		TRANSFORMATION MATRIX COEFFICIENT 
0373:	DF 02           STX  MB
0375:	BD 021C         JSR  MULTS	MULTIPLY WITH SIGN
0378:	D7 3A           STAB $3A
037A:	97 3B           STAA $3B
037C:	FE 011D         LDX  S 		VALUE (=Y + YV)
037F:	DF 00           STX  MA
0381:	DE 0E           LDX  $0E
0383:	DF 02           STX  MB
0385:	BD 021C         JSR  MULTS	MULTIPLY WITH SIGN
0388:	D7 3C           STAB $3C
038A:	97 3D           STAA $3D
038C:	FE 011F         LDX  K 		VALUE (=Z + ZV)
038F:	DF 00           STX  MA
0391:	DE 14           LDX  $14
0393:	DF 02           STX  MB
0395:	BD 021C         JSR  MULTS	MULTIPLY WITH SIGN
0398:	9B 3B           ADDA $3B
039A:	D9 3A           ADCB $3A
039C:	9B 3D           ADDA $3D
039E:	D9 3C           ADCB $3C
03A0:	DE 18           LDX  $18
03A2:	E7 02           STAB 2,X
03A4:	A7 03           STAA 3,X
03A6:	FE 011B         LDX  G 		VALUE (=X + XV)
03A9:	DF 00           STX  MA
03AB:	DE 0A           LDX  T3		TRANSFORMATION MATRIX COEFFICIENT 
03AD:	DF 02           STX  MB
03AF:	BD 021C         JSR  MULTS	MULTIPLY WITH SIGN
03B2:	D7 3A           STAB $3A
03B4:	97 3B           STAA $3B
03B6:	FE 011D         LDX  S 		VALUE (=Y + YV)
03B9:	DF 00           STX  MA
03BB:	DE 10           LDX  $10
03BD:	DF 02           STX  MB
03BF:	BD 021C         JSR  MULTS	MULTIPLY WITH SIGN
03C2:	D7 3C           STAB $3C
03C4:	97 3D           STAA $3D
03C6:	FE 011F         LDX  K 		VALUE (=Z + ZV)
03C9:	DF 00           STX  MA
03CB:	DE 16           LDX  $16
03CD:	DF 02           STX  MB
03CF:	BD 021C         JSR  MULTS	MULTIPLY WITH SIGN
03D2:	9B 3B           ADDA $3B
03D4:	D9 3A           ADCB $3A
03D6:	9B 3D           ADDA $3D
03D8:	D9 3C           ADCB $3C
03DA:	DE 18           LDX  $18
03DC:	E7 04           STAB 4,X
03DE:	A7 05           STAA 5,X
03E0:	DE 38           LDX  $38	RESTORE X-REG
03E2:	39              RTS 

03E3:	38              ???
03E4:	88 1A           EORA #$1A
03E6:	D1 94           CMPB $94
03E8:	D0 10           SUBB $10
03EA:	F8 AAC1         EORB $AAC1
03ED:	20 89           BRA  $0378
03EF:	F2 8908         SBCB $8908
03F2:	99 F8           ADCA $F8
03F4:	A8 E8           EORA 232,X
03F6:	99 FF           ADCA $FF
03F8:	C9 6C           ADCB #$6C
03FA:	AD 50           JSR X 80,X
03FC:	89 69           ADCA #$69
03FE:	BD 55ED         JSR  $55ED
0401:	9F AF           STS  $AF
0403:	DE DD           LDX  $DD
0405:	D4 45           ANDB $45
0407:	DD              ???
0408:	CD              ???
0409:	4F              CLRA
040A:	AD 4E           JSR X 78,X
040C:	DF 9E           STX  $9E
040E:	35              TXS 
040F:	D3              ???
0410:	AD DB           JSR X 219,X
0412:	CC              ???
0413:	D6 FD           LDAB $FD
0415:	DB E5           ADDB $E5
0417:	1A              ???
0418:	AD DA           JSR X 218,X
041A:	FE DFA5         LDX  $DFA5
041D:	9E 7D           LDS  $7D
041F:	B6 8D66         LDAA $8D66
0422:	05              ???
0423:	C4 84           ANDB #$84
0425:	85 05           BITA #$05
0427:	C4 C4           ANDB #$C4
0429:	C6 85           LDAB #$85
042B:	94 85           ANDA $85
042D:	5C              INCB
042E:	C5 77           BITB #$77
0430:	85 EC           BITA #$EC
0432:	84 1C           ANDA #$1C
0434:	84 E6           ANDA #$E6
0436:	C5 07           BITB #$07
0438:	A5 24           BITA 36,X
043A:	84 E4           ANDA #$E4
043C:	84 46           ANDA #$46
043E:	8C 46CC         CPX  #$46CC
0441:	DD              ???
0442:	6C DE           INC  222,X
0444:	CD              ???
0445:	C4 ED           ANDB #$ED
0447:	4E              ???
0448:	4F              CLRA
0449:	5C              INCB
044A:	47              ASRA
044B:	DC              ???
044C:	3F              SWI 
044D:	55              ???
044E:	CD              ???
044F:	DE 8F           LDX  $8F
0451:	5E              ???
0452:	C4 D7           ANDB #$D7
0454:	0D              SEC 
0455:	DF 6E           STX  $6E
0457:	DC              ???
0458:	87              ???
0459:	16              TAB 
045A:	CE DFDF         LDX  #$DFDF
045D:	5F              CLRB
045E:	3F              SWI 
045F:	4E              ???
0460:	07              TPA 
0461:	44              LSRA
0462:	CC              ???
0463:	46              RORA
0464:	85 6E           BITA #$6E
0466:	16              TAB 
0467:	94 84           ANDA $84
0469:	6C 05           INC  5,X
046B:	EC              ???
046C:	85 25           BITA #$25
046E:	8C 4585         CPX  #$4585
0471:	0C              CLC 
0472:	64 35           LSR  53,X
0474:	85 05           BITA #$05
0476:	85 2C           BITA #$2C
0478:	C5 E4           BITB #$E4
047A:	4D              TSTA
047B:	84 04           ANDA #$04
047D:	CC              ???
047E:	84 8E           ANDA #$8E
0480:	D9 5E           ADCB $5E
0482:	4D              TSTA
0483:	D6 CD           LDAB $CD
0485:	56              RORB
0486:	5C              INCB
0487:	10              SBA 
0488:	D5 CF           BITB $CF
048A:	CD              ???
048B:	DE 8F           LDX  $8F
048D:	5C              INCB
048E:	CC              ???
048F:	5F              CLRB
0490:	CD              ???
0491:	5E              ???
0492:	4C              INCA
0493:	4E              ???
0494:	4C              INCA
0495:	5D              TSTB
0496:	CD              ???
0497:	5D              TSTB
0498:	0F              SEI 
0499:	5C              INCB
049A:	8D D7           BSR  $0473
049C:	EF FE           STX  254,X
049E:	EC              ???
049F:	4E              ???
04A0:	84 8F           ANDA #$8F
04A2:	4C              INCA
04A3:	C6 85           LDAB #$85
04A5:	66 05           ROR  5,X
04A7:	A6 95           LDAA 149,X
04A9:	24 8D           BCC  $0438
04AB:	A2 15           SBCA 21,X
04AD:	C7              ???
04AE:	1D              ???
04AF:	94 85           ANDA $85
04B1:	04              ???
04B2:	84 2E           ANDA #$2E
04B4:	45              ???
04B5:	C4 C5           ANDB #$C5
04B7:	F4 8D0D         ANDB $8D0D
04BA:	85 54           BITA #$54
04BC:	95 44           BITA $44
04BE:	2D 86           BLT  $0446
04C0:	CF              ???
04C1:	5E              ???
04C2:	BD D49D         JSR  $D49D
04C5:	4D              TSTA
04C6:	45              ???
04C7:	DE CF           LDX  $CF
04C9:	DF CD           STX  $CD
04CB:	CD              ???
04CC:	8D 5E           BSR  $052C
04CE:	DD              ???
04CF:	D7 ED           STAB $ED
04D1:	F9 7DC6         ADCB $7DC6
04D4:	97 DE           STAA $DE
04D6:	0C              CLC 
04D7:	4C              INCA
04D8:	15              ???
04D9:	7D 04DF         TST  $04DF
04DC:	17              TBA 
04DD:	5E              ???
04DE:	ED              ???
04DF:	DF 04           STX  $04
04E1:	64 8C           LSR  140,X
04E3:	06              TAP 
04E4:	B4 9404         ANDA $9404
04E7:	5D              TSTB
04E8:	06              TAP 
04E9:	C4 85           ANDB #$85
04EB:	46              RORA
04EC:	9C 56           CPX  $56
04EE:	85 E6           BITA #$E6
04F0:	15              ???
04F1:	25 85           BCS  $0478
04F3:	AC 25           CPX X 37,X
04F5:	2F 84           BLE  $047B
04F7:	2C 06           BGE  $04FF
04F9:	6E 3D           JMP  61,X
04FB:	B5 AC07         BITA $AC07
04FE:	07              TPA 
04FF:	85 00           BITA #$00
0501:	50              NEGB
0502:	00              ???
0503:	50              NEGB
0504:	80 01           SUBA #$01
0506:	F7 0500         STAB $0500
0509:	B7 0501         STAA $0501
050C:	DE 3A           LDX  $3A
050E:	FF 0502         STX  $0502
0511:	8D 06           BSR  $0519
0513:	FE 0504         LDX  $0504
0516:	DF 04           STX  $04
0518:	39              RTS 
0519:	B6 0500         LDAA $0500
051C:	2B 0B           BMI  $0529
051E:	B6 0502         LDAA $0502
0521:	2B 02           BMI  $0525
0523:	20 34           BRA  $0559
0525:	8D 1A           BSR  $0541
0527:	20 23           BRA  $054C
0529:	8D 0B           BSR  $0536
052B:	B6 0502         LDAA $0502
052E:	2B 02           BMI  $0532
0530:	20 1A           BRA  $054C
0532:	8D 0D           BSR  $0541
0534:	20 23           BRA  $0559
0536:	5F              CLRB
0537:	70 0501         NEG  $0501
053A:	F2 0500         SBCB $0500
053D:	F7 0500         STAB $0500
0540:	39              RTS 
0541:	5F              CLRB
0542:	70 0503         NEG  $0503
0545:	F2 0502         SBCB $0502
0548:	F7 0502         STAB $0502
054B:	39              RTS 
054C:	8D 0B           BSR  $0559
054E:	5F              CLRB
054F:	70 0505         NEG  $0505
0552:	F2 0504         SBCB $0504
0555:	F7 0504         STAB $0504
0558:	39              RTS 
0559:	F6 0500         LDAB $0500
055C:	B6 0501         LDAA $0501
055F:	7F 0505         CLR  $0505
0562:	CE 000F         LDX  #$000F
0565:	B0 0503         SUBA $0503
0568:	F2 0502         SBCB $0502
056B:	2B 10           BMI  $057D
056D:	7C 0505         INC  $0505
0570:	78 0505         ASL  $0505
0573:	79 0504         ROL  $0504
0576:	48              ASLA
0577:	59              ROLB
0578:	09              DEX 
0579:	27 17           BEQ  $0592
057B:	20 E8           BRA  $0565
057D:	78 0505         ASL  $0505
0580:	79 0504         ROL  $0504
0583:	48              ASLA
0584:	59              ROLB
0585:	09              DEX 
0586:	27 0A           BEQ  $0592
0588:	BB 0503         ADDA $0503
058B:	F9 0502         ADCB $0502
058E:	2B ED           BMI  $057D
0590:	20 DB           BRA  $056D
0592:	B6 0504         LDAA $0504
0595:	2A 07           BPL  $059E
0597:	FE 0504         LDX  $0504
059A:	09              DEX 
059B:	FF 0504         STX  $0504
059E:	39              RTS 
059F:	13              ???
05A0:	13              ???
05A1:	05              ???
05A2:	55              ???
05A3:	45              ???
05A4:	02              ???
05A5:	13              ???
05A6:	15              ???
05A7:	05              ???
05A8:	55              ???
05A9:	46              RORA
05AA:	01              NOP 
05AB:	72              ???
05AC:	67 00           ASR  0,X
05AE:	00              ???
05AF:	00              ???
05B0:	00              ???
05B1:	12              ???
05B2:	21              ???
05B3:	17              TBA 
05B4:	74 2517         LSR  $2517
05B7:	74 0517         LSR  $0517
05BA:	74 3117         LSR  $3117
05BD:	74 1101         LSR  $1101
05C0:	60 00           NEG  0,X
05C2:	00              ???
05C3:	00              ???
05C4:	00              ???
05C5:	05              ???
05C6:	53              COMB
05C7:	50              NEGB
05C8:	02              ???
05C9:	13              ???
05CA:	56              RORB
05CB:	05              ???
05CC:	53              COMB
05CD:	55              ???
05CE:	01              NOP 
05CF:	73 2705         COM  $2705
05D2:	53              COMB
05D3:	50              NEGB
05D4:	02              ???
05D5:	13              ???
05D6:	57              ASRB
05D7:	05              ???
05D8:	53              COMB
05D9:	55              ???
05DA:	02              ???
05DB:	13              ???
05DC:	52              ???
05DD:	05              ???
05DE:	53              COMB
05DF:	53              COMB
05E0:	05              ???
05E1:	37              PSHB
05E2:	74 0713         LSR  $0713
05E5:	53              COMB
05E6:	11              CBA 
05E7:	13              ???
05E8:	50              NEGB
05E9:	00              ???
05EA:	13              ???
05EB:	34              DES 
05EC:	15              ???
05ED:	53              COMB
05EE:	54              LSRB
05EF:	05              ???
05F0:	13              ???
05F1:	51              ???
05F2:	00              ???
05F3:	13              ???
05F4:	37              PSHB
05F5:	15              ???
05F6:	53              COMB
05F7:	55              ???
05F8:	07              TPA 
05F9:	77 6700         ASR  $6700
05FC:	53              COMB
05FD:	31              INS 
05FE:	07              TPA 
05FF:	60 96           NEG  150,X
0601:	23 D6           BLS  $05D9
0603:	22 DE           BHI  $05E3
0605:	26 8D           BNE  $0594
0607:	18              ???
0608:	D7 3C           STAB $3C
060A:	96 25           LDAA $25
060C:	D6 24           LDAB $24
060E:	DE 26           LDX  $26
0610:	8D 0E           BSR  $0620
0612:	DE 1E           LDX  OUTXY	POINT TO CURRENT OUTPUT 2D XY COORDS ALREADY PROYECTED
0614:	E7 02           STAB 2,X
0616:	D6 3C           LDAB $3C
0618:	E7 01           STAB 1,X
061A:	86 55           LDAA #$55
061C:	A7 00           STAA 0,X
061E:	20 1F           BRA  $063F
0620:	DF 3A           STX  $3A
0622:	BD 0506         JSR  $0506
0625:	F6 010E         LDAB $010E
0628:	54              LSRB
0629:	5A              DECB
062A:	4F              CLRA
062B:	BD 020D         JSR  $020D
062E:	39              RTS 
062F:	DE 1E           LDX  OUTXY	POINT TO CURRENT OUTPUT 2D XY COORDS ALREADY PROYECTED
0631:	86 55           LDAA #$55
0633:	A7 00           STAA 0,X
0635:	09              DEX 
0636:	09              DEX 
0637:	A6 00           LDAA 0,X
0639:	A7 03           STAA 3,X
063B:	A6 01           LDAA 1,X
063D:	A7 04           STAA 4,X
063F:	96 2B           LDAA $2B
0641:	D6 2A           LDAB $2A
0643:	DE 2E           LDX  $2E
0645:	8D D9           BSR  $0620
0647:	D7 3C           STAB $3C
0649:	96 2D           LDAA $2D
064B:	D6 2C           LDAB $2C
064D:	DE 2E           LDX  $2E
064F:	8D CF           BSR  $0620
0651:	DE 1E           LDX  OUTXY	POINT TO CURRENT OUTPUT 2D XY COORDS ALREADY PROYECTED
0653:	E7 04           STAB 4,X
0655:	D6 3C           LADAB $3C
0657:	E7 03           STAB 3,X
0659:	08              INX 
065A:	08              INX 
065B:	08              INX 
065C:	08              INX 
065D:	08              INX 
065E:	DF 1E           STX  OUTXY	POINT TO CURRENT OUTPUT 2D XY COORDS ALREADY PROYECTED
0660:	7E 092C         JMP  PROY3D  	GOTO PROYECT NEXT INPUT 3D XYZ SEGMENT
0663:	57              ASRB
0664:	04              ???
0665:	31              INS 
0666:	00              ???
0667:	05              ???
0668:	55              ???
0669:	60 04           NEG  4,X
066B:	31              INS 
066C:	00              ???
066D:	07              TPA 
066E:	15              ???
066F:	60 05           NEG  5,X
0671:	15              ???
0672:	61              ???
0673:	02              ???
0674:	15              ???
0675:	55              ???
0676:	05              ???
0677:	55              ???
0678:	62              ???
0679:	02              ???
067A:	15              ???
067B:	62              ???
067C:	07              TPA 
067D:	77 6601         ASR  $6601
0680:	14              ???
0681:	22 05           BHI  $0688
0683:	55              ???
0684:	62              ???
0685:	07              TPA 
0686:	55              ???
0687:	61              ???
0688:	01              NOP 
0689:	74 1402         LSR  $1402
068C:	15              ???
068D:	61              ???
068E:	03              ???
068F:	15              ???
0690:	60 04           NEG  4,X
0692:	31              INS 
0693:	00              ???
0694:	05              ???
0695:	55              ???
0696:	61              ???
0697:	15              ???
0698:	55              ???
0699:	44              LSRA
069A:	02              ???
069B:	15              ???
069C:	62              ???
069D:	15              ???
069E:	55              ???
069F:	46              RORA
06A0:	02              ???
06A1:	15              ???
06A2:	47              ASRA
06A3:	05              ???
06A4:	55              ???
06A5:	17              TBA 
06A6:	02              ???
06A7:	15              ???
06A8:	63 07           COM  7,X
06AA:	74 7100         LSR  $7100
06AD:	34              DES 
06AE:	34              DES 
06AF:	07              TPA 
06B0:	63 07           COM  7,X
06B2:	01              NOP 
06B3:	14              ???
06B4:	36              PSHA
06B5:	03              ???
06B6:	35              TXS 
06B7:	55              ???
06B8:	05              ???
06B9:	60 00           NEG  0,X
06BB:	05              ???
06BC:	55              ???
06BD:	65              ???
06BE:	05              ???
06BF:	55              ???
06C0:	66 00           ROR  0,X
06C2:	34              DES 
06C3:	52              ???
06C4:	05              ???
06C5:	60 00           NEG  0,X
06C7:	05              ???
06C8:	55              ???
06C9:	65              ???
06CA:	05              ???
06CB:	55              ???
06CC:	66 02           ROR  2,X
06CE:	15              ???
06CF:	50              NEGB
06D0:	05              ???
06D1:	55              ???
06D2:	17              TBA 
06D3:	02              ???
06D4:	15              ???
06D5:	51              ???
06D6:	05              ???
06D7:	55              ???
06D8:	06              TAP 
06D9:	02              ???
06DA:	15              ???
06DB:	64 07           LSR  7,X
06DD:	74 7100         LSR  $7100
06E0:	34              DES 
06E1:	55              ???
06E2:	07              TPA 
06E3:	63 07           COM  7,X
06E5:	01              NOP 
06E6:	14              ???
06E7:	57              ASRB
06E8:	03              ???
06E9:	35              TXS 
06EA:	57              ASRB
06EB:	05              ???
06EC:	60 00           NEG  0,X
06EE:	05              ???
06EF:	55              ???
06F0:	70 0555         NEG  $0555
06F3:	67 00           ASR  0,X
06F5:	34              DES 
06F6:	73 0560         COM  $0560
06F9:	00              ???
06FA:	05              ???
06FB:	55              ???
06FC:	67 05           ASR  5,X
06FE:	55              ???
06FF:	70 9628         NEG  $9628
0702:	84 BF           ANDA #$BF
0704:	27 0A           BEQ  $0710
0706:	84 DF           ANDA #$DF
0708:	27 09           BEQ  $0713
070A:	84 EF           ANDA #$EF
070C:	27 5C           BEQ  $076A
070E:	20 06           BRA  $0716
0710:	7E 0816         JMP  $0816
0713:	7E 07C2         JMP  $07C2
0716:	96 27           LDAA $27
0718:	D6 26           LDAB $26
071A:	90 2F           SUBA $2F
071C:	D2 2E           SBCB $2E
071E:	97 3B           STAA $3B
0720:	D7 3A           STAB $3A
0722:	96 25           LDAA $25
0724:	D6 24           LDAB $24
0726:	90 2D           SUBA $2D
0728:	D2 2C           SBCB $2C
072A:	90 3B           SUBA $3B
072C:	D2 3A           SBCB $3A
072E:	97 3B           STAA $3B
0730:	D7 3A           STAB $3A
0732:	96 2F           LDAA $2F
0734:	D6 2E           LDAB $2E
0736:	90 2D           SUBA $2D
0738:	D2 2C           SBCB $2C
073A:	BD 0506         JSR  $0506
073D:	96 23           LDAA $23
073F:	D6 22           LDAB $22
0741:	90 2B           SUBA $2B
0743:	D2 2A           SBCB $2A
0745:	BD 020D         JSR  $020D
0748:	9B 2B           ADDA $2B
074A:	D9 2A           ADCB $2A
074C:	97 2B           STAA $2B
074E:	D7 2A           STAB $2A
0750:	96 27           LDAA $27
0752:	D6 26           LDAB $26
0754:	90 2F           SUBA $2F
0756:	D2 2E           SBCB $2E
0758:	BD 020D         JSR  $020D
075B:	9B 2F           ADDA $2F
075D:	D9 2E           ADCB $2E
075F:	97 2F           STAA $2F
0761:	D7 2E           STAB $2E
0763:	97 2D           STAA $2D
0765:	D7 2C           STAB $2C
0767:	7E 0A42         JMP  $0A42
076A:	96 27           LDAA $27
076C:	D6 26           LDAB $26
076E:	90 2F           SUBA $2F
0770:	D2 2E           SBCB $2E
0772:	97 3B           STAA $3B
0774:	D7 3A           STAB $3A
0776:	96 2D           LDAA $2D
0778:	D6 2C           LDAB $2C
077A:	90 25           SUBA $25
077C:	D2 24           SBCB $24
077E:	90 3B           SUBA $3B
0780:	D2 3A           SBCB $3A
0782:	97 3B           STAA $3B
0784:	D7 3A           STAB $3A
0786:	96 2F           LDAA $2F
0788:	D6 2E           LDAB $2E
078A:	9B 2D           ADDA $2D
078C:	D9 2C           ADCB $2C
078E:	BD 0506         JSR  $0506
0791:	96 23           LDAA $23
0793:	D6 22           LDAB $22
0795:	90 2B           SUBA $2B
0797:	D2 2A           SBCB $2A
0799:	BD 020D         JSR  $020D
079C:	9B 2B           ADDA $2B
079E:	D9 2A           ADCB $2A
07A0:	97 2B           STAA $2B
07A2:	D7 2A           STAB $2A
07A4:	96 27           LDAA $27
07A6:	D6 26           LDAB $26
07A8:	90 2F           SUBA $2F
07AA:	D2 2E           SBCB $2E
07AC:	BD 020D         JSR  $020D
07AF:	9B 2F           ADDA $2F
07B1:	D9 2E           ADCB $2E
07B3:	97 2F           STAA $2F
07B5:	D7 2E           STAB $2E
07B7:	5F              CLRB
07B8:	40              NEGA
07B9:	D2 2E           SBCB $2E
07BB:	97 2D           STAA $2D
07BD:	D7 2C           STAB $2C
07BF:	7E 0A42         JMP  $0A42
07C2:	96 27           LDAA $27
07C4:	D6 26           LDAB $26
07C6:	90 2F           SUBA $2F
07C8:	D2 2E           SBCB $2E
07CA:	97 3B           STAA $3B
07CC:	D7 3A           STAB $3A
07CE:	96 23           LDAA $23
07D0:	D6 22           LDAB $22
07D2:	90 2B           SUBA $2B
07D4:	D2 2A           SBCB $2A
07D6:	90 3B           SUBA $3B
07D8:	D2 3A           SBCB $3A
07DA:	97 3B           STAA $3B
07DC:	D7 3A           STAB $3A
07DE:	96 2F           LDAA $2F
07E0:	D6 2E           LDAB $2E
07E2:	90 2B           SUBA $2B
07E4:	D2 2A           SBCB $2A
07E6:	BD 0506         JSR  $0506
07E9:	96 25           LDAA $25
07EB:	D6 24           LDAB $24
07ED:	90 2D           SUBA $2D
07EF:	D2 2C           SBCB $2C
07F1:	BD 020D         JSR  $020D
07F4:	9B 2D           ADDA $2D
07F6:	D9 2C           ADCB $2C
07F8:	97 2D           STAA $2D
07FA:	D7 2C           STAB $2C
07FC:	96 27           LDAA $27
07FE:	D6 26           LDAB $26
0800:	90 2F           SUBA $2F
0802:	D2 2E           SBCB $2E
0804:	BD 020D         JSR  $020D
0807:	9B 2F           ADDA $2F
0809:	D9 2E           ADCB $2E
080B:	97 2F           STAA $2F
080D:	D7 2E           STAB $2E
080F:	97 2B           STAA $2B
0811:	D7 2A           STAB $2A
0813:	7E 0A42         JMP  $0A42
0816:	96 27           LDAA $27
0818:	D6 26           LDAB $26
081A:	90 2F           SUBA $2F
081C:	D2 2E           SBCB $2E
081E:	97 3B           STAA $3B
0820:	D7 3A           STAB $3A
0822:	96 2B           LDAA $2B
0824:	D6 2A           LDAB $2A
0826:	90 23           SUBA $23
0828:	D2 22           SBCB $22
082A:	90 3B           SUBA $3B
082C:	D2 3A           SBCB $3A
082E:	97 3B           STAA $3B
0830:	D7 3A           STAB $3A
0832:	96 2F           LDAA $2F
0834:	D6 2E           LDAB $2E
0836:	9B 2B           ADDA $2B
0838:	D9 2A           ADCB $2A
083A:	BD 0506         JSR  $0506
083D:	96 25           LDAA $25
083F:	D6 24           LDAB $24
0841:	90 2D           SUBA $2D
0843:	D2 2C           SBCB $2C
0845:	BD 020D         JSR  $020D
0848:	9B 2D           ADDA $2D
084A:	D9 2C           ADCB $2C
084C:	97 2D           STAA $2D
084E:	D7 2C           STAB $2C
0850:	96 27           LDAA $27
0852:	D6 26           LDAB $26
0854:	90 2F           SUBA $2F
0856:	D2 2E           SBCB $2E
0858:	BD 020D         JSR  $020D
085B:	9B 2F           ADDA $2F
085D:	D9 2E           ADCB $2E
085F:	97 2F           STAA $2F
0861:	D7 2E           STAB $2E
0863:	5F              CLRB
0864:	40              NEGA
0865:	D2 2E           SBCB $2E
0867:	97 2B           STAA $2B
0869:	D7 2A           STAB $2A
086B:	7E 0A42         JMP  $0A42
086E:	F8 34F9         EORB $34F9
0871:	34              DES 
0872:	E9 94           ADCB 148,X
0874:	E9 B4           ADCB 180,X
0876:	E9 34           ADCB 52,X
0878:	F9 24FB         ADCB $24FB
087B:	B4 EB36         ANDA $EB36
087E:	E9 B5           ADCB 181,X
0880:	DF 54           STX  $54
0882:	EB 17           ADDB 23,X
0884:	DB 37           ADDB $37
0886:	EB 16           ADDB 22,X
0888:	DB 46           ADDB $46
088A:	CF              ???
088B:	77 CB17         ASR  $CB17
088E:	4D              TSTA
088F:	76 FB57         ROR  $FB57
0892:	DB 17           ADDB $17
0894:	DB 27           ADDB $27
0896:	EB 17           ADDB 23,X
0898:	D9 5F           ADCB $5F
089A:	D9 67           ADCB $67
089C:	DB 55           ADDB $55
089E:	FF 1EE9         STX  $1EE9
08A1:	5E              ???
08A2:	E9 30           ADCB 48,X
08A4:	E9 34           ADCB 52,X
08A6:	F9 20F9         ADCB $20F9
08A9:	33              PULB
08AA:	A9 20           ADCA 32,X
08AC:	E9 26           ADCB 38,X
08AE:	EB 75           ADDB 117,X
08B0:	E9 00           ADCB 0,X
08B2:	C9 34           ADCB #$34
08B4:	FB 24CB         ADDB $24CB
08B7:	24 F9           BCC  $08B2
08B9:	B0 FB25         SUBA $FB25
08BC:	F9 34F1         ADCB $34F1
08BF:	B5 DB54         BITA $DB54
08C2:	DF 37           STX  $37
08C4:	DB 17           ADDB $17
08C6:	DB 77           ADDB $77
08C8:	CB 06           ADDB #$06
08CA:	CB 37           ADDB #$37
08CC:	DD              ???
08CD:	36              PSHA
08CE:	FB 67CB         ADDB $67CB
08D1:	17              TBA 
08D2:	DB 77           ADDB $77
08D4:	DF 16           STX  $16
08D6:	D7 17           STAB $17
08D8:	EB 56           ADDB 86,X
08DA:	4B              ???
08DB:	73 EF16         COM  $EF16
08DE:	FB 77F9         ADDB $77F9
08E1:	04              ???
08E2:	FB 10FB         ADDB $10FB
08E5:	34              DES 
08E6:	EB 34           ADDB 52,X
08E8:	D9 34           ADCB $34
08EA:	E9 14           ADCB 20,X
08EC:	DB 34           ADDB $34
08EE:	F9 70E9         ADCB $70E9
08F1:	34              DES 
08F2:	E9 24           ADCB 36,X
08F4:	E9 34           ADCB 52,X
08F6:	A9 A0           ADCA 160,X
08F8:	ED              ???
08F9:	24 E9           BCC  $08E4
08FB:	A5 E9           BITA 233,X
08FD:	A1 E9           CMPA 233,X
08FF:	B5 

			CONVERT 3D TO 2D ENTRY POINT

0900:   FE 010F CONV3D  LDX  IBP 	INPUT BUFFER
0903:	DF 1C           STX  INXYZ	POINT TO CURRENT INPUT 3D XYZ COORDS TO BE PROYECTED
0905:	FE 0111         LDX  OBP	OUTPUT BUFFER
0908:	DF 1E           STX  OUTXY	POINT TO CURRENT OUTPUT 2D XY COORDS ALREADY PROYECTED
090A:	CE 0106         LDX  #PV	ADDR OF PV BV HV VARIABLES (6 BYTES)
090D:	DF 3A           STX  $3A	COMPARE CONTENTS OF PV BV HV VARIABLES (6 BYTES)	
090F:	CE 0113         LDX  #$0113	   WITH MEM AT 0113 (VALUE OF VARS ON PREVIOUS IMAGE)
0912:	DF 3C           STX  $3C           IF NOT THE SAME, JMP TP 0D80 TO RECALCULATE
0914:	C6 08           LDAB #$08          TRANSFORMATION MATRIX
0916:	DE 3A           LDX  $3A           IF THEY ARE THE SAME, JUST PROCEED TO 
0918:	A6 00           LDAA 0,X           3D POINTS PROYECTION
091A:	08              INX 
091B:	DF 3A           STX  $3A
091D:	DE 3C           LDX  $3C
091F:	A0 00           SUBA 0,X
0921:	27 03           BEQ  $0926
0923:	7E 0D80         JMP  TRMCOEF	CALC TRANSFORMATION MATRIX COEFICIENTS
0926:	08              INX 
0927:	DF 3C           STX  $3C
0929:	5A              DECB
092A:	26 EA           BNE  $0916

092C:	DE 1C   PROY3D  LDX  INXYZ	PROYECT NEXT 3D SEGMENT FROM INPUT BUFFER
092E:	A6 00           LDAA 0,X	GET POIT TYPE
0930:	81 25           CMPA #$25	IS=$25?
0932:	27 10           BEQ  PRSEG1  	YES, IS A SEGMENT START POINT
0934:	81 26           CMPA #$26	IS=$26?
0936:	27 2D           BEQ  PRSEG2	YES, IS A SEGMENT END POINT
0938:	DE 1E           LDX  OUTXY	POINT TO CURRENT OUTPUT 2D XY COORDS ALREADY PROYECTED
093A:	86 04           LDAA #$04	STORE A #$04 TO MARK END OF PROYECTED POINTS LIST
093C:	A7 00           STAA 0,X
093E:	DE 1C           LDX  INXYZ	POINT TO CURRENT INPUT 3D XYZ COORDS
0940:	08              INX 
0941:	DF 1C           STX  INXYZ	POINT TO CURRENT INPUT 3D XYZ COORDS
0943:	39              RTS 

0944:	08      PRSEG1  INX 		PROCESS SEGMENT START POINT
0945:	C6 00           LDAB #$00
0947:	86 22           LDAA #$22
0949:	97 19           STAA $19
094B:	D7 18           STAB $18
094D:	BD 0300         JSR  $0300
0950:	BD 09AC         JSR  $09AC
0953:	BD 0988         JSR  $0988
0956:	BD 0A00         JSR  $0A00
0959:	BD 09AC         JSR  $09AC
095C:	96 20           LDAA $20
095E:	94 28           ANDA $28
0960:	26 CA           BNE  PROY3D	PROYECT NEXT 3D SEGMENT FROM INPUT BUFFER
0962:	7E 0AB1         JMP  $0AB1

0965:	DF 38   PRSEG2  STX  $38 	PROCESS SEGMENT END POINT
0967:	DE 32           LDX  $32
0969:	DF 22           STX  $22
096B:	DE 34           LDX  $34
096D:	DF 24           STX  $24
096F:	DE 36           LDX  $36
0971:	DF 26           STX  $26
0973:	96 30           LDAA $30
0975:	97 20           STAA $20
0977:	DE 38           LDX  $38
0979:	BD 0988         JSR  $0988
097C:	BD 09AC         JSR  $09AC
097F:	96 20           LDAA $20
0981:	94 28           ANDA $28
0983:	26 A7           BNE  PROY3D	PROYECT NEXT 3D SEGMENT FROM INPUT BUFFER
0985:	7E 0ADD         JMP  $0ADD

0988:	86 00           LDAA #$00
098A:	C6 2A           LDAB #$2A
098C:	97 18           STAA $18
098E:	D7 19           STAB $19
0990:	08              INX 
0991:	BD 0300         JSR  $0300
0994:	DF 38           STX  $38
0996:	DE 2A           LDX  $2A
0998:	DF 32           STX  $32
099A:	DE 2C           LDX  $2C
099C:	DF 34           STX  $34
099E:	DE 2E           LDX  $2E
09A0:	DF 36           STX  $36
09A2:	DE 38           LDX  $38
09A4:	BD 0A42         JSR  $0A42
09A7:	96 28           LDAA $28
09A9:	97 30           STAA $30
09AB:	39              RTS 
09AC:	08              INX 
09AD:	08              INX 
09AE:	08              INX 
09AF:	08              INX 
09B0:	08              INX 
09B1:	08              INX 
09B2:	DF 1C           STX  INXYZ	POINT TO CURRENT INPUT 3D XYZ COORDS
09B4:	39              RTS 
09B5:	35              TXS 
09B6:	F9 B0F9         ADCB $B0F9
09B9:	34              DES 
09BA:	E9 26           ADCB 38,X
09BC:	E1 36           CMPB 54,X
09BE:	E9 B4           ADCB 180,X
09C0:	DF 77           STX  $77
09C2:	FB 46DB         ADDB $46DB
09C5:	77 D157         ASR  $D157
09C8:	FF 27CF         STX  $27CF
09CB:	16              TAB 
09CC:	DB 17           ADDB $17
09CE:	4B              ???
09CF:	77 CD16         ASR  $CD16
09D2:	DD              ???
09D3:	5F              CLRB
09D4:	FB 37CF         ADDB $37CF
09D7:	37              PSHB
09D8:	DB 56           ADDB $56
09DA:	FB 57FF         ADDB $57FF
09DD:	57              ASRB
09DE:	DF 37           STX  $37
09E0:	E9 27           ADCB 39,X
09E2:	DB 24           ADDB $24
09E4:	E9 34           ADCB 52,X
09E6:	EB 34           ADDB 52,X
09E8:	E9 A4           ADCB 164,X
09EA:	E9 24           ADCB 36,X
09EC:	E9 E0           ADCB 224,X
09EE:	E9 27           ADCB 39,X
09F0:	E9 34           ADCB 52,X
09F2:	C8 B6           EORB #$B6
09F4:	EB 36           ADDB 54,X
09F6:	A9 24           ADCA 36,X
09F8:	F9 24EB         ADCB $24EB
09FB:	20 F9           BRA  $09F6
09FD:	10              SBA 
09FE:	F1 B57F         CMPB $B57F
0A01:	00              ???
0A02:	20 D6           BRA  $09DA
0A04:	22 96           BHI  $099C
0A06:	23 9B           BLS  $09A3
0A08:	27 D9           BEQ  $09E3
0A0A:	26 2C           BNE  $0A38
0A0C:	04              ???
0A0D:	86 40           LDAA #$40
0A0F:	97 20           STAA $20
0A11:	D6 26           LDAB $26
0A13:	96 27           LDAA $27
0A15:	90 23           SUBA $23
0A17:	D2 22           SBCB $22
0A19:	2C 06           BGE  $0A21
0A1B:	96 20           LDAA $20
0A1D:	8A 20           ORAA #$20
0A1F:	97 20           STAA $20
0A21:	D6 24           LDAB $24
0A23:	96 25           LDAA $25
0A25:	9B 27           ADDA $27
0A27:	D9 26           ADCB $26
0A29:	2C 06           BGE  $0A31
0A2B:	96 20           LDAA $20
0A2D:	8A 10           ORAA #$10
0A2F:	97 20           STAA $20
0A31:	D6 26           LDAB $26
0A33:	96 27           LDAA $27
0A35:	90 25           SUBA $25
0A37:	D2 24           SBCB $24
0A39:	2C 06           BGE  $0A41
0A3B:	96 20           LDAA $20
0A3D:	8A 08           ORAA #$08
0A3F:	97 20           STAA $20
0A41:	39              RTS 
0A42:	7F 0028         CLR  $0028
0A45:	D6 2A           LDAB $2A
0A47:	96 2B           LDAA $2B
0A49:	9B 2F           ADDA $2F
0A4B:	D9 2E           ADCB $2E
0A4D:	2C 04           BGE  $0A53
0A4F:	86 40           LDAA #$40
0A51:	97 28           STAA $28
0A53:	D6 2E           LDAB $2E
0A55:	96 2F           LDAA $2F
0A57:	90 2B           SUBA $2B
0A59:	D2 2A           SBCB $2A
0A5B:	2C 06           BGE  $0A63
0A5D:	96 28           LDAA $28
0A5F:	8A 20           ORAA #$20
0A61:	97 28           STAA $28
0A63:	D6 2C           LDAB $2C
0A65:	96 2D           LDAA $2D
0A67:	9B 2F           ADDA $2F
0A69:	D9 2E           ADCB $2E
0A6B:	2C 06           BGE  $0A73
0A6D:	96 28           LDAA $28
0A6F:	8A 10           ORAA #$10
0A71:	97 28           STAA $28
0A73:	D6 2E           LDAB $2E
0A75:	96 2F           LDAA $2F
0A77:	90 2D           SUBA $2D
0A79:	D2 2C           SBCB $2C
0A7B:	2C 06           BGE  $0A83
0A7D:	96 28           LDAA $28
0A7F:	8A 08           ORAA #$08
0A81:	97 28           STAA $28
0A83:	39              RTS 
0A84:	8D 06           BSR  $0A8C
0A86:	BD 0700         JSR  $0700
0A89:	8D 01           BSR  $0A8C
0A8B:	39              RTS
 
0A8C:	9F 38           STS  $38	SAVE STACK POINTER
0A8E:	DE 2A           LDX  $2A	EXCHANGE 16BITS VALUES
0A90:	9E 22           LDS  $22	USING 16 BITS REGISTERS IX AND SP
0A92:	DF 22           STX  $22	$2A <-> $22
0A94:	9F 2A           STS  $2A	$2C <-> $24
0A96:	DE 2C           LDX  $2C	$2E <-> $26
0A98:	9E 24           LDS  $24	$20 <-> $28
0A9A:	DF 24           STX  $24	VERY CLEVER! BUT NOY INTERRUPT SAFE!
0A9C:	9F 2C           STS  $2C	IF AN IRQ HAPPEDS ON THIS ROUTINE
0A9E:	DE 2E           LDX  $2E	SP WILL BE USED EVEN IF IT NOT POINTS
0AA0:	9E 26           LDS  $26	TO STACK
0AA2:	DF 26           STX  $26
0AA4:	9F 2E           STS  $2E
0AA6:	DE 28           LDX  $28
0AA8:	9E 20           LDS  $20
0AAA:	DF 20           STX  $20
0AAC:	9F 28           STS  $28
0AAE:	9E 38           LDS  $38
0AB0:	39              RTS 

0AB1:	86 0A           LDAA #$0A
0AB3:	97 42           STAA $42
0AB5:	7D 0020         TST  $0020
0AB8:	26 10           BNE  $0ACA
0ABA:	7D 0028         TST  $0028
0ABD:	27 39           BEQ  $0AF8
0ABF:	BD 0700         JSR  $0700
0AC2:	7A 0042         DEC  $0042
0AC5:	26 F3           BNE  $0ABA
0AC7:	7E 092C         JMP  PROY3D	PROYECT NEXT 3D SEGMENT FROM INPUT BUFFER
0ACA:	BD 0A84         JSR  $0A84
0ACD:	7A 0042         DEC  $0042
0AD0:	27 F5           BEQ  $0AC7
0AD2:	96 20           LDAA $20
0AD4:	27 E4           BEQ  $0ABA
0AD6:	94 28           ANDA $28
0AD8:	27 F0           BEQ  $0ACA
0ADA:	7E 092C         JMP  PROY3D	PROYECT NEXT 3D SEGMENT FROM INPUT BUFFER
0ADD:	86 0A           LDAA #$0A
0ADF:	97 42           STAA $42
0AE1:	7D 0020         TST  $0020
0AE4:	26 E4           BNE  $0ACA
0AE6:	7D 0028         TST  $0028
0AE9:	27 0A           BEQ  $0AF5
0AEB:	BD 0700         JSR  $0700
0AEE:	7A 0042         DEC  $0042
0AF1:	26 F3           BNE  $0AE6
0AF3:	20 D2           BRA  $0AC7
0AF5:	7E 062F         JMP  $062F
0AF8:	7E 0600         JMP  $0600
0AFB:	34              DES 
0AFC:	E9 35           ADCB 53,X
0AFE:	EB B5           ADDB 181,X
0B00:	EF 16           STX  22,X
0B02:	FB 56DF         ADDB $56DF
0B05:	76 EF37         ROR  $EF37
0B08:	CB 57           ADDB #$57
0B0A:	CB 76           ADDB #$76
0B0C:	DA 77           ORAB $77
0B0E:	4B              ???
0B0F:	17              TBA 
0B10:	CB 56           ADDB #$56
0B12:	FB 17EF         ADDB $17EF
0B15:	16              TAB 
0B16:	DF 27           STX  $27
0B18:	DB 57           ADDB $57
0B1A:	CB 34           ADDB #$34
0B1C:	DB 16           ADDB $16
0B1E:	DB 17           ADDB $17
0B20:	F9 67F9         ADCB $67F9
0B23:	B5 F934         BITA $F934
0B26:	FB B6E9         ADDB $B6E9
0B29:	B5 E9A5         BITA $E9A5
0B2C:	F9 36FB         ADCB $36FB
0B2F:	F6 F934         LDAB $F934
0B32:	FB 35F9         ADDB $35F9
0B35:	34              DES 
0B36:	F9 B4E8         ADCB $B4E8
0B39:	34              DES 
0B3A:	EB 36           ADDB 54,X
0B3C:	F9 24E9         ADCB $24E9
0B3F:	B5 CF56         BITA $CF56
0B42:	D9 36           ADCB $36
0B44:	EF 77           STX  119,X
0B46:	FB 57DF         ADDB $57DF
0B49:	77 DB76         ASR  $DB76
0B4C:	EA 37           ORAB 55,X
0B4E:	DB 37           ADDB $37
0B50:	FB 13D9         ADDB $13D9
0B53:	37              PSHB
0B54:	FB 769B         ADDB $769B
0B57:	74 FB37         LSR  $FB37
0B5A:	CB 57           ADDB #$57
0B5C:	EF 06           STX  6,X
0B5E:	DB 77           ADDB $77
0B60:	F9 26D9         ADCB $26D9
0B63:	34              DES 
0B64:	F9 35E9         ADCB $35E9
0B67:	35              TXS 
0B68:	EB E4           ADDB 228,X
0B6A:	C9 B7           ADCB #$B7
0B6C:	EF B5           STX  181,X
0B6E:	E9 34           ADCB 52,X
0B70:	F3              ???
0B71:	25 FD           BCS  $0B70
0B73:	73 E924         COM  $E924
0B76:	EA B4           ORAB 180,X
0B78:	F9 37E9         ADCB $37E9
0B7B:	B4 DDA4         ANDA $DDA4
0B7E:	F9 B7FB         ADCB $B7FB
0B81:	57              ASRB
0B82:	5B              ???
0B83:	76 FF37         ROR  $FF37
0B86:	CF              ???
0B87:	57              ASRB
0B88:	F9 57E9         ADCB $57E9
0B8B:	36              PSHA
0B8C:	5D              TSTB
0B8D:	36              PSHA
0B8E:	DB 26           ADDB $26
0B90:	DB 76           ADDB $76
0B92:	CB 37           ADDB #$37
0B94:	4B              ???
0B95:	57              ASRB
0B96:	DB 56           ADDB $56
0B98:	C9 07           ADCB #$07
0B9A:	DB 1E           ADDB OUTXY	POINT TO CURRENT OUTPUT 2D XY COORDS ALREADY PROYECTED
0B9C:	DB 06           ADDB $06
0B9E:	DF 3F           STX  $3F
0BA0:	0C              CLC 
0BA1:	00              ???

0BA2:	C0 40   SIN     SUBB #$40
0BA4:	5D      COS     TSTB
0BA5:	2D 21           BLT  $0BC8
0BA7:	C1 40           CMPB #$40
0BA9:	2D 11           BLT  $0BBC
0BAB:	CB 80           ADDB #$80
0BAD:	50              NEGB
0BAE:	58              ASLB
0BAF:	F7 0BA1         STAB $0BA1
0BB2:	FE 0BA0         LDX  $0BA0
0BB5:	4F              CLRA
0BB6:	5F              CLRB
0BB7:	A0 01           SUBA 1,X
0BB9:	E2 00           SBCB 0,X
0BBB:	39              RTS 
0BBC:	58              ASLB
0BBD:	F7 0BA1         STAB $0BA1
0BC0:	FE 0BA0         LDX  $0BA0
0BC3:	E6 00           LDAB 0,X
0BC5:	A6 01           LDAA 1,X
0BC7:	39              RTS 
0BC8:	50              NEGB
0BC9:	2A DC           BPL  $0BA7
0BCB:	20 E1           BRA  $0BAE
0BCD:	75              ???
0BCE:	CB 77           ADDB #$77
0BD0:	DB 37           ADDB $37
0BD2:	D9 37           ADCB $37
0BD4:	EF 26           STX  38,X
0BD6:	FD              ???
0BD7:	76 6D67         ROR  $6D67
0BDA:	D9 37           ADCB $37
0BDC:	CB 16           ADDB #$16
0BDE:	DB 37           ADDB $37
0BE0:	F9 B7F9         ADCB $B7F9
0BE3:	74 F9B7         LSR  $F9B7
0BE6:	FB 30F9         ADDB $30F9
0BE9:	74 F934         LSR  $F934
0BEC:	FB D5F9         ADDB $D5F9
0BEF:	32              PULA
0BF0:	E9 65           ADCB 101,X
0BF2:	F9 F3FB         ADCB $F3FB
0BF5:	E4 D9           ANDB 217,X
0BF7:	26 F9           BNE  $0BF2
0BF9:	35              TXS 
0BFA:	F9 35A9         ADCB $35A9
0BFD:	20 E9           BRA  $0BE8
0BFF:	81 7F           CMPA #$7F
0C01:	FF 7FF5         STX  $7FF5
0C04:	7F D77F         CLR  $D77F
0C07:	A6 7F           LDAA 127,X
0C09:	61              ???
0C0A:	7F 097E         CLR  $097E
0C0D:	9C 7E           CPX  $7E
0C0F:	1C              ???
0C10:	7D 897C         TST  $897C
0C13:	E3              ???
0C14:	7C 297B         INC  $297B
0C17:	5C              INCB
0C18:	7A 7C79         DEC  $7C79
0C1B:	89 78           ADCA #$78
0C1D:	83              ???
0C1E:	77 6B76         ASR  $6B76
0C21:	40              NEGA
0C22:	75              ???
0C23:	03              ???
0C24:	73 B572         COM  $B572
0C27:	54              LSRB
0C28:	70 E16F         NEG  $E16F
0C2B:	5E              ???
0C2C:	6D C9           TST  201,X
0C2E:	6C 23           INC  35,X
0C30:	6A 6C           DEC  108,X
0C32:	68 A5           ASL  165,X
0C34:	66 CE           ROR  206,X
0C36:	64 E7           LSR  231,X
0C38:	62              ???
0C39:	F1 60EB         CMPB $60EB
0C3C:	5E              ???
0C3D:	D6 5C           LDAB $5C
0C3F:	B3              ???
0C40:	5A              DECB
0C41:	81 58           CMPA #$58
0C43:	42              ???
0C44:	55              ???
0C45:	F4 539A         ANDB $539A
0C48:	51              ???
0C49:	33              PULB
0C4A:	4E              ???
0C4B:	BF 4C3F         STS  $4C3F
0C4E:	49              ROLA
0C4F:	B3              ???
0C50:	47              ASRA
0C51:	1C              ???
0C52:	44              LSRA
0C53:	7A 41CD         DEC  $41CD
0C56:	3F              SWI 
0C57:	16              TAB 
0C58:	3C              ???
0C59:	56              RORB
0C5A:	39              RTS 
0C5B:	8C 36B9         CPX  #$36B9
0C5E:	33              PULB
0C5F:	DE 30           LDX  $30
0C61:	FB 2E10         ADDB $2E10
0C64:	2B 1F           BMI  $0C85
0C66:	28 26           BVC  $0C8E
0C68:	25 27           BCS  $0C91
0C6A:	22 23           BHI  $0C8F
0C6C:	1F              ???
0C6D:	19              DAA 
0C6E:	1C              ???
0C6F:	0B              SEV 
0C70:	18              ???
0C71:	F9 15E1         ADCB $15E1
0C74:	12              ???
0C75:	C7              ???
0C76:	0F              SEI 
0C77:	AB 0C           ADDA 12,X
0C79:	8C 096A         CPX  #$096A
0C7C:	06              TAP 
0C7D:	47              ASRA
0C7E:	03              ???
0C7F:	24 00           BCC  $0C81
0C81:	00              ???
0C82:	B7 9CBF         STAA $9CBF
0C85:	94 3F           ANDA $3F
0C87:	DC              ???
0C88:	BF 9CBE         STS  $9CBE
0C8B:	95 BE           BITA $BE
0C8D:	96 37           LDAA $37
0C8F:	9E F6           LDS  $F6
0C91:	4E              ???
0C92:	3F              SWI 
0C93:	84 B7           ANDA #$B7
0C95:	9D              ???
0C96:	BE 94B7         LDS  $94B7
0C99:	84 A6           ANDA #$A6
0C9B:	DF BE           STX  $BE
0C9D:	95 B6           BITA $B6
0C9F:	A4 77           ANDA 119,X
0CA1:	40              NEGA
0CA2:	63 C5           COM  197,X
0CA4:	77 4968         ASR  $4968
0CA7:	40              NEGA
0CA8:	67 C0           ASR  192,X
0CAA:	66 41           ROR  65,X
0CAC:	24 40           BCC  $0CEE
0CAE:	63 4C           COM  76,X
0CB0:	66 41           ROR  65,X
0CB2:	67 40           ASR  64,X
0CB4:	60 C0           NEG  192,X
0CB6:	66 41           ROR  65,X
0CB8:	62              ???
0CB9:	C0 67           SUBB #$67
0CBB:	40              NEGA
0CBC:	61              ???
0CBD:	00              ???
0CBE:	67 45           ASR  69,X
0CC0:	BF 8F3D         STS  $8F3D
0CC3:	96 BE           LDAA $BE
0CC5:	97 B7           STAA $B7
0CC7:	84 B7           ANDA #$B7
0CC9:	45              ???
0CCA:	B7 94B7         STAA $94B7
0CCD:	9D              ???
0CCE:	3F              SWI 
0CCF:	DD              ???
0CD0:	F6 C626         LDAB $C626
0CD3:	87              ???
0CD4:	37              PSHB
0CD5:	D6 2E           LDAB $2E
0CD7:	96 76           LDAA $76
0CD9:	9E B6           LDS  $B6
0CDB:	D7 3E           STAB $3E
0CDD:	DA AF           ORAB $AF
0CDF:	D6 76           LDAB $76
0CE1:	49              ROLA
0CE2:	77 4066         ASR  $4066
0CE5:	4D              TSTA
0CE6:	67 41           ASR  65,X
0CE8:	25 44           BCS  $0D2E
0CEA:	2F 4C           BLE  $0D38
0CEC:	75              ???
0CED:	40              NEGA
0CEE:	67 41           ASR  65,X
0CF0:	67 48           ASR  72,X
0CF2:	67 49           ASR  73,X
0CF4:	65              ???
0CF5:	40              NEGA
0CF6:	73 452E         COM  $452E
0CF9:	48              ASLA
0CFA:	62              ???
0CFB:	40              NEGA
0CFC:	61              ???
0CFD:	41              ???
0CFE:	67 45           ASR  69,X
0D00:	BE 8CBE         LDS  $8CBE
0D03:	94 BE           ANDA $BE
0D05:	9C 3F           CPX  $3F
0D07:	8C 3F9F         CPX  #$3F9F
0D0A:	3E              WAI 
0D0B:	9C F6           CPX  $F6
0D0D:	86 AE           LDAA #$AE
0D0F:	8D B7           BSR  $0CC8
0D11:	8C B7CC         CPX  #$B7CC
0D14:	B5 C4BE         BITA $C4BE
0D17:	DC              ???
0D18:	AE DC           LDS X 220,X
0D1A:	BE DF37         LDS  $DF37
0D1D:	9C BF           CPX  $BF
0D1F:	4C              INCA
0D20:	62              ???
0D21:	45              ???
0D22:	65              ???
0D23:	51              ???
0D24:	6D 43           TST  67,X
0D26:	33              PULB
0D27:	45              ???
0D28:	67 41           ASR  65,X
0D2A:	6B              ???
0D2B:	D1 67           CMPB $67
0D2D:	44              LSRA
0D2E:	69 49           ROL  73,X
0D30:	62              ???
0D31:	45              ???
0D32:	6F 40           CLR  64,X
0D34:	67 40           ASR  64,X
0D36:	66 40           ROR  64,X
0D38:	61              ???
0D39:	40              NEGA
0D3A:	27 81           BEQ  $0CBD
0D3C:	22 41           BHI  $0D7F
0D3E:	2C 44           BGE  $0D84
0D40:	BF D53F         STS  $D53F
0D43:	9D              ???
0D44:	3F              SWI 
0D45:	95 BF           BITA $BF
0D47:	8E BE85         LDS  #$BE85
0D4A:	B7 083E         STAA $083E
0D4D:	8D BE           BSR  $0D0D
0D4F:	DE BE           LDX  $BE
0D51:	5C              INCB
0D52:	B6 CDB7         LDAA $CDB7
0D55:	8E B686         LDS  #$B686
0D58:	B6 D6B6         LDAA $D6B6
0D5B:	1C              ???
0D5C:	B7 5DB6         STAA $5DB6
0D5F:	7C 7ED9         INC  $7ED9
0D62:	67 40           ASR  64,X
0D64:	EF 88           STX  136,X
0D66:	7B              ???
0D67:	44              LSRA
0D68:	77 4861         ASR  $4861
0D6B:	41              ???
0D6C:	64 48           LSR  72,X
0D6E:	63 45           COM  69,X
0D70:	71              ???
0D71:	40              NEGA
0D72:	63 C0           COM  192,X
0D74:	66 40           ROR  64,X
0D76:	66 44           ROR  68,X
0D78:	21              ???
0D79:	41              ???
0D7A:	27 C4           BEQ  $0D40
0D7C:	76 4160         ROR  $4160
0D7F:	45              ???

			CALC TRANSFORMATION MATRIX COEFICIENTS

0D80:	F6 0107 TRMCOEF LDAB PV+1 	VIEWER PITCH ANGLE (LOW PART)
0D83:	F7 0114         STAB $0114
0D86:	BD 0BA2         JSR  SIN
0D89:	D7 20           STAB $20
0D8B:	97 21           STAA $21
0D8D:	F6 0109         LDAB BV+1 	VIEWER BANK ANGLE
0D90:	F7 0116         STAB $0116
0D93:	BD 0BA2         JSR  SIN
0D96:	D7 22           STAB $22
0D98:	97 23           STAA $23
0D9A:	F6 010B         LDAB HV+1 	VIEWER HEADING ANGLE
0D9D:	F7 0118         STAB $0118
0DA0:	BD 0BA2         JSR  SIN
0DA3:	D7 24           STAB $24
0DA5:	97 25           STAA $25
0DA7:	F6 0107         LDAB PV+1 	VIEWER PITCH ANGLE (LOW PART)
0DAA:	BD 0BA4         JSR  COS
0DAD:	D7 26           STAB $26
0DAF:	97 27           STAA $27
0DB1:	F6 0109         LDAB BV+1 	VIEWER BANK ANGLE
0DB4:	BD 0BA4         JSR  COS
0DB7:	D7 28           STAB $28
0DB9:	97 29           STAA $29
0DBB:	F6 010B         LDAB HV+1 	VIEWER HEADING ANGLE
0DBE:	BD 0BA4         JSR  COS
0DC1:	D7 2A           STAB $2A
0DC3:	97 2B           STAA $2B
0DC5:	DE 28           LDX  $28
0DC7:	BD 0200         JSR  $0200
0DCA:	D7 2C           STAB $2C
0DCC:	97 2D           STAA $2D
0DCE:	DE 22           LDX  $22
0DD0:	D6 24           LDAB $24
0DD2:	96 25           LDAA $25
0DD4:	BD 0200         JSR  $0200
0DD7:	D7 2E           STAB $2E
0DD9:	97 2F           STAA $2F
0DDB:	D6 2A           LDAB $2A
0DDD:	96 2B           LDAA $2B
0DDF:	BD 020D         JSR  $020D
0DE2:	D7 30           STAB $30
0DE4:	97 31           STAA $31
0DE6:	DE 24           LDX  $24
0DE8:	D6 28           LDAB $28
0DEA:	96 29           LDAA $29
0DEC:	BD 0200         JSR  $0200
0DEF:	D7 32           STAB $32
0DF1:	97 33           STAA $33
0DF3:	DE 20           LDX  $20
0DF5:	D6 2E           LDAB $2E
0DF7:	96 2F           LDAA $2F
0DF9:	BD 0200         JSR  $0200
0DFC:	D7 34           STAB $34
0DFE:	97 35           STAA $35
0E00:	D6 32           LDAB $32
0E02:	96 33           LDAA $33
0E04:	BD 020D         JSR  $020D
0E07:	D7 36           STAB $36
0E09:	97 37           STAA $37
0E0B:	D6 30           LDAB $30
0E0D:	96 31           LDAA $31
0E0F:	BD 020D         JSR  $020D
0E12:	D7 3A           STAB $3A
0E14:	97 3B           STAA $3B
0E16:	D6 2C           LDAB $2C
0E18:	96 2D           LDAA $2D
0E1A:	BD 020D         JSR  $020D
0E1D:	D7 3C           STAB $3C
0E1F:	97 3D           STAA $3D
0E21:	D6 2C           LDAB $2C
0E23:	96 2D           LDAA $2D
0E25:	9B 35           ADDA $35
0E27:	D9 34           ADCB $34
0E29:	D7 06           STAB T1		TRANSFORMATION MATRIX COEFFICIENT 
0E2B:	97 07           STAA T1+1
0E2D:	D6 36           LDAB $36
0E2F:	96 37           LDAA $37
0E31:	90 31           SUBA $31
0E33:	D2 30           SBCB $30
0E35:	97 09           STAA T2+1
0E37:	D7 08           STAB T2		TRANSFORMATION MATRIX COEFFICIENT 
0E39:	D6 24           LDAB $24
0E3B:	96 25           LDAA $25
0E3D:	DE 26           LDX  $26
0E3F:	BD 0200         JSR  $0200
0E42:	D7 0A           STAB T3		TRANSFORMATION MATRIX COEFFICIENT 
0E44:	97 0B           STAA T3+1
0E46:	D6 22           LDAB $22
0E48:	96 23           LDAA $23
0E4A:	BD 020D         JSR  $020D
0E4D:	D7 0C           STAB T4		TRANSFORMATION MATRIX COEFFICIENT 
0E4F:	97 0D           STAA T4+1
0E51:	D6 28           LDAB $28
0E53:	96 28           LDAA $28
0E55:	BD 020D         JSR  $020D
0E58:	D7 0E           STAB T5		TRANSFORMATION MATRIX COEFFICIENT 
0E5A:	97 0F           STAA T5+1
0E5C:	4F              CLRA
0E5D:	5F              CLRB
0E5E:	90 21           SUBA $21
0E60:	D2 20           SBCB $20
0E62:	D7 10           STAB T6		TRANSFORMATION MATRIX COEFFICIENT 
0E64:	97 11           STAA T6+1
0E66:	D6 3A           LDAB $3A
0E68:	96 3B           LDAA $3B
0E6A:	90 33           SUBA $33
0E6C:	D2 32           SBCB $32
0E6E:	D7 12           STAB T7		TRANSFORMATION MATRIX COEFFICIENT 
0E70:	97 13           STAA T7+1
0E72:	D6 2E           LDAB $2E
0E74:	96 2F           LDAA $2F
0E76:	9B 3D           ADDA $3D
0E78:	D9 3C           ADCB $3C
0E7A:	D7 14           STAB T8		TRANSFORMATION MATRIX COEFFICIENT 
0E7C:	97 15           STAA T8+1
0E7E:	D6 2A           LDAB $2A
0E80:	96 2B           LDAA $2B
0E82:	BD 020D         JSR  $020D
0E85:	D7 16           STAB T9		TRANSFORMATION MATRIX COEFFICIENT 
0E87:	97 17           STAA T9+1
0E89:	FE 010C         LDX  $010C
0E8C:	FF 0119         STX  $0119
0E8F:	D6 0A           LDAB T3		TRANSFORMATION MATRIX COEFFICIENT 
0E91:	96 0B           LDAA T3+1
0E93:	BD 0200         JSR  $0200
0E96:	D7 0A           STAB T3		TRANSFORMATION MATRIX COEFFICIENT 
0E98:	97 0B           STAA T3+1
0E9A:	D6 10           LDAB T6		TRANSFORMATION MATRIX COEFFICIENT 
0E9C:	96 11           LDAA T6+1
0E9E:	BD 020D         JSR  $020D
0EA1:	97 11           STAA T6+1
0EA3:	D7 10           STAB T6
0EA5:	D6 16           LDAB T9		TRANSFORMATION MATRIX COEFFICIENT 
0EA7:	96 17           LDAA T9+1
0EA9:	BD 020D         JSR  $020D
0EAC:	D7 16           STAB T9
0EAE:	97 17           STAA T9+1
0EB0:	7E 092C         JMP  PROY3D	PROYECT NEXT 3D SEGMENT FROM INPUT BUFFER
0EB3:	44              LSRA
0EB4:	37              PSHB
0EB5:	44              LSRA
0EB6:	AE 45           LDS X 69,X
0EB8:	66 41           ROR  65,X
0EBA:	60 40           NEG  64,X
0EBC:	23 40           BLS  $0EFE
0EBE:	75              ???
0EBF:	C5 B6           BITB #$B6
0EC1:	9C FE           CPX  $FE
0EC3:	9C B7           CPX  $B7
0EC5:	9C BF           CPX  $BF
0EC7:	0C              CLC 
0EC8:	BF D43E         STS  $D43E
0ECB:	8D B6           BSR  $0E83
0ECD:	8C B7CD         CPX  #$B7CD
0ED0:	BE 8EBE         LDS  $8EBE
0ED3:	8C FF9C         CPX  #$FF9C
0ED6:	BE 96BE         LDS  $96BE
0ED9:	DD              ???
0EDA:	B6 5CB7         LDAA $5CB7
0EDD:	86 A6           LDAA #$A6
0EDF:	DF 6E           STX  $6E
0EE1:	C1 63           CMPB #$63
0EE3:	D0 67           SUBB $67
0EE5:	40              NEGA
0EE6:	63 CC           COM  204,X
0EE8:	66 44           ROR  68,X
0EEA:	75              ???
0EEB:	C5 E7           BITB #$E7
0EED:	45              ???
0EEE:	66 C4           ROR  196,X
0EF0:	6F 58           CLR  88,X
0EF2:	E5 CD           BITB 205,X
0EF4:	66 47           ROR  71,X
0EF6:	76 4D66         ROR  $4D66
0EF9:	41              ???
0EFA:	65              ???
0EFB:	40              NEGA
0EFC:	21              ???
0EFD:	40              NEGA
0EFE:	66 45           ROR  69,X
0F00:	A0 A0           SUBA 160,X
0F02:	A0 A0           SUBA 160,X
0F04:	A0 A0           SUBA 160,X
0F06:	A0 A0           SUBA 160,X
0F08:	A0 A0           SUBA 160,X
0F0A:	A0 A0           SUBA 160,X
0F0C:	A0 A0           SUBA 160,X
0F0E:	A0 A0           SUBA 160,X
