Logging to file "console.txt"


$D SWTPC V1.0 (C) 1977

FDOS READY
CAT
$DOS     $COPY    $PACK    
$BASIC   $CORES   
SECTORS REMAINING (HEX)  00FE 

FDOS READY
FILES
$DOS     00 00 14 11 2400 2FFF 2600 
$COPY    03 00 03 11 0100 03FF 0100 
$PACK    03 03 02 11 0100 02FF 0100 
$BASIC   03 05 23 11 0100 23FF 0100 
$CORES   07 00 24 11 00D0 23FF 0100 

SECTORS REMAINING (HEX)  00FE 

FDOS READY
FILES 1
$DOS     00 00 14 00 2400 2FFF 2600 
FACT     03 00 03 55 2720 2869 6E00 
PLANETS1 03 03 0D 55 2720 30A6 6E00 
SIMULAT1 04 06 03 55 2720 284D 6E00 
FSTFOUR1 04 09 11 55 2720 3367 6E00 
LIFE/B   06 06 0C 55 2720 2F7B 6E00 
FUNCTAPX 07 08 0B 55 2720 2E37 6E00 
BASECONV 08 09 06 55 2720 2A1E 6E00 
LEASTSQ1 09 05 09 55 2720 2DEF 6E00 
FOURIER2 0A 04 08 55 2720 2C9C 6E00 
CHEBYCH  0B 02 0B 55 2720 2EA6 6E00 
MAUS     0C 03 02 55 2720 2752 6E00 
SONNE1   0C 05 10 55 2720 32A3 6E00 
POLYFIT  0E 01 15 55 2720 36DE 6E00 
INTEGRAL 10 02 08 55 2720 2C1B 6E00 
RANDOM   11 00 02 55 2720 276A 6E00 
ORBITALS 11 02 0C 55 2720 2FDD 6E00 
CALENDAR 12 04 06 55 2720 2ADF 6E00 
WAVES    13 00 09 55 2720 2D7B 6E00 
FINANCE  13 09 38 55 2720 527D 6E00 
LUCAS    19 05 07 55 2720 2BDE 6E00 
SCORE68  1A 02 08 55 3900 3EC0 6E00 
CIRCANAL 1B 00 0D 55 2B25 3454 6E00 
ORBITS/2 1C 03 06 55 2720 2A80 6E00 
OSCAR7   1C 09 0D 55 2720 30B4 6E00 
VIELECK  1E 02 04 55 2820 2A00 6E00 
SLOTMACH 1E 06 0E 55 2720 319D 6E00 
BIORHYTM 20 00 0B 55 2720 2E3D 6E00 
ORBIT    21 01 06 55 2720 2AB1 6E00 
OSCARORB 21 07 02 55 2720 2720 6E00 
ORBITS/5 21 09 06 55 2720 2AC3 6E00 

SECTORS REMAINING (HEX)  000F 

FDOS READY
BASIC

READY
#LOAD 1,FACT

READY
#LIST

0005 PRINT "LARGE FACTORIAL MULTIPLE PRECISION CALCULATION"
0010 INPUT L
0020 DIM F(L)
0030 PRINT "ENTER NUMBER"
0035 INPUT N
0040 FOR I= 2 TO L
0050  F(I)=0
0060 NEXT I
0070  F(1)=1
0080 FOR M= 1 TO N
0090  C=0
0100 FOR I= 1 TO L-1
0110  F(I)=F(I)*M+C
0120  C=INT(F(I)/10)
0130  F(I)=F(I)-10*C
0140 NEXT I
0150 NEXT M
0160 FOR I=L TO 1 STEP -1
0170 PRINT F(I);
0180 IF INT(1/15)=I/15 THEN PRINT
0190 NEXT I

READY
#RUN
LARGE FACTORIAL MULTIPLE PRECISION CALCULATION
? 10
ENTER NUMBER
? 12
0 4 7 9 0 0 1 6 0 0 
READY
#DOS
SWTPC V1.0 (C) 1977

FDOS READY
FILES 1
$DOS     00 00 14 11 2400 2FFF 2400 
$BASIC   03 00 2C 11 0100 23FF 0100 
CHEKSUM  07 04 02 22 4000 407F 4000 
ORBITS/1 07 06 03 55 2720 297C 6E00 
OSCAR7/1 07 09 0C 55 2720 30B4 6E00 
KITBUG   09 01 04 22 6100 6300 6100 
ORBITS/2 09 05 06 55 2720 2A80 6E00 
BIORHYTM 0A 01 0B 55 2720 2E35 6E00 
LOGAN    0B 02 08 55 2720 2CBA 6E00 
TICKTAPE 0C 00 04 55 2720 28A8 6E00 
LOGANAL  0C 04 0C 55 2B25 3454 6E00 
TINY-ASS 0D 06 16 22 0100 1100 0100 
FLOPPY   0F 08 0C 77 2380 2B14 3430 
INTFACE  11 00 02 22 0100 01FD 2600 
PERMSTRI 11 02 04 55 2720 29E2 6E00 
BASBIO   11 06 0C 55 2720 2FBD 6E00 
SORTALG  12 08 07 55 2720 2DE9 6E00 
CHEBYCHE 13 05 0B 55 2720 2E7B 6E00 
HEX      14 06 04 55 2720 2925 6E00 
HEXAGON  15 00 0C 55 2720 2F95 6E00 
HERMAN   16 02 09 55 2720 2DC6 6E00 
WOODRUM  17 01 09 55 2720 2DE9 6E00 
COMPLEXW 18 00 1B 55 2720 3CB3 6E00 
GRAPH    1A 07 07 77 2380 27F2 3930 
REIS     1B 04 02 22 2721 27B6 2600 
SENS/5   1B 06 02 55 2820 28E3 6E00 
VIELECK1 1B 08 03 55 2820 2A18 6E00 
VIELEXK1 1C 01 04 55 2820 2A00 6E00 
SLOT/PAT 1C 05 0E 55 2720 319D 6E00 
PROJECT1 1D 09 06 55 2720 2B77 6E00 
LTB/S    1E 05 09 77 2380 294D 3930 
LTB/H    1F 04 02 22 2F50 3001 2F50 
PTB/S    1F 06 08 77 2380 2877 3930 
PTB/H    20 04 02 22 2F6F 3000 2F6F 
         20 06 18 22 2F6F 3000 2F6F 
GRMATTRA 23 00 03 55 2720 2887 6E00 
LIFE/HX  23 03 03 22 1A48 1BCB 2600 

SECTORS REMAINING (HEX)  0004 

FDOS READY
CORES

READY
LOAD 1,GRAPH

READY
LIST

0010  NAM GRAPH
0020  OPT NOP,S
0030  ORG $2721
0040 PIA EQU $800C
0050 USER EQU $1DB8
0060 START LDAA USER
0070  LDAB USER
0080  ABA
0090  ABA
0100  ABA
0110  ABA
0120  ABA
0130 ONE LDX *
0140  STX ONGT
0150  ADDA ONGT+1
0160  ADDA #20
0170  STAA ONGT+1
0180  LDX ONGT
0190  JMP 0,X
0200 TWO JMP ERASE
0210 HPOS RMB 1
0220 VPOS RMB 1
0230  NOP
0240  LDAA #$40
0250  JMP PT
0260  NOP
0270  CLRA
0280  CLRB
0290  JMP PT
0300  NOP
0310  LDAA #$E1
0320  JSR OUT
0330  RTS
0340  LDAA #$E0
0350  JSR OUT
0360  RTS
0370  LDAA #$E3
0380  JSR OUT
0390  RTS
0400  LDAA #$E2
0410  JSR OUT
0420  RTS
0430  LDAA #$E4 
0440  JSR OUT
0450  RTS
0460  LDAA #$E5
0470  JSR OUT 
0480  RTS
0490 PT ADDA USER+1
0500  JSR OUT
0510  LDAA #$80
0520  ADDA USER+2
0530  JSR OUT
0540  RTS
0550 ERASE LDAA HPOS
0560  CMPA #$40
0570  BEQ FIN
0580  JSR OUT
0590 ERASEV LDAA VPOS
0600  ADDA #$80
0610  JSR OUT
0620  INC VPOS
0630  BRA ERASEV
0640 NHPOS CLRA
0650  STAA VPOS
0660  INC HPOS
0670  BRA ERASE
0680 FIN CLRA
0690  STAA HPOS
0700  RTS
0710 OUT STAA PIA
0720  LDAB #$37
0730  STAB PIA+1
0740  NOP
0750  NOP
0760  LDAB #$3F
0770  RTS
0780 ONGT RMB 2
0790  END

READY
ASM
ENTER PASS : 1P,2P,2L,2T
1PENTER PASS : 1P,2P,2L,2T
2L




---



PAGE  001   GRAPH             




00010                     NAM    GRAPH 
00020                     OPT    NOP,S 
00030 2721                ORG    $2721 
00040      800C    PIA    EQU    $800C 
00050      1DB8    USER   EQU    $1DB8 
00060 2721 B6 1DB8 START  LDA A  USER 
00070 2724 F6 1DB8        LDA B  USER 
00080 2727 1B             ABA             
00090 2728 1B             ABA             
00100 2729 1B             ABA             
00110 272A 1B             ABA             
00120 272B 1B             ABA             
00130 272C FE 272C ONE    LDX    * 
00140 272F FF 27B6        STX    ONGT 
00150 2732 BB 27B7        ADD A  ONGT+1 
00160 2735 8B 14          ADD A  #20 
00170 2737 B7 27B7        STA A  ONGT+1 
00180 273A FE 27B6        LDX    ONGT 
00190 273D 6E 00          JMP    0,X 
00200 273F 7E 2784 TWO    JMP    ERASE 
00210 2742 0001    HPOS   RMB    1 
00220 2743 0001    VPOS   RMB    1 
00230 2744 01             NOP             
00240 2745 86 40          LDA A  #$40 
00250 2747 7E 2775        JMP    PT 
00260 274A 01             NOP             
00270 274B 4F             CLR A           
00280 274C 5F             CLR B           
00290 274D 7E 2775        JMP    PT 
00300 2750 01             NOP             
00310 2751 86 E1          LDA A  #$E1 
00320 2753 BD 27A9        JSR    OUT 
00330 2756 39             RTS             
00340 2757 86 E0          LDA A  #$E0 
00350 2759 BD 27A9        JSR    OUT 
00360 275C 39             RTS             
00370 275D 86 E3          LDA A  #$E3 
00380 275F BD 27A9        JSR    OUT 
00390 2762 39             RTS             
00400 2763 86 E2          LDA A  #$E2 
00410 2765 BD 27A9        JSR    OUT 
00420 2768 39             RTS             
00430 2769 86 E4          LDA A  #$E4     
00440 276B BD 27A9        JSR    OUT 
00450 276E 39             RTS             
00460 276F 86 E5          LDA A  #$E5 
00470 2771 BD 27A9        JSR    OUT      
00480 2774 39             RTS             
00490 2775 BB 1DB9 PT     ADD A  USER+1 
00500 2778 BD 27A9        JSR    OUT 
00510 277B 86 80          LDA A  #$80 
00520 277D BB 1DBA        ADD A  USER+2 
00530 2780 BD 27A9        JSR    OUT 
00540 2783 39             RTS             
00550 2784 B6 2742 ERASE  LDA A  HPOS 
00560 2787 81 40          CMP A  #$40 
00570 2789 27 19          BEQ    FIN 
00580 278B BD 27A9        JSR    OUT 
00590 278E B6 2743 ERASEV LDA A  VPOS 
00600 2791 8B 80          ADD A  #$80 
00610 2793 BD 27A9        JSR    OUT 
00620 2796 7C 2743        INC    VPOS 
00630 2799 20 F3          BRA    ERASEV 
00640 279B 4F      NHPOS  CLR A           
00650 279C B7 2743        STA A  VPOS 
00660 279F 7C 2742        INC    HPOS 
00670 27A2 20 E0          BRA    ERASE 
00680 27A4 4F      FIN    CLR A           
00690 27A5 B7 2742        STA A  HPOS 
00700 27A8 39             RTS             
00710 27A9 B7 800C OUT    STA A  PIA 
00720 27AC C6 37          LDA B  #$37 
00730 27AE F7 800D        STA B  PIA+1 
00740 27B1 01             NOP             
00750 27B2 01             NOP             
00760 27B3 C6 3F          LDA B  #$3F 
00770 27B5 39             RTS             
00780 27B6 0002    ONGT   RMB    2 
00790                     END             
IA    800C

SER   1DB8

TART  2721

NE    272C

WO    273F

POS   2742

POS   2743

T     2775

RASE  2784

RASEV 278E

HPOS  279B

IN    27A4

UT    27A9

NGT   27B6


TOTAL ERRORS 00000
ENTER PASS : 1P,2P,2L,2T
X
READY

PATCH

$D SWTPC V1.0 (C) 1977

FDOS READY
