CORE   030000 
.SCOP  036306 
.SCO   036324 
LWAM   036324 
SCOPE  036325 
NEXT   036354 
CONT1  036362 
CP1    036400 
UNON   036421 
CONT2  036423 
NXOUT  036437 
I.1    036440 
XINC   036452 
NXTAB  036454 
SPA    036467 
RM     036476 
CR     036507 
LF     036514 
LF1    036526 
CONTL  036532 
WAIT   036542 
ERASE  036552 
I.2    036555 
INITL  036560 
.INTL  036567 
TTLST  036570 
.100   036571 
.3500  036572 
.177   036573 
..140  036574 
.37    036575 
..37   036576 
.3     036577 
.1774  036600 
.3401  036601 
.375   036602 
.3403  036603 
.3400  036604 
.1200  036605 
.1740  036606 
.1720  036607 
CNT16  036610 
CNT8   036611 
CCNT   036612 
CRT    036613 
LFD    036614 
BKAR   036615 
A      000000 
B      000001 
M77    036616 
M8     036617 
M16    036620 
XMSK   036621 
YMSK   036622 
BUFR   036623 
BUFL   036624 
DOT    036625 
.DOT   036626 
CHRCD  036627 
CHRND  036630 
TABLE  036631 
EXCL   036640 
QUOTE  036643 
POUND  036646 
DOLR   036651 
PRCNT  036654 
AMP    036657 
APOST  036662 
OPRN   036665 
CPRN   036670 
AST    036673 
PLUS   036676 
COMMA  036701 
MINUS  036704 
PER    036707 
DIV    036712 
ZERO   036715 
ONEE   036720 
TWOE   036723 
FIVE   036734 
SIX    036737 
SEVEN  036742 
EIGHT  036745 
NINE   036750 
COLON  036753 
SEMI   036756 
AROW1  036761 
EQUAL  036764 
AROW2  036767 
QUES   036772 
AT     036775 
AEE    037000 
BEE    037003 
C      037006 
D      037011 
E      037014 
F      037017 
G      037022 
H      037025 
I      037030 
J      037033 
K      037036 
L      037041 
M      037044 
N      037047 
O      037052 
P      037055 
Q      037060 
R      037063 
S      037066 
T      037071 
U      037074 
V      037077 
W      037102 
X      037105 
Y      037110 
Z      037113 
OBRAK  037116 
SLANT  037121 
BRAK2  037124 
UPARO  037127 
BKARO  037132 
* ASMB,A,L,T,Z,C
* 
* 
********************************************************************
* 
* 
*                   SYSTEM SCOPE DRIVER 
* 
*     THIS DRIVER WILL PROVIDE LIST OUTPUT FUNCTIONS ON A STORAGE 
*      SCOPE OR TTY WHEN ENTERED FROM SOFTWARE USING THE STANDARD 
*      SIO FORMAT.
* 
* 
* 
*   1. PROGRAM TYPE: ABSOLUTE ASSEMBLY LANGUAGE 
* 
*   2. CALLING SEQUENCE:
* 
*               JSB 102,I 
* 
* 
*        ENTER WITH:
* 
*              (A)= LENGTH OF DATA BUFFER  IN ASCII CHARACTERS
* 
*                A>0  NUMBER OF ASCII CHARACTERS
*                A=0  OUTPUT "RETURN LINE FEED" 
*                A=-1  ERASE  GO TO TOP OF PAGE ON NEXT OUTPUT
*                A<-1  IGNORED
* 
* 
*              (B)= STARTING ADDRESS OF DATA BUFFER 
* 
* 
*        SET SWITCH REGISTER OPTIONS: 
* 
*               8 UP (1) SCOPE LIST OUTPUT
*               8 DOWN (0) TTY LIST OUTPUT
* 
*               7 UP (1) OUTPUT 1 PAGE, AND HOLD
*               7 DOWN (0) OUTPUT 1 PAGE, WAIT 1 SEC., ERASE,REPEAT 
* 
*          * NOTE: SWITCH 7 MUST BE 0 TO RETURN TO TTY LIST FROM
*                  SCOPE LIST.
* 
*   3. REQUIREMENTS:
* 
*            1)  A TTY SIO DRIVER MUST BE LOADED IF SWITCH
*                NO. 8 IS EVER IN THE DOWN (0) POSITION.
*            2)  THE FOLLOWING SOFTWARE IS OPTIONAL:
* 
*                SIO DRIVERS--LINEPRINTER 
*                             PHOTOREADER 
*                             PUNCH 
*                             SIO DUMP
* 
*                PROGRAMS--ASSEMBLER
*                          ALGOL
*                          FORTRAN
*                          EDITOR 
*                          CROSS REFERENCE GENERATOR
*                          ETC. 
* 
*            3)  8K OR 16K CORE 
* 
*   4. INITIALIZATION 
* 
*           1)  LOAD ADDRESS 2B 
*           2)  SET SWITCH REGISTER= SCOPE I/O SLOT 
*           3)  PRESS PRESET, RUN 
*           4)  CHECK FOR HLT 77B AND SCOPE I/O SELECT CODE IN B-REG. 
* 
* 
*       INITILIZATION REMOVES THE LIST ENTRY POINT FROM LOCATION
*          102B, STORES IT IN "TTLST" AND REPLACES IT WITH
*          THE ADDRESS OF "SCOPE".
* 
* 
* 
*   5. NOTES: 
* 
* 
*           1) THIS DRIVER IS LOADED UNDER THE PUNCH SIO DRIVER 
*              AND THEREFORE MUST NOT BE USED WITH MAG. TAPE, DOS, AND D
*              SYSTEMS OR OTHER SYSTEMS WHICH USE THIS AREA.
*            2) ASSEMBLE AS FOLLOWS:
* 
*               8K CORE  ASMB,A,B,L,T,N 
*               16K CORE ASMB,A,B,L,T,Z 
* 
* 
* 
*   6. REV A  9-20-71    JIM MILLER  HP MED 
* 
* 
******************************************************************* 
  00002               ORG 2B
  00002 124003        JMP 3,I       CONFIGURATION LINKAGE 
  00003 036306        DEF .SCOP 
  00106               ORG 106B
  00106 036324        DEF LWAM      SET UP LAST WORD AVAILABLE MEMORY 
  30000         CORE  EQU 30000B
  36306               ORG CORE+6306B
  36306 102501  .SCOP LIA 1         GET SCOPE I/O SLOT NUMBER 
  36307 012616        AND M77       MASK IT 
  36310 042555        ADA I.2      CONFIGURE CLF INSTRUCTION
  36311 072555        STA I.2       STORE IT
  36312 042572        ADA .3500     MAKE OTB INSTRUCTION
  36313 072440        STA I.1       STORE IT
  36314 064102        LDB 102B      GET LIST ENTRY POINT
  36315 076570        STB TTLST     SAVE IT 
  36316 066324        LDB .SCO      GET SCOPE ENTRY POINT 
  36317 074102        STB 102B      PUT IT IN LIST DRIVER ENTRY POINT 
  36320 106501        LIB 1 
  36321 003400        CCA 
  36322 102077        HLT 77B       END OF CONFIGURATION SECTION
  36323 026322        JMP *-1 
  36324 036325  .SCO  DEF SCOPE 
  36324         LWAM  EQU *-1 
                      SPC 2 
  36325 000000  SCOPE NOP           SCOPE LIST ENTRY POINT
  36326 076623        STB BUFR      SAVE DATA BUFFER ADDRESS
  36327 106501        LIB 1B        LOAD SWITCH REG.
  36330 005722        BLF,RBL 
  36331 005222        RBL,RBL 
  36332 006020        SSB           CHECK SWITCH NO. 8
  36333 026337        JMP *+4       SWITCH 8 UP (1) 
  36334 066623        LDB BUFR      GET BUFFER ADDRESS BACK 
  36335 116570        JSB TTLST,I   JUMP TO TTY DRIVER
  36336 126325        JMP SCOPE,I   RETURN TO CALLING PROGRAM 
  36337 002021        SSA,RSS       SKIP ON A<0 
  36340 026347        JMP *+7 
  36341 002004        INA 
  36342 002020        SSA 
  36343 126325        JMP SCOPE,I   A<-1  RETURN TO CALLING PROGRAM 
  36344 002400        CLA 
  36345 072567        STA .INTL 
  36346 126325        JMP SCOPE,I 
  36347 003004        CMA,INA        LENGTH IS STORED WITH (-) SIGN 
  36350 072624        STA BUFL      STORE LENGTH
  36351 016560        JSB INITL     ERASE SCOPE IF THIS IS FIRST OUTPUT 
  36352 003400        CCA 
  36353 072612        STA CCNT
  36354 062624  NEXT  LDA BUFL      GET BUFFER LENGTH 
  36355 002002        SZA             ZERO BUFFER ? 
  36356 026362        JMP CONT1       NO
  36357 016507        JSB CR      YES SO SEND CR AND LF 
  36360 016514        JSB LF
  36361 126325        JMP SCOPE,I       RETURN TO CALLING PROGRAM 
  36362 162623  CONT1 LDA BUFR,I
  36363 066612        LDB CCNT        GET CHAR. FLAG
  36364 006004        INB 
  36365 076612        STB CCNT
  36366 004010        SLB             ODD OR EVEN 
  36367 026372        JMP *+3         ODD 
  36370 001727        ALF,ALF         EVEN, ROTATE TO LOWER 8 BITS
  36371 002001        RSS 
  36372 036623        ISZ BUFR
  36373 012573        AND .177
  36374 036624        ISZ BUFL      END OF BUFFER?
  36375 026400        JMP CP1        NO 
  36376 052615        CPA BKAR       YES, IS IT A _ ? 
  36377 126325        JMP SCOPE,I       YES SO NO CR, LF
  36400 052613  CP1   CPA CRT       CARRIAGE RETURN?
  36401 002001        RSS 
  36402 026405        JMP *+3     NO
  36403 016507        JSB CR       YES
  36404 026354        JMP NEXT
  36405 052614        CPA LFD         LINE FEED ? 
  36406 002001        RSS 
  36407 026412        JMP *+3    NO 
  36410 016514        JSB LF     YES
  36411 026354        JMP NEXT
  36412 072627        STA CHRCD     SAVE CHARACTER IN CHRCD 
  36413 042574        ADA ..140     CHARACTER <140? 
  36414 002021        SSA,RSS 
  36415 026421        JMP UNON         NO 
  36416 042571        ADA .100      YES  NOW IS CHARACTER 
  36417 002021        SSA,RSS       > 37? 
  36420 026423        JMP CONT2  YES
  36421 062575  UNON  LDA .37       NO CHARACTER UNKNOWN
  36422 072627        STA CHRCD     WILL OUTPUT A BLOTCH
  36423 062627  CONT2 LDA CHRCD      GET CHARACTER CODE 
  36424 042576        ADA ..37      ADD -37 
  36425 072627        STA CHRCD              EFFECTIVE
  36426 001000        ALS                             TABLE 
  36427 042627        ADA CHRCD                            ENTRY
  36430 042631        ADA TABLE     TABLE ENTRY= 3X CHRCD+ TABLE
  36431 064000        LDB A 
  36432 046577        ADB .3
  36433 076630        STB CHRND      SET TEST FOR END OF CHARACTER
  36434 072627        STA CHRCD     STORE EFFECTIVE ENTRY 
  36435 162627        LDA CHRCD,I   GET FIRST CHARACTER CELL
  36436 166625        LDB DOT,I      GET LOCATION OF DOT
  36437 002020  NXOUT SSA           A-15 =0?
  36440 106600  I.1   OTB 0              OUTPUT DOT 
  36441 001200        RAL           YES- ROTATE A LEFT 1 BIT
  36442 036610        ISZ CNT16     DO WE NEED NEXT PART OF CHARACTER YET?
  36443 002001        RSS           NO
  36444 026454        JMP NXTAB     YES 
  36445 036611        ISZ CNT8      FIRST HALF OF CHRCD DONE
  36446 002001        RSS           NO
  36447 026452        JMP XINC      YES 
  36450 046600        ADB .1774     DECREMENT Y  (B=B+177400) 
  36451 026437        JMP NXOUT     OUTPUT NEXT DOT 
  36452 046601  XINC  ADB .3401     INCREMENT X  (B=B+3401) 
  36453 026437        JMP NXOUT     OUTPUT NEXT DOT 
  36454 036627  NXTAB ISZ CHRCD     GET NEXT PART OF CHARACTER
  36455 062617        LDA M8       M8=-8
  36456 072611        STA CNT8
  36457 062620        LDA M16    M16=-16
  36460 072610        STA CNT16 
  36461 062627        LDA CHRCD     GET TABLE ENTRY AND CHECK FOR 
  36462 052630        CPA CHRND      END OF CHARACTER ? 
  36463 026467        JMP SPA        YES
  36464 162627        LDA CHRCD,I   NO-GET NEXT PART OF CHARACTER 
  36465 046601        ADB .3401     INCREMENT X  (B=B+3401) 
  36466 026437        JMP NXOUT     OUTPUT NEXT DOT 
  36467 060001  SPA   LDA B       GET CHARACTER POSITION
  36470 012621        AND XMSK    ISOLATE X AXIS (XMSK=177400)
  36471 052602        CPA .375      AT RIGHT MARGIN?  (B=375) 
  36472 026476        JMP RM           YES
  36473 046603        ADB .3403     NO-ADD SPACE  (B=B+3403)
  36474 176625        STB DOT,I     SAVE DOT
  36475 026354        JMP NEXT
  36476 062624  RM    LDA BUFL
  36477 002002        SZA          ZERO BUFFER ?
  36500 026504        JMP *+4       NO
  36501 046604        ADB .3400     YES-RESET DOT  (B=B+3400) 
  36502 176625        STB DOT,I     SAVE IT 
  36503 026354        JMP NEXT
  36504 016507        JSB CR        RETURN
  36505 016514        JSB LF                LINE FEED 
  36506 026354        JMP NEXT
                      SPC 2 
************************************************************************
*     SUBROUTINE FOR CARRIAGE RETURN. REGISTERS DESTROYED 
************************************************************************
                      SPC 2 
  36507 000000  CR    NOP                 CARRIAGE RETURN SUBROUTINE
  36510 162625        LDA DOT,I      GET CURRENT DOT LOCATION 
  36511 012622        AND YMSK     ISOLATE Y AXIS (YMSK=177400B)
  36512 172625        STA DOT,I     SAVE IT IN DOT
  36513 126507        JMP CR,I      RETURN
                      SPC 2 
*********************************************************************** 
*     SUBROUTINE FOR LINE FEED. REGISTERS DESTROYED 
*********************************************************************** 
                      SPC 2 
  36514 000000  LF    NOP           LINE FEED ROUTINE 
  36515 162625        LDA DOT,I     GET CURRENT DOT LOCATION
  36516 012622        AND YMSK      ISOLATE Y AXIS (YMSK=177400B) 
  36517 052605        CPA .1200     PAGE OVERFLOW?
  36520 002001        RSS                 YES 
  36521 026526        JMP LF1             NO
  36522 016532        JSB CONTL     AT BOTTOM OF PAGE?
  36523 062606        LDA .1740     RETURN DOT TO UPPER LEFT
  36524 172625        STA DOT,I     SAVE LOCATION 
  36525 126514        JMP LF,I      RETURN
  36526 162625  LF1   LDA DOT,I 
  36527 042607        ADA .1720     DECREMENT Y BY 12  (A=A+172000) 
  36530 172625        STA DOT,I     SAVE LOCATION 
  36531 126514        JMP LF,I    RETURN
  36532 000000  CONTL NOP 
  36533 016542        JSB WAIT      WAIT ONE SEC. 
  36534 102501        LIA 1B        LOAD SWITCH REGISTER
  36535 001727        ALF,ALF       CHECK IF BIT NO. 7 IS UP (1)
  36536 002020        SSA           ? 
  36537 026533        JMP CONTL+1   YES CONTINUE WAITING
  36540 016552        JSB ERASE     NO ERASE SCREEN 
  36541 126532        JMP CONTL,I   RETURN
  36542 000000  WAIT  NOP           1 SEC. TIME DELAY SUBROUTINE
  36543 006400        CLB 
  36544 000000        NOP 
  36545 000000        NOP 
  36546 162625        LDA DOT,I 
  36547 034001        ISZ B 
  36550 026544        JMP *-4 
  36551 126542        JMP WAIT,I    RETURN
                      SKP 
                      SPC 2 
                      SPC 2 
*********************************************************************** 
*     SUBROUTINE TO ERASE THE STORAGE SCOPE.  THE CLF INSTRUCTION 
*     STARTS THE ERASE CYCLE.  A DUMMY LOOP IS USED TO TIME THE 
*     LENGTH OF THE ERASE CYCLE.
**********************************************************************
                      SPC 2 
  36552 000000  ERASE NOP 
  36553 062606        LDA .1740     SET DOT LOCATION TO TOP OF PAGE 
  36554 172625        STA DOT,I     SAVE LOCATIONS
  36555 103100  I.2   CLF 0      START ERASE
  36556 016542        JSB WAIT       WAIT ABOUT 1 SEC. FOR ERASE
  36557 126552        JMP ERASE,I     RETURN
  36560 000000  INITL NOP           ERASE SCOPE IF THIS IS THE FIRST OUTPUT 
  36561 062567        LDA .INTL 
  36562 002002        SZA 
  36563 126560        JMP INITL,I   NOT FIRST OUTPUT=>RETURN
  36564 036567        ISZ .INTL     FIRST OUTPUT
  36565 016552        JSB ERASE     ERASE 
  36566 126560        JMP INITL,I   RETURN
                      SKP 
                      SPC 2 
******************************************************************* 
* 
*CONSTANTS
* 
******************************************************************* 
  36567 000000  .INTL OCT 0 
  36570 000000  TTLST OCT 0         ADDRESS OF TTY LIST DRIVER ENTRY POINT
  36571 000100  .100  OCT 100 
  36572 003500  .3500 OCT 3500
  36573 000177  .177  OCT 177 
  36574 177640  ..140 OCT -140
  36575 000037  .37   OCT 37
  36576 177741  ..37  OCT -37 
  36577 000003  .3    OCT 3 
  36600 177400  .1774 OCT 177400
  36601 003401  .3401 OCT 3401
  36602 000375  .375  OCT 375 
  36603 003403  .3403 OCT 3403
  36604 003400  .3400 OCT 3400
  36605 012000  .1200 OCT 12000 
  36606 174000  .1740 OCT 174000
  36607 172000  .1720 OCT 172000
  36610 177760  CNT16 DEC -16 
  36611 177770  CNT8  DEC -8
  36612 177777  CCNT  DEC -1
  36613 000015  CRT   OCT 15      ASCII CODE FOR CARRIAGE RETURN
  36614 000012  LFD   OCT 12      ASCII CODE FOR LINE FEED
  36615 000137  BKAR  OCT 137     ASCII CODE FOR A     EQU 0     A REGISTER 
  00000         A     EQU 0      A REGISTER 
  00001         B     EQU 1      B REGISTER 
  36616 000077  M77   OCT 77
  36617 177770  M8    DEC -8
  36620 177760  M16   DEC -16 
  36621 000377  XMSK  OCT 377    MASK FOR X AXIS
  36622 177400  YMSK  OCT 177400  MASK FOR Y AXIS 
  36623 000000  BUFR  NOP           DATA BUFFER STARTING ADDRESS
  36624 000000  BUFL  NOP           DATA BUFFER LENGTH
  36625 036626  DOT   DEF .DOT
  36626 000000  .DOT  NOP           DOT LOCATION STORAGE
  36627 000000  CHRCD NOP CHARACTER CODE STORAGE
  36630 000000  CHRND NOP           END OF CHARACTER TEST CELL
  36631 036632  TABLE DEF *+1     ENTRY POINT FOR CHARACTER LIBRARY 
                      SPC 3 
************************************************************************
*     THIS IS THE CHARACTER LIBRARY.  THE FIRST CHARACTER IS
*     THE SYMBOL FOR AN UNKNOWN CHARACTER.  THE REST OF THE LIBRARY 
*     IS IN ASCII ORDER.
************************************************************************
                      SPC 2 
  36632 177777        OCT 177777,177777,177777
  36633 177777  
  36634 177777  
  36635 000000        OCT 0,0,0 
  36636 000000  
  36637 000000  
  36640 000001  EXCL  OCT 1,174401,0
  36641 174401  
  36642 000000  
  36643 000360  QUOTE OCT 360,0,170000
  36644 000000  
  36645 170000  
  36646 022377  POUND OCT 22377,22044,177444
  36647 022044  
  36650 177444  
  36651 061221  DOLR  OCT 61221,177621,47000
  36652 177621  
  36653 047000  
  36654 041244  PRCNT OCT 41244,44022,22502 
  36655 044022  
  36656 022502  
  36657 007161  AMP   OCT 7161,110632,63011 
  36660 110632  
  36661 063011  
  36662 000020  APOST OCT 20,160100,0 
  36663 160100  
  36664 000000  
  36665 000074  OPRN  OCT 74,41201,100400 
  36666 041201  
  36667 100400  
  36670 000201  CPRN  OCT 201,100502,36000
  36671 100502  
  36672 036000  
  36673 044452  AST   OCT 44452,16034,25111 
  36674 016034  
  36675 025111  
  36676 000010  PLUS  OCT 10,4076,4010
  36677 004076  
  36700 004010  
  36701 000001  COMMA OCT 1,416,2000
  36702 000416  
  36703 002000  
  36704 000010  MINUS OCT 10,4010,4010
  36705 004010  
  36706 004010  
  36707 000002  PER   OCT 2,3402,0
  36710 003402  
  36711 000000  
  36712 001004  DIV   OCT 1004,4020,20100 
  36713 004020  
  36714 020100  
  36715 036102  ZERO  OCT 36102,100601,41074
  36716 100601  
  36717 041074  
  36720 000501  ONEE  OCT 501,177401,400
  36721 177401  
  36722 000400  
  36723 040603  TWOE  OCT 40603,102611,110541 
  36724 102611  
  36725 110541  
  36726 041201        OCT 41201,100621,124506 
  36727 100621  
  36730 124506  
  36731 006024        OCT 6024,22104,177404 
  36732 022104  
  36733 177404  
  36734 170621  FIVE  OCT 170621,110621,110616
  36735 110621  
  36736 110616  
  36737 017045  SIX   OCT 17045,44611,4406
  36740 044611  
  36741 004406  
  36742 100200  SEVEN OCT 100200,107620,120300
  36743 107620  
  36744 120300  
  36745 067221  EIGHT OCT 67221,110621,110556 
  36746 110621  
  36747 110556  
  36750 060221  NINE  OCT 60221,110621,111174 
  36751 110621  
  36752 111174  
  36753 000000  COLON OCT 0,41347,41000 
  36754 041347  
  36755 041000  
  36756 000001  SEMI  OCT 1,147304,0
  36757 147304  
  36760 000000  
  36761 000020  AROW1 OCT 20,24104,101000 
  36762 024104  
  36763 101000  
  36764 000044  EQUAL OCT 44,22044,22044
  36765 022044  
  36766 022044  
  36767 000202  AROW2 OCT 202,42050,10000 
  36770 042050  
  36771 010000  
  36772 040201  QUES  OCT 40201,105621,110140 
  36773 105621  
  36774 110140  
  36775 077201  AT    OCT 77201,114645,114570 
  36776 114645  
  36777 114570  
  37000 037510  AEE   OCT 37510,104210,44077
  37001 104210  
  37002 044077  
  37003 177621  BEE   OCT 177621,110621,110556
  37004 110621  
  37005 110556  
  37006 077201  C     OCT 77201,100601,100546 
  37007 100601  
  37010 100546  
  37011 100777  D     OCT 100777,100601,100576
  37012 100601  
  37013 100576  
  37014 177621  E     OCT 177621,110621,110601
  37015 110621  
  37016 110601  
  37017 177620  F     OCT 177620,110220,100200
  37020 110220  
  37021 100200  
  37022 077201  G     OCT 77201,100611,104516 
  37023 100611  
  37024 104516  
  37025 177420  H     OCT 177420,10020,10377
  37026 010020  
  37027 010377  
  37030 100601  I     OCT 100601,177601,100400
  37031 177601  
  37032 100400  
  37033 003001  J     OCT 3001,401,776
  37034 000401  
  37035 000776  
  37036 177410  K     OCT 177410,14044,41201
  37037 014044  
  37040 041201  
  37041 177401  L     OCT 177401,401,401
  37042 000401  
  37043 000401  
  37044 177500  M     OCT 177500,34070,40377
  37045 034070  
  37046 040377  
  37047 177440  N     OCT 177440,10010,2377 
  37050 010010  
  37051 002377  
  37052 077201  O     OCT 77201,100601,100576 
  37053 100601  
  37054 100576  
  37055 177610  P     OCT 177610,104210,104160
  37056 104210  
  37057 104160  
  37060 077201  Q     OCT 77201,104606,103175 
  37061 104606  
  37062 103175  
  37063 177610  R     OCT 177610,104214,105161
  37064 104214  
  37065 105161  
  37066 061221  S     OCT 61221,110621,104506 
  37067 110621  
  37070 104506  
  37071 100200  T     OCT 100200,177600,100000
  37072 177600  
  37073 100000  
  37074 177001  U     OCT 177001,401,776
  37075 000401  
  37076 000776  
  37077 160034  V     OCT 160034,1403,16340 
  37100 001403  
  37101 016340  
  37102 177402  W     OCT 177402,16034,1377 
  37103 016034  
  37104 001377  
  37105 141444  X     OCT 141444,14030,22303
  37106 014030  
  37107 022303  
  37110 140040  Y     OCT 140040,17437,20300
  37111 017437  
  37112 020300  
  37113 101605  Z     OCT 101605,104621,120701
  37114 104621  
  37115 120701  
  37116 000377  OBRAK OCT 377,100601,100400 
  37117 100601  
  37120 100400  
  37121 040040  SLANT OCT 40040,10010,2002
  37122 010010  
  37123 002002  
  37124 000201  BRAK2 OCT 201,100601,177400 
  37125 100601  
  37126 177400  
  37127 000040  UPARO OCT 40,40377,40040
  37130 040377  
  37131 040040  
  37132 010070  BKARO OCT 10070,52020,10020 
  37133 052020  
  37134 010020  
                      END 
0 ERRORS
