STEST  000100 
START  000107 
MES1   000165 
MES2   000207 
MES3   000226 
MES4   000235 
MES5   000253 
MES6   000274 
MES7   000313 
MES8   000320 
MES9   000324 
MES10  000330 
MES11  000332 
P2     000350 
P6     000351 
P8     000352 
P11    000353 
P25    000354 
P27    000355 
P32    000356 
P33    000357 
* SIO DRIVER - SCOPE TEST PROGRAM 
*   WRITES ALL AVAILABLE CHARACTERS IN H-P 1331C
*   OPT 016 STORAGE X-Y DISPLAY.
  00100               ORG 100B
  00100 024107  STEST JMP START     STARTING EXECUTION POINT
  00107               ORG 107B
  00107 060357  START LDA P33       LENGTH OF MESSAGE (LOM) 
  00110 064165        LDB MES1      ADDRESS OF MESSAGE (AOM)
  00111 114102        JSB 102B,I    GO ERASE AND WRITE "SIO DRIVER -
*                                     SCOPE TEST PROGRAM."
  00112 102001        HLT 01
  00113 060355        LDA P27       LOM 
  00114 064207        LDB MES2      AOM 
  00115 114102        JSB 102B,I    GO WRITE "ABCDEFGHIJKLMNOPQRSTUV
*                                     WXYZ."
  00116 102002        HLT 02
  00117 060353        LDA P11       LOM 
  00120 064226        LDB MES3      AOM 
  00121 114102        JSB 102B,I    GO WRITE "0123456789."
  00122 102003        HLT 03
  00123 002400        CLA           SET A TO ZERO FOR C/R L/F 
  00124 006400        CLB 
  00125 114102        JSB 102B,I    GO WRITE C/R L/F
  00126 102004        HLT 04
  00127 060354        LDA P25       LOM 
  00130 064235        LDB MES4      AOM 
  00131 114102        JSB 102B,I    GO WRITE REMAINING ASCII
*                                     CHARACTERS EXCEPT ^ & _.
  00132 102005        HLT 05
  00133 060356        LDA P32       LOM 
  00134 064253        LDB MES5      AOM 
  00135 114102        JSB 102B,I    GO WRITE OLD TYPING MESSAGE.
  00136 060355        LDA P27       LOM 
  00137 064274        LDB MES6      AOM 
  00140 114102        JSB 102B,I    CONTINUE MESSAGE
  00141 060352        LDA P8        LOM 
  00142 064313        LDB MES7      AOM 
  00143 114102        JSB 102B,I    FINISH MESSAGE
  00144 102006        HLT 06
  00145 060351        LDA P6        LOM 
  00146 064320        LDB MES8      AOM 
  00147 114102        JSB 102B,I    GO WRITE "01234_" (NO C/R L/F)
  00150 102007        HLT 07
  00151 060351        LDA P6        LOM 
  00152 064324        LDB MES9      AOM 
  00153 114102        JSB 102B,I    GO WRITE "56789." ON SAME LINE. 
  00154 102010        HLT 08
  00155 060350        LDA P2        LOM 
  00156 064330        LDB MES10     AOM 
  00157 114102        JSB 102B,I    GO WRITE C/R L/F
  00160 060354        LDA P25       LOM 
  00161 064332        LDB MES11     AOM 
  00162 114102        JSB 102B,I    GO WRITE "TO REPEAT TEST, 
*                                     PUSH RUN."
  00163 102011        HLT 09
  00164 024107        JMP START 
* 
*CONSTANTS
* 
  00165 000166  MES1  DEF *+1 
  00166 057123        ASC 17,^SIO DRIVER - SCOPE TEST PROGRAM.
  00167 044517  
  00170 020104  
  00171 051111  
  00172 053105  
  00173 051040  
  00174 026440  
  00175 051503  
  00176 047520  
  00177 042440  
  00200 052105  
  00201 051524  
  00202 020120  
  00203 051117  
  00204 043522  
  00205 040515  
  00206 027040  
  00207 000210  MES2  DEF *+1 
  00210 040502        ASC 14,ABCDEFGHIJKLMNOPQRSTUVWXYZ.
  00211 041504  
  00212 042506  
  00213 043510  
  00214 044512  
  00215 045514  
  00216 046516  
  00217 047520  
  00220 050522  
  00221 051524  
  00222 052526  
  00223 053530  
  00224 054532  
  00225 027040  
  00226 000227  MES3  DEF *+1 
  00227 030061        ASC 6,0123456789. 
  00230 031063  
  00231 032065  
  00232 033067  
  00233 034071  
  00234 027040  
  00235 000236  MES4  DEF *+1 
  00236 020442        ASC 13,!"#$%&'()*+,-./:;<=>?[\].
  00237 021444  
  00240 022446  
  00241 023450  
  00242 024452  
  00243 025454  
  00244 026456  
  00245 027472  
  00246 035474  
  00247 036476  
  00250 037533  
  00251 056135  
  00252 027040  
  00253 000254  MES5  DEF *+1 
  00254 047117        ASC 16,NOW IS THE TIME FOR ALL GOOD MEN 
  00255 053440  
  00256 044523  
  00257 020124  
  00260 044105  
  00261 020124  
  00262 044515  
  00263 042440  
  00264 043117  
  00265 051040  
  00266 040514  
  00267 046040  
  00270 043517  
  00271 047504  
  00272 020115  
  00273 042516  
  00274 000275  MES6  DEF *+1 
  00275 052117        ASC 14,TO COME TO THE AID OF THEIR
  00276 020103  
  00277 047515  
  00300 042440  
  00301 052117  
  00302 020124  
  00303 044105  
  00304 020101  
  00305 044504  
  00306 020117  
  00307 043040  
  00310 052110  
  00311 042511  
  00312 051040  
  00313 000314  MES7  DEF *+1 
  00314 041517        ASC 4,COUNTRY.
  00315 052516  
  00316 052122  
  00317 054456  
  00320 000321  MES8  DEF *+1 
  00321 030061        ASC 3,01234_
  00322 031063  
  00323 032137  
  00324 000325  MES9  DEF *+1 
  00325 032466        ASC 3,56789.
  00326 033470  
  00327 034456  
  00330 000331  MES10 DEF *+1 
  00331 020040        ASC 1,
*                                    CARRIAGE RETURN, LINEFEED
  00332 000333  MES11 DEF *+1 
  00333 052117        ASC 13,TO REPEAT TEST, PUSH RUN.
  00334 020122  
  00335 042520  
  00336 042501  
  00337 052040  
  00340 052105  
  00341 051524  
  00342 026040  
  00343 050125  
  00344 051510  
  00345 020122  
  00346 052516  
  00347 027040  
  00350 000002  P2    DEC 2 
  00351 000006  P6    DEC 6 
  00352 000010  P8    DEC 8 
  00353 000013  P11   DEC 11
  00354 000031  P25   DEC 25
  00355 000033  P27   DEC 27
  00356 000040  P32   DEC 32
  00357 000041  P33   DEC 33
                      END 
0 ERRORS
