



ASM/6800 1.3H4: 0000                    
08/16/82 00:00:00; Page 1; Form 1       
B2.ASM
                  2:                    WITH    WI=107,DE=51
                  3: * BASIC COMPILED BY METAPLUS VERSION 1.4c
  0000            4:                    ORG     0
0000 0001         5: STRVAR             RMB     1
0001 0001         6: VECTOR             RMB     1
0002 0001         7: ARRAY              RMB     1
0003 0001         8: FUNCTION           RMB     1
0004 0001         9: STRINGFUNCTION     RMB     1
0005 0001        10: SCALAR             RMB     1
0006 0001        11: FREFLABEL          RMB     1
0007 0001        12: ISLABEL            RMB     1
0008 0001        13: POTENTIALLABEL     RMB     1
0009 0001        14: COMMONSCALAR       RMB     1
000A 0001        15: INFORLOOP          RMB     1
000B 0001        16: STEPLIMALLOCATED   RMB     1
000C 0001        17: TYPESUBROUTINE     RMB     1
000D 0001        18: PARAMETER          RMB     1
000E 0001        19: FREFSUBROUTINE     RMB     1
000F 0001        20: STRARRAY           RMB     1
  0104           21:                    ORG     $104            METAMACHINE ENTRY POINTS
0104 0003        22: STARTTOKEN         RMB     3
0107 0003        23: GETTOKENCHAR       RMB     3
010A 0003        24: BACKUP             RMB     3
010D 0003        25: EATTOKEN           RMB     3
0110 0003        26: FINDSTAR           RMB     3
0113 0003        27: FINDSTARN          RMB     3
0116 0003        28: PUTCHAR            RMB     3
0119 0003        29: ENTERMETA          RMB     3
  0C80           30:                    ORG     $C80
0C80 7E15BC      31:                    JMP     DEBLANKTOKEN
0C83 7E1594      32:                    JMP     ERRORTOKEN
0C86 7E15F5      33:                    JMP     KEYWORDTOKEN
0C89 4863        34:                    #:21
0C8B 1584        35:                    #.KEYWORDLIST
0C8D 1149        36:                    #:31
  0C89           37: .TA                EQU     *-6
  0003           38: .TC                SET     3
  001D           39:                    RPT     29
0C8F 0000        40:                    #0
  0B49           41: .SA                EQU     *-$C0*2




ASM/6800 1.3H4: 0CC7                    
08/16/82 00:00:00; Page 2; Form 1       
B2.ASM
  00C0           42: .SC                SET     $C0
  0240           43:                    RPT     576
0CC9 0000        44:                    #0
  1149           45: :31                EQU     *
1149 37          46:                    +:11-*-1
114A 536F6674    47:                    FCC     'Software Dynamics BASIC Compiler Version 1.4i (C) 1982'
1180 0D          48:                    +$D
  1181           49: :11                EQU     *
  00C0           50: BASIC              EQU     .SC
  00C1           51: .SC                SET     .SC+1
1181 C0          52:                    BASIC
1182 2C          53:                    $2C
1183 00          54:                    0
  0000           55: .PK                SET     0
  1184           56: DIM                EQU     *
1184 00          57: :22                +0
1185 00          58:                    +0
1186 00          59:                    +0
1187 0000        60:                    #.PK
1189 83          61:                    +$80+:12-*-1
118A 44494D      62:                    FCC     "DIM"
  118D           63: :12                EQU     *
  1184           64: .PK                SET     :22
  118D           65: COMMON             EQU     *
118D 00          66: :23                +0
118E 00          67:                    +0
118F 00          68:                    +0
1190 1184        69:                    #.PK
1192 86          70:                    +$80+:13-*-1
1193 434F4D4D    71:                    FCC     "COMMON"
  1199           72: :13                EQU     *
  118D           73: .PK                SET     :23
  1199           74: REM                EQU     *
1199 00          75: :24                +0
119A 00          76:                    +0
119B 00          77:                    +0
119C 118D        78:                    #.PK
119E 83          79:                    +$80+:14-*-1
119F 52454D      80:                    FCC     "REM"
  11A2           81: :14                EQU     *




ASM/6800 1.3H4: 119F                    
08/16/82 00:00:00; Page 3; Form 1       
B2.ASM
  1199           82: .PK                SET     :24
  11A2           83: PROGRAM            EQU     *
11A2 00          84: :25                +0
11A3 00          85:                    +0
11A4 00          86:                    +0
11A5 1199        87:                    #.PK
11A7 87          88:                    +$80+:15-*-1
11A8 50524F47    89:                    FCC     "PROGRAM"
  11AF           90: :15                EQU     *
  11A2           91: .PK                SET     :25
  11AF           92: DATA               EQU     *
11AF 00          93: :26                +0
11B0 00          94:                    +0
11B1 00          95:                    +0
11B2 11A2        96:                    #.PK
11B4 84          97:                    +$80+:16-*-1
11B5 44415441    98:                    FCC     "DATA"
  11B9           99: :16                EQU     *
  11AF          100: .PK                SET     :26
  11B9          101: CONCATENATION      EQU     *
11B9 00         102: :27                +0
11BA 00         103:                    +0
11BB 00         104:                    +0
11BC 11AF       105:                    #.PK
11BE 8D         106:                    +$80+:17-*-1
11BF 434F4E43   107:                    FCC     "CONCATENATION"
  11CC          108: :17                EQU     *
  11B9          109: .PK                SET     :27
  11CC          110: INCLUDE            EQU     *
11CC 00         111: :28                +0
11CD 00         112:                    +0
11CE 00         113:                    +0
11CF 11B9       114:                    #.PK
11D1 87         115:                    +$80+:18-*-1
11D2 494E434C   116:                    FCC     "INCLUDE"
  11D9          117: :18                EQU     *
  11CC          118: .PK                SET     :28
  11D9          119: ON                 EQU     *
11D9 00         120: :29                +0
11DA 00         121:                    +0




ASM/6800 1.3H4: 11DB                    
08/16/82 00:00:00; Page 4; Form 1       
B2.ASM
11DB 00         122:                    +0
11DC 11CC       123:                    #.PK
11DE 82         124:                    +$80+:19-*-1
11DF 4F4E       125:                    FCC     "ON"
  11E1          126: :19                EQU     *
  11D9          127: .PK                SET     :29
  11E1          128: ERROR              EQU     *
11E1 00         129: :2A                +0
11E2 00         130:                    +0
11E3 00         131:                    +0
11E4 11D9       132:                    #.PK
11E6 85         133:                    +$80+:1A-*-1
11E7 4552524F   134:                    FCC     "ERROR"
  11EC          135: :1A                EQU     *
  11E1          136: .PK                SET     :2A
  11EC          137: GOTO               EQU     *
11EC 00         138: :2B                +0
11ED 00         139:                    +0
11EE 00         140:                    +0
11EF 11E1       141:                    #.PK
11F1 84         142:                    +$80+:1B-*-1
11F2 474F544F   143:                    FCC     "GOTO"
  11F6          144: :1B                EQU     *
  11EC          145: .PK                SET     :2B
  11F6          146: ELN                EQU     *
11F6 00         147: :2C                +0
11F7 00         148:                    +0
11F8 00         149:                    +0
11F9 11EC       150:                    #.PK
11FB 83         151:                    +$80+:1C-*-1
11FC 454C4E     152:                    FCC     "ELN"
  11FF          153: :1C                EQU     *
  11F6          154: .PK                SET     :2C
  11FF          155: GOSUB              EQU     *
11FF 00         156: :2D                +0
1200 00         157:                    +0
1201 00         158:                    +0
1202 11F6       159:                    #.PK
1204 85         160:                    +$80+:1D-*-1
1205 474F5355   161:                    FCC     "GOSUB"




ASM/6800 1.3H4: 1209                    
08/16/82 00:00:00; Page 5; Form 1       
B2.ASM
  120A          162: :1D                EQU     *
  11FF          163: .PK                SET     :2D
  120A          164: POP                EQU     *
120A 00         165: :2E                +0
120B 00         166:                    +0
120C 00         167:                    +0
120D 11FF       168:                    #.PK
120F 83         169:                    +$80+:1E-*-1
1210 504F50     170:                    FCC     "POP"
  1213          171: :1E                EQU     *
  120A          172: .PK                SET     :2E
  1213          173: RETURN             EQU     *
1213 00         174: :2F                +0
1214 00         175:                    +0
1215 00         176:                    +0
1216 120A       177:                    #.PK
1218 86         178:                    +$80+:1F-*-1
1219 52455455   179:                    FCC     "RETURN"
  121F          180: :1F                EQU     *
  1213          181: .PK                SET     :2F
  121F          182: FOR                EQU     *
121F 00         183: :210               +0
1220 00         184:                    +0
1221 00         185:                    +0
1222 1213       186:                    #.PK
1224 83         187:                    +$80+:110-*-1
1225 464F52     188:                    FCC     "FOR"
  1228          189: :110               EQU     *
  121F          190: .PK                SET     :210
  1228          191: TO                 EQU     *
1228 00         192: :211               +0
1229 00         193:                    +0
122A 00         194:                    +0
122B 121F       195:                    #.PK
122D 82         196:                    +$80+:111-*-1
122E 544F       197:                    FCC     "TO"
  1230          198: :111               EQU     *
  1228          199: .PK                SET     :211
  1230          200: STEP               EQU     *
1230 00         201: :212               +0




ASM/6800 1.3H4: 1231                    
08/16/82 00:00:00; Page 6; Form 1       
B2.ASM
1231 00         202:                    +0
1232 00         203:                    +0
1233 1228       204:                    #.PK
1235 84         205:                    +$80+:112-*-1
1236 53544550   206:                    FCC     "STEP"
  123A          207: :112               EQU     *
  1230          208: .PK                SET     :212
  123A          209: CYCLE              EQU     *
123A 00         210: :213               +0
123B 00         211:                    +0
123C 00         212:                    +0
123D 1230       213:                    #.PK
123F 85         214:                    +$80+:113-*-1
1240 4359434C   215:                    FCC     "CYCLE"
  1245          216: :113               EQU     *
  123A          217: .PK                SET     :213
  1245          218: NEXT               EQU     *
1245 00         219: :214               +0
1246 00         220:                    +0
1247 00         221:                    +0
1248 123A       222:                    #.PK
124A 84         223:                    +$80+:114-*-1
124B 4E455854   224:                    FCC     "NEXT"
  124F          225: :114               EQU     *
  1245          226: .PK                SET     :214
  124F          227: LET                EQU     *
124F 00         228: :215               +0
1250 00         229:                    +0
1251 00         230:                    +0
1252 1245       231:                    #.PK
1254 83         232:                    +$80+:115-*-1
1255 4C4554     233:                    FCC     "LET"
  1258          234: :115               EQU     *
  124F          235: .PK                SET     :215
  1258          236: PRINT              EQU     *
1258 00         237: :216               +0
1259 00         238:                    +0
125A 00         239:                    +0
125B 124F       240:                    #.PK
125D 85         241:                    +$80+:116-*-1




ASM/6800 1.3H4: 125E                    
08/16/82 00:00:00; Page 7; Form 1       
B2.ASM
125E 5052494E   242:                    FCC     "PRINT"
  1263          243: :116               EQU     *
  1258          244: .PK                SET     :216
  1263          245: USING              EQU     *
1263 00         246: :217               +0
1264 00         247:                    +0
1265 00         248:                    +0
1266 1258       249:                    #.PK
1268 85         250:                    +$80+:117-*-1
1269 5553494E   251:                    FCC     "USING"
  126E          252: :117               EQU     *
  1263          253: .PK                SET     :217
  126E          254: FORMAT             EQU     *
126E 00         255: :218               +0
126F 00         256:                    +0
1270 00         257:                    +0
1271 1263       258:                    #.PK
1273 86         259:                    +$80+:118-*-1
1274 464F524D   260:                    FCC     "FORMAT"
  127A          261: :118               EQU     *
  126E          262: .PK                SET     :218
  127A          263: TAB                EQU     *
127A 00         264: :219               +0
127B 00         265:                    +0
127C 00         266:                    +0
127D 126E       267:                    #.PK
127F 83         268:                    +$80+:119-*-1
1280 544142     269:                    FCC     "TAB"
  1283          270: :119               EQU     *
  127A          271: .PK                SET     :219
  1283          272: INPUT              EQU     *
1283 00         273: :21A               +0
1284 00         274:                    +0
1285 00         275:                    +0
1286 127A       276:                    #.PK
1288 85         277:                    +$80+:11A-*-1
1289 494E5055   278:                    FCC     "INPUT"
  128E          279: :11A               EQU     *
  1283          280: .PK                SET     :21A
  128E          281: READ               EQU     *




ASM/6800 1.3H4: 128E                    
08/16/82 00:00:00; Page 8; Form 1       
B2.ASM
128E 00         282: :21B               +0
128F 00         283:                    +0
1290 00         284:                    +0
1291 1283       285:                    #.PK
1293 84         286:                    +$80+:11B-*-1
1294 52454144   287:                    FCC     "READ"
  1298          288: :11B               EQU     *
  128E          289: .PK                SET     :21B
  1298          290: WRITE              EQU     *
1298 00         291: :21C               +0
1299 00         292:                    +0
129A 00         293:                    +0
129B 128E       294:                    #.PK
129D 85         295:                    +$80+:11C-*-1
129E 57524954   296:                    FCC     "WRITE"
  12A3          297: :11C               EQU     *
  1298          298: .PK                SET     :21C
  12A3          299: STOP               EQU     *
12A3 00         300: :21D               +0
12A4 00         301:                    +0
12A5 00         302:                    +0
12A6 1298       303:                    #.PK
12A8 84         304:                    +$80+:11D-*-1
12A9 53544F50   305:                    FCC     "STOP"
  12AD          306: :11D               EQU     *
  12A3          307: .PK                SET     :21D
  12AD          308: EXIT               EQU     *
12AD 00         309: :21E               +0
12AE 00         310:                    +0
12AF 00         311:                    +0
12B0 12A3       312:                    #.PK
12B2 84         313:                    +$80+:11E-*-1
12B3 45584954   314:                    FCC     "EXIT"
  12B7          315: :11E               EQU     *
  12AD          316: .PK                SET     :21E
  12B7          317: WHILE              EQU     *
12B7 00         318: :21F               +0
12B8 00         319:                    +0
12B9 00         320:                    +0
12BA 12AD       321:                    #.PK




ASM/6800 1.3H4: 12BC                    
08/16/82 00:00:00; Page 9; Form 1       
B2.ASM
12BC 85         322:                    +$80+:11F-*-1
12BD 5748494C   323:                    FCC     "WHILE"
  12C2          324: :11F               EQU     *
  12B7          325: .PK                SET     :21F
  12C2          326: UNTIL              EQU     *
12C2 00         327: :220               +0
12C3 00         328:                    +0
12C4 00         329:                    +0
12C5 12B7       330:                    #.PK
12C7 85         331:                    +$80+:120-*-1
12C8 554E5449   332:                    FCC     "UNTIL"
  12CD          333: :120               EQU     *
  12C2          334: .PK                SET     :220
  12CD          335: DO                 EQU     *
12CD 00         336: :221               +0
12CE 00         337:                    +0
12CF 00         338:                    +0
12D0 12C2       339:                    #.PK
12D2 82         340:                    +$80+:121-*-1
12D3 444F       341:                    FCC     "DO"
  12D5          342: :121               EQU     *
  12CD          343: .PK                SET     :221
  12D5          344: END                EQU     *
12D5 00         345: :222               +0
12D6 00         346:                    +0
12D7 00         347:                    +0
12D8 12CD       348:                    #.PK
12DA 83         349:                    +$80+:122-*-1
12DB 454E44     350:                    FCC     "END"
  12DE          351: :122               EQU     *
  12D5          352: .PK                SET     :222
  12DE          353: REPEAT             EQU     *
12DE 00         354: :223               +0
12DF 00         355:                    +0
12E0 00         356:                    +0
12E1 12D5       357:                    #.PK
12E3 86         358:                    +$80+:123-*-1
12E4 52455045   359:                    FCC     "REPEAT"
  12EA          360: :123               EQU     *
  12DE          361: .PK                SET     :223




ASM/6800 1.3H4: 12E8                    
08/16/82 00:00:00; Page 10; Form 1      
B2.ASM
  12EA          362: UNLESS             EQU     *
12EA 00         363: :224               +0
12EB 00         364:                    +0
12EC 00         365:                    +0
12ED 12DE       366:                    #.PK
12EF 86         367:                    +$80+:124-*-1
12F0 554E4C45   368:                    FCC     "UNLESS"
  12F6          369: :124               EQU     *
  12EA          370: .PK                SET     :224
  12F6          371: WHEN               EQU     *
12F6 00         372: :225               +0
12F7 00         373:                    +0
12F8 00         374:                    +0
12F9 12EA       375:                    #.PK
12FB 84         376:                    +$80+:125-*-1
12FC 5748454E   377:                    FCC     "WHEN"
  1300          378: :125               EQU     *
  12F6          379: .PK                SET     :225
  1300          380: IF                 EQU     *
1300 00         381: :226               +0
1301 00         382:                    +0
1302 00         383:                    +0
1303 12F6       384:                    #.PK
1305 82         385:                    +$80+:126-*-1
1306 4946       386:                    FCC     "IF"
  1308          387: :126               EQU     *
  1300          388: .PK                SET     :226
  1308          389: THEN               EQU     *
1308 00         390: :227               +0
1309 00         391:                    +0
130A 00         392:                    +0
130B 1300       393:                    #.PK
130D 84         394:                    +$80+:127-*-1
130E 5448454E   395:                    FCC     "THEN"
  1312          396: :127               EQU     *
  1308          397: .PK                SET     :227
  1312          398: ELSE               EQU     *
1312 00         399: :228               +0
1313 00         400:                    +0
1314 00         401:                    +0




ASM/6800 1.3H4: 1315                    
08/16/82 00:00:00; Page 11; Form 1      
B2.ASM
1315 1308       402:                    #.PK
1317 84         403:                    +$80+:128-*-1
1318 454C5345   404:                    FCC     "ELSE"
  131C          405: :128               EQU     *
  1312          406: .PK                SET     :228
  131C          407: ELSEIF             EQU     *
131C 00         408: :229               +0
131D 00         409:                    +0
131E 00         410:                    +0
131F 1312       411:                    #.PK
1321 86         412:                    +$80+:129-*-1
1322 454C5345   413:                    FCC     "ELSEIF"
  1328          414: :129               EQU     *
  131C          415: .PK                SET     :229
  1328          416: FI                 EQU     *
1328 00         417: :22A               +0
1329 00         418:                    +0
132A 00         419:                    +0
132B 131C       420:                    #.PK
132D 82         421:                    +$80+:12A-*-1
132E 4649       422:                    FCC     "FI"
  1330          423: :12A               EQU     *
  1328          424: .PK                SET     :22A
  1330          425: POSITION           EQU     *
1330 00         426: :22B               +0
1331 00         427:                    +0
1332 00         428:                    +0
1333 1328       429:                    #.PK
1335 88         430:                    +$80+:12B-*-1
1336 504F5349   431:                    FCC     "POSITION"
  133E          432: :12B               EQU     *
  1330          433: .PK                SET     :22B
  133E          434: RESTORE            EQU     *
133E 00         435: :22C               +0
133F 00         436:                    +0
1340 00         437:                    +0
1341 1330       438:                    #.PK
1343 87         439:                    +$80+:12C-*-1
1344 52455354   440:                    FCC     "RESTORE"
  134B          441: :12C               EQU     *




ASM/6800 1.3H4: 1348                    
08/16/82 00:00:00; Page 12; Form 1      
B2.ASM
  133E          442: .PK                SET     :22C
  134B          443: OPEN               EQU     *
134B 00         444: :22D               +0
134C 00         445:                    +0
134D 00         446:                    +0
134E 133E       447:                    #.PK
1350 84         448:                    +$80+:12D-*-1
1351 4F50454E   449:                    FCC     "OPEN"
  1355          450: :12D               EQU     *
  134B          451: .PK                SET     :22D
  1355          452: CREATE             EQU     *
1355 00         453: :22E               +0
1356 00         454:                    +0
1357 00         455:                    +0
1358 134B       456:                    #.PK
135A 86         457:                    +$80+:12E-*-1
135B 43524541   458:                    FCC     "CREATE"
  1361          459: :12E               EQU     *
  1355          460: .PK                SET     :22E
  1361          461: CLOSE              EQU     *
1361 00         462: :22F               +0
1362 00         463:                    +0
1363 00         464:                    +0
1364 1355       465:                    #.PK
1366 85         466:                    +$80+:12F-*-1
1367 434C4F53   467:                    FCC     "CLOSE"
  136C          468: :12F               EQU     *
  1361          469: .PK                SET     :22F
  136C          470: DELETE             EQU     *
136C 00         471: :230               +0
136D 00         472:                    +0
136E 00         473:                    +0
136F 1361       474:                    #.PK
1371 86         475:                    +$80+:130-*-1
1372 44454C45   476:                    FCC     "DELETE"
  1378          477: :130               EQU     *
  136C          478: .PK                SET     :230
  1378          479: RENAME             EQU     *
1378 00         480: :231               +0
1379 00         481:                    +0




ASM/6800 1.3H4: 137A                    
08/16/82 00:00:00; Page 13; Form 1      
B2.ASM
137A 00         482:                    +0
137B 136C       483:                    #.PK
137D 86         484:                    +$80+:131-*-1
137E 52454E41   485:                    FCC     "RENAME"
  1384          486: :131               EQU     *
  1378          487: .PK                SET     :231
  1384          488: CHAIN              EQU     *
1384 00         489: :232               +0
1385 00         490:                    +0
1386 00         491:                    +0
1387 1378       492:                    #.PK
1389 85         493:                    +$80+:132-*-1
138A 43484149   494:                    FCC     "CHAIN"
  138F          495: :132               EQU     *
  1384          496: .PK                SET     :232
  138F          497: CALL               EQU     *
138F 00         498: :233               +0
1390 00         499:                    +0
1391 00         500:                    +0
1392 1384       501:                    #.PK
1394 84         502:                    +$80+:133-*-1
1395 43414C4C   503:                    FCC     "CALL"
  1399          504: :133               EQU     *
  138F          505: .PK                SET     :233
  1399          506: POKE               EQU     *
1399 00         507: :234               +0
139A 00         508:                    +0
139B 00         509:                    +0
139C 138F       510:                    #.PK
139E 84         511:                    +$80+:134-*-1
139F 504F4B45   512:                    FCC     "POKE"
  13A3          513: :134               EQU     *
  1399          514: .PK                SET     :234
  13A3          515: DEBUG              EQU     *
13A3 00         516: :235               +0
13A4 00         517:                    +0
13A5 00         518:                    +0
13A6 1399       519:                    #.PK
13A8 85         520:                    +$80+:135-*-1
13A9 44454255   521:                    FCC     "DEBUG"




ASM/6800 1.3H4: 13AD                    
08/16/82 00:00:00; Page 14; Form 1      
B2.ASM
  13AE          522: :135               EQU     *
  13A3          523: .PK                SET     :235
  13AE          524: SYSCALL            EQU     *
13AE 00         525: :236               +0
13AF 00         526:                    +0
13B0 00         527:                    +0
13B1 13A3       528:                    #.PK
13B3 87         529:                    +$80+:136-*-1
13B4 53595343   530:                    FCC     "SYSCALL"
  13BB          531: :136               EQU     *
  13AE          532: .PK                SET     :236
  13BB          533: SUBROUTINE         EQU     *
13BB 00         534: :237               +0
13BC 00         535:                    +0
13BD 00         536:                    +0
13BE 13AE       537:                    #.PK
13C0 8A         538:                    +$80+:137-*-1
13C1 53554252   539:                    FCC     "SUBROUTINE"
  13CB          540: :137               EQU     *
  13BB          541: .PK                SET     :237
  13CB          542: DEF                EQU     *
13CB 00         543: :238               +0
13CC 00         544:                    +0
13CD 00         545:                    +0
13CE 13BB       546:                    #.PK
13D0 83         547:                    +$80+:138-*-1
13D1 444546     548:                    FCC     "DEF"
  13D4          549: :138               EQU     *
  13CB          550: .PK                SET     :238
  13D4          551: EXTERNAL           EQU     *
13D4 00         552: :239               +0
13D5 00         553:                    +0
13D6 00         554:                    +0
13D7 13CB       555:                    #.PK
13D9 88         556:                    +$80+:139-*-1
13DA 45585445   557:                    FCC     "EXTERNAL"
  13E2          558: :139               EQU     *
  13D4          559: .PK                SET     :239
  13E2          560: LEN                EQU     *
13E2 00         561: :23A               +0




ASM/6800 1.3H4: 13E3                    
08/16/82 00:00:00; Page 15; Form 1      
B2.ASM
13E3 00         562:                    +0
13E4 00         563:                    +0
13E5 13D4       564:                    #.PK
13E7 83         565:                    +$80+:13A-*-1
13E8 4C454E     566:                    FCC     "LEN"
  13EB          567: :13A               EQU     *
  13E2          568: .PK                SET     :23A
  13EB          569: MAXLEN             EQU     *
13EB 00         570: :23B               +0
13EC 00         571:                    +0
13ED 00         572:                    +0
13EE 13E2       573:                    #.PK
13F0 86         574:                    +$80+:13B-*-1
13F1 4D41584C   575:                    FCC     "MAXLEN"
  13F7          576: :13B               EQU     *
  13EB          577: .PK                SET     :23B
  13F7          578: LEFT$              EQU     *
13F7 00         579: :23C               +0
13F8 00         580:                    +0
13F9 00         581:                    +0
13FA 13EB       582:                    #.PK
13FC 85         583:                    +$80+:13C-*-1
13FD 4C454654   584:                    FCC     "LEFT$"
  1402          585: :13C               EQU     *
  13F7          586: .PK                SET     :23C
  1402          587: MID$               EQU     *
1402 00         588: :23D               +0
1403 00         589:                    +0
1404 00         590:                    +0
1405 13F7       591:                    #.PK
1407 84         592:                    +$80+:13D-*-1
1408 4D494424   593:                    FCC     "MID$"
  140C          594: :13D               EQU     *
  1402          595: .PK                SET     :23D
  140C          596: RIGHT$             EQU     *
140C 00         597: :23E               +0
140D 00         598:                    +0
140E 00         599:                    +0
140F 1402       600:                    #.PK
1411 86         601:                    +$80+:13E-*-1




ASM/6800 1.3H4: 1412                    
08/16/82 00:00:00; Page 16; Form 1      
B2.ASM
1412 52494748   602:                    FCC     "RIGHT$"
  1418          603: :13E               EQU     *
  140C          604: .PK                SET     :23E
  1418          605: ASC                EQU     *
1418 00         606: :23F               +0
1419 00         607:                    +0
141A 00         608:                    +0
141B 140C       609:                    #.PK
141D 83         610:                    +$80+:13F-*-1
141E 415343     611:                    FCC     "ASC"
  1421          612: :13F               EQU     *
  1418          613: .PK                SET     :23F
  1421          614: CHR$               EQU     *
1421 00         615: :240               +0
1422 00         616:                    +0
1423 00         617:                    +0
1424 1418       618:                    #.PK
1426 84         619:                    +$80+:140-*-1
1427 43485224   620:                    FCC     "CHR$"
  142B          621: :140               EQU     *
  1421          622: .PK                SET     :240
  142B          623: COM                EQU     *
142B 00         624: :241               +0
142C 00         625:                    +0
142D 00         626:                    +0
142E 1421       627:                    #.PK
1430 83         628:                    +$80+:141-*-1
1431 434F4D     629:                    FCC     "COM"
  1434          630: :141               EQU     *
  142B          631: .PK                SET     :241
  1434          632: ATN                EQU     *
1434 00         633: :242               +0
1435 00         634:                    +0
1436 00         635:                    +0
1437 142B       636:                    #.PK
1439 83         637:                    +$80+:142-*-1
143A 41544E     638:                    FCC     "ATN"
  143D          639: :142               EQU     *
  1434          640: .PK                SET     :242
  143D          641: SIN                EQU     *




ASM/6800 1.3H4: 143D                    
08/16/82 00:00:00; Page 17; Form 1      
B2.ASM
143D 00         642: :243               +0
143E 00         643:                    +0
143F 00         644:                    +0
1440 1434       645:                    #.PK
1442 83         646:                    +$80+:143-*-1
1443 53494E     647:                    FCC     "SIN"
  1446          648: :143               EQU     *
  143D          649: .PK                SET     :243
  1446          650: COS                EQU     *
1446 00         651: :244               +0
1447 00         652:                    +0
1448 00         653:                    +0
1449 143D       654:                    #.PK
144B 83         655:                    +$80+:144-*-1
144C 434F53     656:                    FCC     "COS"
  144F          657: :144               EQU     *
  1446          658: .PK                SET     :244
  144F          659: TAN                EQU     *
144F 00         660: :245               +0
1450 00         661:                    +0
1451 00         662:                    +0
1452 1446       663:                    #.PK
1454 83         664:                    +$80+:145-*-1
1455 54414E     665:                    FCC     "TAN"
  1458          666: :145               EQU     *
  144F          667: .PK                SET     :245
  1458          668: LOG                EQU     *
1458 00         669: :246               +0
1459 00         670:                    +0
145A 00         671:                    +0
145B 144F       672:                    #.PK
145D 83         673:                    +$80+:146-*-1
145E 4C4F47     674:                    FCC     "LOG"
  1461          675: :146               EQU     *
  1458          676: .PK                SET     :246
  1461          677: EXP                EQU     *
1461 00         678: :247               +0
1462 00         679:                    +0
1463 00         680:                    +0
1464 1458       681:                    #.PK




ASM/6800 1.3H4: 1466                    
08/16/82 00:00:00; Page 18; Form 1      
B2.ASM
1466 83         682:                    +$80+:147-*-1
1467 455850     683:                    FCC     "EXP"
  146A          684: :147               EQU     *
  1461          685: .PK                SET     :247
  146A          686: SQR                EQU     *
146A 00         687: :248               +0
146B 00         688:                    +0
146C 00         689:                    +0
146D 1461       690:                    #.PK
146F 83         691:                    +$80+:148-*-1
1470 535152     692:                    FCC     "SQR"
  1473          693: :148               EQU     *
  146A          694: .PK                SET     :248
  1473          695: INT                EQU     *
1473 00         696: :249               +0
1474 00         697:                    +0
1475 00         698:                    +0
1476 146A       699:                    #.PK
1478 83         700:                    +$80+:149-*-1
1479 494E54     701:                    FCC     "INT"
  147C          702: :149               EQU     *
  1473          703: .PK                SET     :249
  147C          704: ABS                EQU     *
147C 00         705: :24A               +0
147D 00         706:                    +0
147E 00         707:                    +0
147F 1473       708:                    #.PK
1481 83         709:                    +$80+:14A-*-1
1482 414253     710:                    FCC     "ABS"
  1485          711: :14A               EQU     *
  147C          712: .PK                SET     :24A
  1485          713: SGN                EQU     *
1485 00         714: :24B               +0
1486 00         715:                    +0
1487 00         716:                    +0
1488 147C       717:                    #.PK
148A 83         718:                    +$80+:14B-*-1
148B 53474E     719:                    FCC     "SGN"
  148E          720: :14B               EQU     *
  1485          721: .PK                SET     :24B




ASM/6800 1.3H4: 148B                    
08/16/82 00:00:00; Page 19; Form 1      
B2.ASM
  148E          722: COL                EQU     *
148E 00         723: :24C               +0
148F 00         724:                    +0
1490 00         725:                    +0
1491 1485       726:                    #.PK
1493 83         727:                    +$80+:14C-*-1
1494 434F4C     728:                    FCC     "COL"
  1497          729: :14C               EQU     *
  148E          730: .PK                SET     :24C
  1497          731: VAL                EQU     *
1497 00         732: :24D               +0
1498 00         733:                    +0
1499 00         734:                    +0
149A 148E       735:                    #.PK
149C 83         736:                    +$80+:14D-*-1
149D 56414C     737:                    FCC     "VAL"
  14A0          738: :14D               EQU     *
  1497          739: .PK                SET     :24D
  14A0          740: PEEK               EQU     *
14A0 00         741: :24E               +0
14A1 00         742:                    +0
14A2 00         743:                    +0
14A3 1497       744:                    #.PK
14A5 84         745:                    +$80+:14E-*-1
14A6 5045454B   746:                    FCC     "PEEK"
  14AA          747: :14E               EQU     *
  14A0          748: .PK                SET     :24E
  14AA          749: FIND               EQU     *
14AA 00         750: :24F               +0
14AB 00         751:                    +0
14AC 00         752:                    +0
14AD 14A0       753:                    #.PK
14AF 84         754:                    +$80+:14F-*-1
14B0 46494E44   755:                    FCC     "FIND"
  14B4          756: :14F               EQU     *
  14AA          757: .PK                SET     :24F
  14B4          758: RND                EQU     *
14B4 00         759: :250               +0
14B5 00         760:                    +0
14B6 00         761:                    +0




ASM/6800 1.3H4: 14B7                    
08/16/82 00:00:00; Page 20; Form 1      
B2.ASM
14B7 14AA       762:                    #.PK
14B9 83         763:                    +$80+:150-*-1
14BA 524E44     764:                    FCC     "RND"
  14BD          765: :150               EQU     *
  14B4          766: .PK                SET     :250
  14BD          767: ERR                EQU     *
14BD 00         768: :251               +0
14BE 00         769:                    +0
14BF 00         770:                    +0
14C0 14B4       771:                    #.PK
14C2 83         772:                    +$80+:151-*-1
14C3 455252     773:                    FCC     "ERR"
  14C6          774: :151               EQU     *
  14BD          775: .PK                SET     :251
  14C6          776: PI                 EQU     *
14C6 00         777: :252               +0
14C7 00         778:                    +0
14C8 00         779:                    +0
14C9 14BD       780:                    #.PK
14CB 82         781:                    +$80+:152-*-1
14CC 5049       782:                    FCC     "PI"
  14CE          783: :152               EQU     *
  14C6          784: .PK                SET     :252
  14CE          785: AND                EQU     *
14CE 00         786: :253               +0
14CF 00         787:                    +0
14D0 00         788:                    +0
14D1 14C6       789:                    #.PK
14D3 83         790:                    +$80+:153-*-1
14D4 414E44     791:                    FCC     "AND"
  14D7          792: :153               EQU     *
  14CE          793: .PK                SET     :253
  14D7          794: OR                 EQU     *
14D7 00         795: :254               +0
14D8 00         796:                    +0
14D9 00         797:                    +0
14DA 14CE       798:                    #.PK
14DC 82         799:                    +$80+:154-*-1
14DD 4F52       800:                    FCC     "OR"
  14DF          801: :154               EQU     *




ASM/6800 1.3H4: 14DD                    
08/16/82 00:00:00; Page 21; Form 1      
B2.ASM
  14D7          802: .PK                SET     :254
  14DF          803: NOT                EQU     *
14DF 00         804: :255               +0
14E0 00         805:                    +0
14E1 00         806:                    +0
14E2 14D7       807:                    #.PK
14E4 83         808:                    +$80+:155-*-1
14E5 4E4F54     809:                    FCC     "NOT"
  14E8          810: :155               EQU     *
  14DF          811: .PK                SET     :255
  14E8          812: EOF                EQU     *
14E8 00         813: :256               +0
14E9 00         814:                    +0
14EA 00         815:                    +0
14EB 14DF       816:                    #.PK
14ED 83         817:                    +$80+:156-*-1
14EE 454F46     818:                    FCC     "EOF"
  14F1          819: :156               EQU     *
  14E8          820: .PK                SET     :256
  14F1          821: ROWS               EQU     *
14F1 00         822: :257               +0
14F2 00         823:                    +0
14F3 00         824:                    +0
14F4 14E8       825:                    #.PK
14F6 84         826:                    +$80+:157-*-1
14F7 524F5753   827:                    FCC     "ROWS"
  14FB          828: :157               EQU     *
  14F1          829: .PK                SET     :257
  14FB          830: COLUMNS            EQU     *
14FB 00         831: :258               +0
14FC 00         832:                    +0
14FD 00         833:                    +0
14FE 14F1       834:                    #.PK
1500 87         835:                    +$80+:158-*-1
1501 434F4C55   836:                    FCC     "COLUMNS"
  1508          837: :158               EQU     *
  14FB          838: .PK                SET     :258
  1508          839: TRUE               EQU     *
1508 00         840: :259               +0
1509 00         841:                    +0




ASM/6800 1.3H4: 150A                    
08/16/82 00:00:00; Page 22; Form 1      
B2.ASM
150A 00         842:                    +0
150B 14FB       843:                    #.PK
150D 84         844:                    +$80+:159-*-1
150E 54525545   845:                    FCC     "TRUE"
  1512          846: :159               EQU     *
  1508          847: .PK                SET     :259
  1512          848: FALSE              EQU     *
1512 00         849: :25A               +0
1513 00         850:                    +0
1514 00         851:                    +0
1515 1508       852:                    #.PK
1517 85         853:                    +$80+:15A-*-1
1518 46414C53   854:                    FCC     "FALSE"
  151D          855: :15A               EQU     *
  1512          856: .PK                SET     :25A
  151D          857: XOR                EQU     *
151D 00         858: :25B               +0
151E 00         859:                    +0
151F 00         860:                    +0
1520 1512       861:                    #.PK
1522 83         862:                    +$80+:15B-*-1
1523 584F52     863:                    FCC     "XOR"
  1526          864: :15B               EQU     *
  151D          865: .PK                SET     :25B
  1526          866: CAT                EQU     *
1526 00         867: :25C               +0
1527 00         868:                    +0
1528 00         869:                    +0
1529 151D       870:                    #.PK
152B 83         871:                    +$80+:15C-*-1
152C 434154     872:                    FCC     "CAT"
  152F          873: :15C               EQU     *
  1526          874: .PK                SET     :25C
  152F          875: DATE$              EQU     *
152F 00         876: :25D               +0
1530 00         877:                    +0
1531 00         878:                    +0
1532 1526       879:                    #.PK
1534 85         880:                    +$80+:15D-*-1
1535 44415445   881:                    FCC     "DATE$"




ASM/6800 1.3H4: 1539                    
08/16/82 00:00:00; Page 23; Form 1      
B2.ASM
  153A          882: :15D               EQU     *
  152F          883: .PK                SET     :25D
  153A          884: TIME$              EQU     *
153A 00         885: :25E               +0
153B 00         886:                    +0
153C 00         887:                    +0
153D 152F       888:                    #.PK
153F 85         889:                    +$80+:15E-*-1
1540 54494D45   890:                    FCC     "TIME$"
  1545          891: :15E               EQU     *
  153A          892: .PK                SET     :25E
  1545          893: COPYRIGHT$         EQU     *
1545 00         894: :25F               +0
1546 00         895:                    +0
1547 00         896:                    +0
1548 153A       897:                    #.PK
154A 8A         898:                    +$80+:15F-*-1
154B 434F5059   899:                    FCC     "COPYRIGHT$"
  1555          900: :15F               EQU     *
  1545          901: .PK                SET     :25F
  1555          902: NUM$               EQU     *
1555 00         903: :260               +0
1556 00         904:                    +0
1557 00         905:                    +0
1558 1545       906:                    #.PK
155A 84         907:                    +$80+:160-*-1
155B 4E554D24   908:                    FCC     "NUM$"
  155F          909: :160               EQU     *
  1555          910: .PK                SET     :260
  155F          911: NUMF$              EQU     *
155F 00         912: :261               +0
1560 00         913:                    +0
1561 00         914:                    +0
1562 1555       915:                    #.PK
1564 85         916:                    +$80+:161-*-1
1565 4E554D46   917:                    FCC     "NUMF$"
  156A          918: :161               EQU     *
  155F          919: .PK                SET     :261
  156A          920: HEX$               EQU     *
156A 00         921: :262               +0




ASM/6800 1.3H4: 156B                    
08/16/82 00:00:00; Page 24; Form 1      
B2.ASM
156B 00         922:                    +0
156C 00         923:                    +0
156D 155F       924:                    #.PK
156F 84         925:                    +$80+:162-*-1
1570 48455824   926:                    FCC     "HEX$"
  1574          927: :162               EQU     *
  156A          928: .PK                SET     :262
  1574          929: UPPERCASE$         EQU     *
1574 00         930: :263               +0
1575 00         931:                    +0
1576 00         932:                    +0
1577 156A       933:                    #.PK
1579 8A         934:                    +$80+:163-*-1
157A 55505045   935:                    FCC     "UPPERCASE$"
  1584          936: :163               EQU     *
  1574          937: .PK                SET     :263
  1584          938: LOWERCASE$         EQU     *
1584 00         939: :264               +0
1585 00         940:                    +0
1586 00         941:                    +0
1587 1574       942:                    #.PK
1589 8A         943:                    +$80+:164-*-1
158A 4C4F5745   944:                    FCC     "LOWERCASE$"
  1594          945: :164               EQU     *
  1584          946: .PK                SET     :264
  1584          947: .KEYWORDLIST       EQU     .PK
  0000          948: .VC                SET     0
  0000          949: COMPILEPHASE       EQU     .VC
  0001          950: .VC                SET     .VC+1
  0000          951: .VV                SET     0
  0000          952: COMPILINGPGMORIGIN EQU     .VV
  0001          953: .VV                SET     .VV+1
  0001          954: COMPILINGCATSIZE   EQU     .VV
  0002          955: .VV                SET     .VV+1
  0002          956: COMPILINGDATAORIGIN        EQU             .VV
  0003          957: .VV                SET     .VV+1
  0003          958: COMPILINGCOMMON    EQU     .VV
  0004          959: .VV                SET     .VV+1
  0004          960: COMPILINGDIMS      EQU     .VV
  0005          961: .VV                SET     .VV+1




ASM/6800 1.3H4: 1592                    
08/16/82 00:00:00; Page 25; Form 1      
B2.ASM
  0005          962: COMPILINGSTMTS     EQU     .VV
  0006          963: .VV                SET     .VV+1
  0006          964: COMPILEDONE        EQU     .VV
  0007          965: .VV                SET     .VV+1
  0001          966: RESULT             EQU     .VC
  0002          967: .VC                SET     .VC+1
  0000          968: .VV                SET     0
  0000          969: NUMORBOOLTYPE      EQU     .VV
  0001          970: .VV                SET     .VV+1
  0001          971: NUMERICTYPE        EQU     .VV
  0002          972: .VV                SET     .VV+1
  0002          973: BOOLTYPE           EQU     .VV
  0003          974: .VV                SET     .VV+1
  0003          975: NUMBOOLORSTRTYPE   EQU     .VV
  0004          976: .VV                SET     .VV+1
  0004          977: NUMORSTRTYPE       EQU     .VV
  0005          978: .VV                SET     .VV+1
  0005          979: STRINGTYPE         EQU     .VV
  0006          980: .VV                SET     .VV+1
  0006          981: ADDRESSANYTYPE     EQU     .VV
  0007          982: .VV                SET     .VV+1
  0007          983: ADDRESSSCALARTYPE  EQU     .VV
  0008          984: .VV                SET     .VV+1
  0008          985: ADDRESSARRAYTYPE   EQU     .VV
  0009          986: .VV                SET     .VV+1
  0003          987: ERRORRULE          EQU     .TC
  0004          988: .TC                SET     .TC+1
  1594          989: .                  SET     *
  0C8F          990:                    ORG     ERRORRULE*2+.TA
0C8F 1594       991:                    #.
  1594          992:                    ORG     .
                993: *                  ERROR HANDLER
                994: *                  SCAN UNTIL <CR> OR '\ IS SEEN
                995: *
  000D          996: SUCCESS            EQU     $0D
  000C          997: FAILURE            EQU     $0C
                998: 
  1594          999: ERRORTOKEN
1594 BD0107    1000:                    JSR     GETTOKENCHAR    GO GET A CHARACTER
1597 36        1001:                    PSHA




ASM/6800 1.3H4: 1598                    
08/16/82 00:00:00; Page 26; Form 1      
B2.ASM
1598 BD010D    1002:                    JSR     EATTOKEN        YUM!
159B 32        1003:                    PULA
159C 815C      1004:                    CMPA    #'\             CHECK FOR END OF STATEMENT
159E 2704      1005:                    BEQ     ERRORSKIPPED    B/ THAT'S ENOUGH...
15A0 810D      1006:                    CMPA    #$0D            END OF LINE MARK ?
15A2 26F0      1007:                    BNE     ERRORTOKEN      B/ NO, GO EAT SOME MORE
15A4 BD0107    1008: ERRORSKIPPED       JSR     GETTOKENCHAR    NOW EAT UP ALL EMPTY LINES
15A7 810D      1009:                    CMPA    #$D             ANOTHER END OF LINE ?
15A9 2605      1010:                    BNE     ERRORSKIPPED1   B/ NO, MIGHT BE TIME TO LEAVE
15AB BD010D    1011: ERRORSKIPPED2      JSR     EATTOKEN        YES, SWALLOW IT WHOLE...
15AE 20F4      1012:                    BRA     ERRORSKIPPED    AND LOOP
15B0 810C      1013: ERRORSKIPPED1      CMPA    #$C             ALLOW FORM FEED HERE, TOO...
15B2 27F7      1014:                    BEQ     ERRORSKIPPED2   B/ GO EAT
15B4 BD010A    1015:                    JSR     BACKUP          OOPS, WENT TOO FAR...
15B7 0C        1016: ERRORDONE          FAILURE                 (HE SEZ, WITH A SMIRK ON HIS FACE...)
15B8 39        1017:                    RTS
  0004         1018: DEBLANK            EQU     .TC
  0005         1019: .TC                SET     .TC+1
  15B9         1020: .                  SET     *
  0C91         1021:                    ORG     DEBLANK*2+.TA
0C91 15B9      1022:                    #.
  15B9         1023:                    ORG     .
               1024: *                  DEBLANK THE INPUT
               1025: *
15B9 BD010D    1026: DEBLANKL           JSR     EATTOKEN        MAKE THE BLANK DISAPPEAR
15BC BD0107    1027: DEBLANKTOKEN       JSR     GETTOKENCHAR    GET NEXT INPUT BYTE
15BF 8120      1028:                    CMPA    #'              A BLANK ?
15C1 27F6      1029:                    BEQ     DEBLANKL        B/ YES, "GULP!"
15C3 8109      1030:                    CMPA    #$9             TAB ?
15C5 27F2      1031:                    BEQ     DEBLANKL        B/ YES, EAT THESE, TOO!
15C7 812E      1032:                    CMPA    #'.             LINE CONTINUATION MARK?
15C9 2625      1033:                    BNE     DEBLANK1        B/ NOPE, END OF BLANKS ENCOUNTERED
15CB BD0107    1034:                    JSR     GETTOKENCHAR    LOOKS LIKE START, SCAN A LITTLE FURTHER
15CE 812E      1035:                    CMPA    #'.             ...?
15D0 261B      1036:                    BNE     DEBLANK2        B/ NOT CONTINUATION
15D2 BD0107    1037:                    JSR     GETTOKENCHAR    ...?
15D5 812E      1038:                    CMPA    #'.             ...?
15D7 2611      1039:                    BNE     DEBLANK3        B/ NOT CONTINUATION
15D9 BD0107    1040:                    JSR     GETTOKENCHAR    ...?
15DC 810D      1041:                    CMPA    #$D             "...<CR>..."?




ASM/6800 1.3H4: 15DE                    
08/16/82 00:00:00; Page 27; Form 1      
B2.ASM
15DE 2607      1042:                    BNE     DEBLANK4
15E0 BD0107    1043:                    JSR     GETTOKENCHAR    ...?
15E3 8126      1044:                    CMPA    #'&             COMPLETE "..."<0D>"&" SEQUENCE ?
15E5 27D2      1045:                    BEQ     DEBLANKL        B/ YES, SWALLOW IT!
15E7 BD010A    1046: DEBLANK4           JSR     BACKUP
15EA BD010A    1047: DEBLANK3           JSR     BACKUP
15ED BD010A    1048: DEBLANK2           JSR     BACKUP
15F0 BD010A    1049: DEBLANK1           JSR     BACKUP
15F3 0C        1050:                    FAILURE                 ANOTHER WHITE LIE...
15F4 39        1051:                    RTS
  0005         1052: KEYWORD            EQU     .TC
  0006         1053: .TC                SET     .TC+1
  15F5         1054: .                  SET     *
  0C93         1055:                    ORG     KEYWORD*2+.TA
0C93 15F5      1056:                    #.
  15F5         1057:                    ORG     .
               1058: *                  TEST FOR KEYWORD = SID OR NID
               1059: *                  'A'-'Z' $( 'A'-'Z' / '0'-'9' ) ( '$'  / .EMPTY );
               1060: *
  15F5         1061: KEYWORDTOKEN       ; TELL METAMACHINE WHERE KEYWORD RULE IS
15F5 BD0107    1062:                    JSR     GETTOKENCHAR    GET ME AN INPUT CHARACTER
15F8 8D33      1063:                    BSR     ISLETTER        CHECK FIRST CHARACTER
15FA 242A      1064:                    BCC     NIDFAIL         B/ ISN'T AN ID
15FC BD0107    1065: KEYLOOP            JSR     GETTOKENCHAR    APPARANTLY AN ID, FINISH SCAN
15FF 8D2C      1066:                    BSR     ISLETTER
1601 25F9      1067:                    BCS     KEYLOOP         B/ YES, KEEP GOING
1603 8D62      1068:                    BSR     ISDIGIT
1605 25F5      1069:                    BCS     KEYLOOP         B/ YES, KEEP GOING
1607 8124      1070:                    CMPA    #'$             DOES IT APPEAR TO BE A STRING ID?
1609 2703      1071:                    BEQ     KEYOK           B/ YEP, MUST BE A VALID NUMERIC ID
160B BD010A    1072:                    JSR     BACKUP          DON'T COUNT THE LAST CHARACTER
160E 0D        1073: KEYOK              SUCCESS                 ALL IS WELL
160F 39        1074:                    RTS
  0006         1075: NID                EQU     .TC
  0007         1076: .TC                SET     .TC+1
  1610         1077: .                  SET     *
  0C95         1078:                    ORG     NID*2+.TA
0C95 1610      1079:                    #.
  1610         1080:                    ORG     .
               1081: *                  TEST FOR NUMERIC IDENTIFIER




ASM/6800 1.3H4: 0C95                    
08/16/82 00:00:00; Page 28; Form 1      
B2.ASM
               1082: *                  'A'-'Z' $( 'A'-'Z' / '0'-'9' ) #'$' ;
               1083: *
1610 BD0107    1084:                    JSR     GETTOKENCHAR    GET ME AN INPUT CHARACTER
1613 8D18      1085:                    BSR     ISLETTER        CHECK FIRST CHARACTER
1615 240F      1086:                    BCC     NIDFAIL         B/ ISN'T AN ID
1617 BD0107    1087: NIDLOOP            JSR     GETTOKENCHAR    APPARANTLY AN ID, FINISH SCAN
161A 8D11      1088:                    BSR     ISLETTER
161C 25F9      1089:                    BCS     NIDLOOP         B/ YES, KEEP GOING
161E 8D47      1090:                    BSR     ISDIGIT
1620 25F5      1091:                    BCS     NIDLOOP         B/ YES, KEEP GOING
1622 8124      1092:                    CMPA    #'$             DOES IT APPEAR TO BE A STRING ID?
1624 2602      1093:                    BNE     NIDOK           B/ NOPE, MUST BE A VALID NUMERIC ID
1626 0C        1094: NIDFAIL            FAILURE                 DON'T RECOGNIZE STRING IDS IN NUMERIC CONTE
1627 39        1095:                    RTS
1628 BD010A    1096: NIDOK              JSR     BACKUP          DON'T COUNT THE LAST CHARACTER
162B 0D        1097:                    SUCCESS                 ALL IS WELL
162C 39        1098:                    RTS
               1099: *
               1100: *                  CHARACTER CHECK ROUTINES
               1101: *
162D 8141      1102: ISLETTER           CMPA    #'A             IS IT A LETTER ?
162F 250B      1103:                    BCS     ISNTLETTER
1631 815B      1104:                    CMPA    #'Z+1
1633 2506      1105:                    BCS     ISLETTERRTS
1635 8161      1106:                    CMPA    #'A+$20         'A
1637 2503      1107:                    BCS     ISNTLETTER
1639 817B      1108:                    CMPA    #'Z+$21         'Z+1
163B 39        1109: ISLETTERRTS        RTS
163C 0C        1110: ISNTLETTER         CLC
163D 39        1111:                    RTS
  0007         1112: SID                EQU     .TC
  0008         1113: .TC                SET     .TC+1
  163E         1114: .                  SET     *
  0C97         1115:                    ORG     SID*2+.TA
0C97 163E      1116:                    #.
  163E         1117:                    ORG     .
               1118: *                  STRING ID TEST
               1119: *                  'A'-'Z' $( 'A'-'Z' / '0'-'9' ) '$' ;
163E BD0107    1120:                    JSR     GETTOKENCHAR    GET FIRST CHARACTER
1641 8DEA      1121:                    BSR     ISLETTER




ASM/6800 1.3H4: 1643                    
08/16/82 00:00:00; Page 29; Form 1      
B2.ASM
1643 2411      1122:                    BCC     SIDFAIL         B/ ISN'T STRING ID
1645 BD0107    1123: SIDLOOP            JSR     GETTOKENCHAR    APPEARS TO BE STRING ID, CONTINUE SCAN
1648 8DE3      1124:                    BSR     ISLETTER
164A 25F9      1125:                    BCS     SIDLOOP
164C 8D19      1126:                    BSR     ISDIGIT
164E 25F5      1127:                    BCS     SIDLOOP
1650 8124      1128:                    CMPA    #'$             TRAILING '$' PRESENT ?
1652 2602      1129:                    BNE     SIDFAIL         B/ NOT A STRING ID
1654 0D        1130:                    SUCCESS                 IS A STRING ID!
1655 39        1131:                    RTS
1656 0C        1132: SIDFAIL            FAILURE 
1657 39        1133:                    RTS
               1134: *
               1135: *                  ISHEX -- CHECK (A) TO SEE IF A HEX DIGIT
               1136: *                  RETURNS CARRY SET IF YES
               1137: *
1658 8141      1138: ISHEX              CMPA    #'A             IS IT A HEX DIGIT ?
165A 250B      1139:                    BCS     ISDIGIT         B/ NOT THE LETTER TYPE
165C 8147      1140:                    CMPA    #'F+1
165E 250D      1141:                    BCS     ISDIGITRTS
1660 8161      1142:                    CMPA    #'A+$20         'A
1662 250A      1143:                    BCS     ISDIGITFAIL
1664 8167      1144:                    CMPA    #'F+$21         'F+1
1666 39        1145:                    RTS
               1146: *
               1147: *                  ISDIGIT -- CHECK (A) TO SEE IF A DIGIT
               1148: *                  RETURNS CARRY SET IF YES
1667 8130      1149: ISDIGIT            CMPA    #'0
1669 2503      1150:                    BCS     ISDIGITFAIL
166B 813A      1151:                    CMPA    #'9+1
166D 39        1152: ISDIGITRTS         RTS
166E 0C        1153: ISDIGITFAIL        CLC
166F 39        1154:                    RTS
  0008         1155: ONEDIGITNUM        EQU     .TC
  0009         1156: .TC                SET     .TC+1
  1670         1157: .                  SET     *
  0C99         1158:                    ORG     ONEDIGITNUM*2+.TA
0C99 1670      1159:                    #.
  1670         1160:                    ORG     .
               1161: *                  TEST FOR SINGLE DIGIT NUMBER




ASM/6800 1.3H4: 0C99                    
08/16/82 00:00:00; Page 30; Form 1      
B2.ASM
               1162: *                  '0'-'9' #'0'-'9' #'.' #'E' #'E' ;
1670 8D2E      1163:                    BSR     COLLECTINTEGER  GET THE VALUE OF AN INTEGER
1672 4D        1164:                    TSTA                    VALUE MUST BE 0-9 ONLY!
1673 2618      1165:                    BNE     NUMBERFAIL      B/ MORE THAN 255!
1675 C10A      1166:                    CMPB    #9+1
1677 2414      1167:                    BCC     NUMBERFAIL      B/ MORE THAN 9!
1679 BD0107    1168: VERIFYNOTFLOATING  JSR     GETTOKENCHAR    GET FOLLOWING CHARACTER
167C 812E      1169:                    CMPA    #'.             DECIMAL POINT ?
167E 270D      1170:                    BEQ     NUMBERFAIL      B/ YES, MUST BE FLOATING POINT
1680 8145      1171:                    CMPA    #'E             EXPONENT PREFIX ?
1682 2709      1172:                    BEQ     NUMBERFAIL      B/ YES, MUST BE FLOATING POINT
1684 8165      1173:                    CMPA    #'E+$20         'E...?
1686 2705      1174:                    BEQ     NUMBERFAIL      B/ YES, MUST BE FLOATING POINT
1688 BD010A    1175:                    JSR     BACKUP          REJECT LAST CHARACTER
168B 0D        1176:                    SUCCESS 
168C 39        1177:                    RTS
168D 0C        1178: NUMBERFAIL         FAILURE 
168E 39        1179:                    RTS
  0009         1180: TENTO255           EQU     .TC
  000A         1181: .TC                SET     .TC+1
  168F         1182: .                  SET     *
  0C9B         1183:                    ORG     TENTO255*2+.TA
0C9B 168F      1184:                    #.
  168F         1185:                    ORG     .
               1186: *                  TEST FOR VALUE IN RANGE OF 10 TO 255
               1187: *                  THE BNF FOR THIS IS A MESS, SO I'LL SKIP IT...
168F 8D0F      1188:                    BSR     COLLECTINTEGER
1691 4D        1189:                    TSTA                    CHECK FOR < 256...
1692 26F9      1190:                    BNE     NUMBERFAIL      B/ TOO BIG, REJECT IT
1694 C00A      1191:                    SUBB    #10             MAKE SURE VALUE IS >= 10...
1696 8200      1192:                    SBCA    #0
1698 24DF      1193:                    BCC     VERIFYNOTFLOATING B/ SEEMS TO BE PROPER SIZE
169A 0C        1194:                    FAILURE                 NO LUCK, QUIT NOW!
169B 39        1195:                    RTS
  000A         1196: NUM                EQU     .TC
  000B         1197: .TC                SET     .TC+1
  169C         1198: .                  SET     *
  0C9D         1199:                    ORG     NUM*2+.TA
0C9D 169C      1200:                    #.
  169C         1201:                    ORG     .




ASM/6800 1.3H4: 0C9D                    
08/16/82 00:00:00; Page 31; Form 1      
B2.ASM
               1202: *                  TEST FOR VALUE IN RANGE 0-65535
               1203: *                  AGAIN, THE BNF IS A MESS, SO YOU FIGURE IT OUT!
               1204: *
169C 8D02      1205:                    BSR     COLLECTINTEGER
169E 20D9      1206:                    BRA     VERIFYNOTFLOATING
               1207: *
               1208: *                  COLLECTINTEGER -- COLLECTS INTEGER VALUE NOT EXCEEDING 65535
               1209: *                  TAKES FAILURE IF NOT AN INTEGER OR > 65535
               1210: *
16A0 CE0000    1211: COLLECTINTEGER     LDX     #0              INITIAL VALUE
16A3 FF00D5    1212:                    STX     INTEGER
16A6 BD0107    1213:                    JSR     GETTOKENCHAR
16A9 8DBC      1214:                    BSR     ISDIGIT
16AB 243D      1215:                    BCC     COLLECTINTEGERFAIL B/ NOT AN INTEGER
  16AD         1216: COLLECTINTEGERLOOP EQU     *
16AD 8030      1217:                    SUBA    #'0             CONVERT INTEGER DIGIT TO BINARY
16AF 36        1218:                    PSHA
16B0 B600D5    1219:                    LDAA    INTEGER         MULTIPLY OLD VALUE BY 10
16B3 F600D6    1220:                    LDAB    INTEGER+1
16B6 58        1221:                    ASLB
16B7 49        1222:                    ROLA                    *2
16B8 252F      1223:                    BCS     COLLECTINTEGERFAIL1 B/ RESULT > 65535
16BA 58        1224:                    ASLB
16BB 49        1225:                    ROLA                    *4
16BC 252B      1226:                    BCS     COLLECTINTEGERFAIL1 B/ RESULT > 65535
16BE FB00D6    1227:                    ADDB    INTEGER+1
16C1 B900D5    1228:                    ADCA    INTEGER         *5
16C4 2523      1229:                    BCS     COLLECTINTEGERFAIL1 B/ RESULT > 65535
16C6 58        1230:                    ASLB
16C7 49        1231:                    ROLA                    *10
16C8 251F      1232:                    BCS     COLLECTINTEGERFAIL1 B/ RESULT > 65535
16CA 30        1233:                    TSX
16CB EB00      1234:                    ADDB    0,X             ADD IN THE NEW DIGIT
16CD 8900      1235:                    ADCA    #0
16CF 2518      1236:                    BCS     COLLECTINTEGERFAIL1 B/ RESULT > 65535
16D1 31        1237:                    INS                     POP THE DIGIT OFF THE STACK
16D2 B700D5    1238:                    STAA    INTEGER
16D5 F700D6    1239:                    STAB    INTEGER+1
16D8 BD0107    1240:                    JSR     GETTOKENCHAR    GRAB THE NEXT INPUT STREAM CHARACTER
16DB 8D8A      1241:                    BSR     ISDIGIT         MEANT FOR US ?




ASM/6800 1.3H4: 16DD                    
08/16/82 00:00:00; Page 32; Form 1      
B2.ASM
16DD 25CE      1242:                    BCS     COLLECTINTEGERLOOP B/ YEP, GO PROCESS
16DF BD010A    1243:                    JSR     BACKUP          NO, SO REJECT IT
16E2 B600D5    1244:                    LDAA    INTEGER         GET THE VALUE
16E5 F600D6    1245:                    LDAB    INTEGER+1
16E8 39        1246:                    RTS
               1247: 
16E9 31        1248: COLLECTINTEGERFAIL1        INS              POP DIGIT FROM STACK
16EA 31        1249: COLLECTINTEGERFAIL INS                     POP RETURN ADDRESS FROM STACK
16EB 31        1250:                    INS
16EC 0C        1251:                    FAILURE 
16ED 39        1252:                    RTS
  000B         1253: HEXNUM             EQU     .TC
  000C         1254: .TC                SET     .TC+1
  16EE         1255: .                  SET     *
  0C9F         1256:                    ORG     HEXNUM*2+.TA
0C9F 16EE      1257:                    #.
  16EE         1258:                    ORG     .
               1259: *                  HEXADECIMAL NUMBER TEST
               1260: *
16EE BD0107    1261:                    JSR     GETTOKENCHAR     GET 1ST CHARACTER
16F1 BD1658    1262:                    JSR     ISHEX
16F4 241F      1263:                    BCC     HEXNUMFAIL      B/ NOT HEX
16F6 BD0107    1264:                    JSR     GETTOKENCHAR
16F9 BD1658    1265:                    JSR     ISHEX
16FC 2412      1266:                    BCC     HEXNUMDONE
16FE BD0107    1267:                    JSR     GETTOKENCHAR
1701 BD1658    1268:                    JSR     ISHEX
1704 240A      1269:                    BCC     HEXNUMDONE
1706 BD0107    1270:                    JSR     GETTOKENCHAR
1709 BD1658    1271:                    JSR     ISHEX
170C 2402      1272:                    BCC     HEXNUMDONE
170E 0D        1273:                    SUCCESS                 GOT 4 DIGITS, THAT'S ENOUGH...
170F 39        1274:                    RTS
               1275: 
1710 BD010A    1276: HEXNUMDONE         JSR     BACKUP          REJECT NON-HEX CHARACTER
1713 0D        1277:                    SUCCESS 
1714 39        1278:                    RTS
1715 0C        1279: HEXNUMFAIL         FAILURE 
1716 39        1280:                    RTS
  000C         1281: STRINGGUTS         EQU     .TC




ASM/6800 1.3H4: 1716                    
08/16/82 00:00:00; Page 33; Form 1      
B2.ASM
  000D         1282: .TC                SET     .TC+1
  1717         1283: .                  SET     *
  0CA1         1284:                    ORG     STRINGGUTS*2+.TA
0CA1 1717      1285:                    #.
  1717         1286:                    ORG     .
               1287: *                  STRING GUTS
               1288: *                  $( #'"' #:D #"'" :0-:7F );
1717 BD0107    1289: STRINGGUTSL        JSR     GETTOKENCHAR
171A 8127      1290:                    CMPA    #''             SINGLE QUOTE ?
171C 2708      1291:                    BEQ     STRINGGUTSOK
171E 8122      1292:                    CMPA    #'"             DOUBLE QUOTE ?
1720 2704      1293:                    BEQ     STRINGGUTSOK
1722 810D      1294:                    CMPA    #$D
1724 26F1      1295:                    BNE     STRINGGUTSL
1726 BD010A    1296: STRINGGUTSOK       JSR     BACKUP
1729 0D        1297:                    SUCCESS
172A 39        1298:                    RTS
  000D         1299: STRING             EQU     .TC
  000E         1300: .TC                SET     .TC+1
  172B         1301: .                  SET     *
  0CA3         1302:                    ORG     STRING*2+.TA
0CA3 172B      1303:                    #.
  172B         1304:                    ORG     .
               1305: *                  STRING TEST
               1306: *                  "'" $( #"'" :0-:7F ) "'" / '"' $( #'"' :0-:7F ) '"' ;
172B BD0107    1307:                    JSR     GETTOKENCHAR
172E 8127      1308:                    CMPA    #''             SINGLE QUOTE ?
1730 2704      1309:                    BEQ     STRING1         B/ YES, LOOKS LIKE STRING
1732 8122      1310:                    CMPA    #'"             DOUBLE QUOTE ?
1734 260F      1311:                    BNE     STRINGFAIL      B/ NO
  1736         1312: STRING1
1736 B71752    1313:                    STAA    STRINGQUOTE
  1739         1314: STRINGLOOP
1739 BD1747    1315:                    JSR     GETSTRINGBODYCHAR
173C 26FB      1316:                    BNE     STRINGLOOP
  173E         1317: STRINGEXIT         ; CHECK FOR STRING TERMINATED PROPERLY
173E B11752    1318:                    CMPA    STRINGQUOTE
1741 2602      1319:                    BNE     STRINGFAIL
1743 0D        1320:                    SUCCESS
1744 39        1321:                    RTS




ASM/6800 1.3H4: 1745                    
08/16/82 00:00:00; Page 34; Form 1      
B2.ASM
1745 0C        1322: STRINGFAIL         FAILURE 
1746 39        1323:                    RTS
               1324: 
  1747         1325: GETSTRINGBODYCHAR
1747 BD0107    1326:                    JSR     GETTOKENCHAR    GET A CHARACTER FROM THE STRING BODY
174A 810D      1327:                    CMPA    #$D             MALFORMED STRING ?
174C 2703      1328:                    BEQ     GETSTRINGBODYCHARXIT B/ YES
174E B11752    1329:                    CMPA    STRINGQUOTE     END OF STRING ?
1751 39        1330: GETSTRINGBODYCHARXIT       RTS
1752 00        1331: STRINGQUOTE        FCB     0
  000E         1332: CHAR               EQU     .TC
  000F         1333: .TC                SET     .TC+1
  1753         1334: .                  SET     *
  0CA5         1335:                    ORG     CHAR*2+.TA
0CA5 1753      1336:                    #.
  1753         1337:                    ORG     .
               1338: *                  SINGLE CHARACTER STRING TEST
               1339: *
               1340: *                  "'" #:D :0-:7F "'" / '"' #:D :0-:7F '"' ;
1753 BD0107    1341:                    JSR     GETTOKENCHAR
1756 8127      1342:                    CMPA    #''             SINGLE QUOTE ?
1758 2706      1343:                    BEQ     CHARSQ
175A 8122      1344:                    CMPA    #'"             DOUBLE QUOTE ?
175C 2712      1345:                    BEQ     CHARDQ
175E 0C        1346:                    FAILURE 
175F 39        1347:                    RTS
               1348: 
1760 BD0107    1349: CHARSQ             JSR     GETTOKENCHAR
1763 810D      1350:                    CMPA    #$D             CARRIAGE RETURN ?
1765 2719      1351:                    BEQ     CHARFAIL
1767 BD0107    1352:                    JSR     GETTOKENCHAR
176A 8127      1353:                    CMPA    #''
176C 2612      1354:                    BNE     CHARFAIL
176E 0D        1355:                    SUCCESS 
176F 39        1356:                    RTS
               1357: 
1770 BD0107    1358: CHARDQ             JSR     GETTOKENCHAR
1773 810D      1359:                    CMPA    #$D
1775 2709      1360:                    BEQ     CHARFAIL
1777 BD0107    1361:                    JSR     GETTOKENCHAR




ASM/6800 1.3H4: 177A                    
08/16/82 00:00:00; Page 35; Form 1      
B2.ASM
177A 8122      1362:                    CMPA    #'"
177C 2602      1363:                    BNE     CHARFAIL
177E 0D        1364:                    SUCCESS 
177F 39        1365:                    RTS
1780 0C        1366: CHARFAIL           FAILURE 
1781 39        1367:                    RTS
  000F         1368: ANYCHAR            EQU     .TC
  0010         1369: .TC                SET     .TC+1
  1782         1370: .                  SET     *
  0CA7         1371:                    ORG     ANYCHAR*2+.TA
0CA7 1782      1372:                    #.
  1782         1373:                    ORG     .
               1374: *                  RECOGNIZES ANY NON-<CR> CHARACTER
1782 BD0107    1375:                    JSR     GETTOKENCHAR
1785 810D      1376:                    CMPA    #$D
1787 27F7      1377:                    BEQ     CHARFAIL
1789 0D        1378:                    SUCCESS 
178A 39        1379:                    RTS
  0010         1380: LABELID            EQU     .TC
  0011         1381: .TC                SET     .TC+1
  178B         1382: .                  SET     *
  0CA9         1383:                    ORG     LABELID*2+.TA
0CA9 178B      1384:                    #.
  178B         1385:                    ORG     .
               1386: *                  TEST FOR PRESENCE OF LABEL
               1387: *
178B BD0107    1388:                    JSR     GETTOKENCHAR
178E BD162D    1389:                    JSR     ISLETTER
1791 2416      1390:                    BCC     LABELIDFAIL
1793 BD0107    1391: LABELIDLOOP        JSR     GETTOKENCHAR
1796 BD162D    1392:                    JSR     ISLETTER
1799 25F8      1393:                    BCS     LABELIDLOOP
179B BD1667    1394:                    JSR     ISDIGIT
179E 25F3      1395:                    BCS     LABELIDLOOP
17A0 813A      1396:                    CMPA    #':
17A2 2605      1397:                    BNE     LABELIDFAIL
17A4 BD010A    1398:                    JSR     BACKUP          REJECT THE ':' SO WE ONLY GET ALPHANUM PART
17A7 0D        1399:                    SUCCESS 
17A8 39        1400:                    RTS
               1401: 




ASM/6800 1.3H4: 17A9                    
08/16/82 00:00:00; Page 36; Form 1      
B2.ASM
17A9 0C        1402: LABELIDFAIL        FAILURE 
17AA 39        1403:                    RTS
  0011         1404: THENELSELABEL      EQU     .TC
  0012         1405: .TC                SET     .TC+1
  17AB         1406: .                  SET     *
  0CAB         1407:                    ORG     THENELSELABEL*2+.TA
0CAB 17AB      1408:                    #.
  17AB         1409:                    ORG     .
               1410: *                  TEST FOR PRESENCE OF LABEL IN "THEN..." OR "ELSE..." CONTEXT
               1411: *                  I.E., LOOKS LIKE: NID $BLANK -'(' -'[' -'=' -'$' ;
17AB BD0107    1412:                    JSR     GETTOKENCHAR
17AE BD162D    1413:                    JSR     ISLETTER
17B1 24F6      1414:                    BCC     LABELIDFAIL
17B3 BD0107    1415: THENELSELOOP       JSR     GETTOKENCHAR
17B6 BD162D    1416:                    JSR     ISLETTER
17B9 25F8      1417:                    BCS     THENELSELOOP
17BB BD1667    1418:                    JSR     ISDIGIT
17BE 25F3      1419:                    BCS     THENELSELOOP
17C0 BD010A    1420:                    JSR     BACKUP
17C3 8D15      1421:                    BSR     SKIPBLANKS
17C5 813D      1422:                    CMPA    #'=
17C7 27E0      1423:                    BEQ     LABELIDFAIL
17C9 8128      1424:                    CMPA    #'(
17CB 27DC      1425:                    BEQ     LABELIDFAIL
17CD 815B      1426:                    CMPA    #'[
17CF 27D8      1427:                    BEQ     LABELIDFAIL
17D1 8124      1428:                    CMPA    #'$
17D3 27D4      1429:                    BEQ     LABELIDFAIL
17D5 BD18B4    1430:                    JSR     REJECTLOOKAHEAD
17D8 0D        1431:                    SUCCESS 
17D9 39        1432:                    RTS
               1433: *
               1434: *                  SKIPBLANKS -- SCAN OVER SPACE, TAB, '...' :D '&'
               1435: *                  COUNT BYTES FOR BACKUP PURPOSES
               1436: *
17DA 7F18D0    1437: SKIPBLANKS         CLR     LOOKAHEADCOUNT  = # BYTES SCANNED OVER
17DD BD18BF    1438: SKIPBLANKSL        JSR     GETLOOKAHEADCHARACTER
17E0 8120      1439:                    CMPA    #' 
17E2 27F9      1440:                    BEQ     SKIPBLANKSL
17E4 8109      1441:                    CMPA    #$9             TAB ?




ASM/6800 1.3H4: 17E6                    
08/16/82 00:00:00; Page 37; Form 1      
B2.ASM
17E6 27F5      1442:                    BEQ     SKIPBLANKSL
17E8 812E      1443:                    CMPA    #'.             LINE CONTINUATION ?
17EA 2636      1444:                    BNE     SKIPBLANKSRTS
17EC BD18BF    1445:                    JSR     GETLOOKAHEADCHARACTER
17EF 812E      1446:                    CMPA    #'.
17F1 2627      1447:                    BNE     SKIPBLANKS2
17F3 BD18BF    1448:                    JSR     GETLOOKAHEADCHARACTER
17F6 812E      1449:                    CMPA    #'.
17F8 261A      1450:                    BNE     SKIPBLANKS3
17FA BD18BF    1451:                    JSR     GETLOOKAHEADCHARACTER
17FD 810D      1452:                    CMPA    #$D
17FF 260D      1453:                    BNE     SKIPBLANKS4
1801 BD18BF    1454:                    JSR     GETLOOKAHEADCHARACTER
1804 8126      1455:                    CMPA    #'&
1806 27D5      1456:                    BEQ     SKIPBLANKSL
1808 BD010A    1457:                    JSR     BACKUP
180B 7A18D0    1458:                    DEC     LOOKAHEADCOUNT
180E BD010A    1459: SKIPBLANKS4        JSR     BACKUP
1811 7A18D0    1460:                    DEC     LOOKAHEADCOUNT
1814 BD010A    1461: SKIPBLANKS3        JSR     BACKUP
1817 7A18D0    1462:                    DEC     LOOKAHEADCOUNT
181A BD010A    1463: SKIPBLANKS2        JSR     BACKUP
181D 7A18D0    1464:                    DEC     LOOKAHEADCOUNT
1820 862E      1465:                    LDAA    #'.
1822 39        1466: SKIPBLANKSRTS      RTS
  0012         1467: FNUM               EQU     .TC
  0013         1468: .TC                SET     .TC+1
  1823         1469: .                  SET     *
  0CAD         1470:                    ORG     FNUM*2+.TA
0CAD 1823      1471:                    #.
  1823         1472:                    ORG     .
               1473: *                  FLOATING POINT NUMBER TEST
               1474: *                  ( '-' / .EMPTY )
               1475: *                  ( '0'-'9' $( '0'-'9' ) ( '.' / .EMPTY ) / '.' '0'-'9' )
               1476: *                  ( 'E' ( '+' / '-' / .EMPTY ) '0'-'9' $( '0'-'9' ) / .EMPTY ) ;
               1477: *
1823 BD0107    1478:                    JSR     GETTOKENCHAR    GET 1ST BYTE OF FNUM
1826 812D      1479:                    CMPA    #'-             NEGATIVE SIGN ?
1828 2603      1480:                    BNE     FNUM1           B/ NOPE
182A BD0107    1481:                    JSR     GETTOKENCHAR    ACCEPT "-", GET NEXT BYTE




ASM/6800 1.3H4: 182D                    
08/16/82 00:00:00; Page 38; Form 1      
B2.ASM
182D 8D41      1482: FNUM1              BSR     FDIGITS1        LOOK FOR DIGIT STRING
182F 2431      1483:                    BCC     FNUMF           B/ NO LEAD DIGITS, MUST BE FRACTION SYNTAX
1831 812E      1484:                    CMPA    #'.             DECIMAL POINT?
1833 2602      1485:                    BNE     FNUM2           B/ NO DECIMAL POINT
1835 8D36      1486:                    BSR     FDIGITS         COLLECT FRACTIONAL PART
1837 8145      1487: FNUM2              CMPA    #'E
1839 2704      1488:                    BEQ     FNUME           B/ LOOKS LIKE ONE COMING UP
183B 8165      1489:                    CMPA    #'E+$20         'E
183D 260E      1490:                    BNE     FNUMSUCCESS     NO EXPONET, GET OUT QUICK!
183F BD0107    1491: FNUME              JSR     GETTOKENCHAR    SEE IF DIGITS FOLLOW EXPONENT "E"
1842 812B      1492:                    CMPA    #'+             CHECK FOR SIGN
1844 270C      1493:                    BEQ     FNUMES          B/ SIGN IS INCLUDED
1846 812D      1494:                    CMPA    #'-             CHECK FOR - SIGN
1848 2708      1495:                    BEQ     FNUMES          B/ SIGN IS INCLUDED
184A BD1870    1496:                    JSR     FDIGITS1        LOOK FOR DIGIT STRING
184D BD010A    1497: FNUMSUCCESS        JSR     BACKUP          'E' NOT PART OF NUMBER
1850 0D        1498:                    SUCCESS 
1851 39        1499:                    RTS
               1500: 
1852 BD186D    1501: FNUMES             JSR     FDIGITS         EXPONENT HAS SIGN, LOOK FOR DIGITS
1855 25F6      1502:                    BCS     FNUMSUCCESS     B/ GOOD EXPONENT FOUND
1857 BD010A    1503:                    JSR     BACKUP          "E+<X>" IS APPARANTLY NOT AN EXPONENT
185A BD010A    1504:                    JSR     BACKUP
185D BD010A    1505:                    JSR     BACKUP
1860 0D        1506:                    SUCCESS                 BUT THE REST OF THE NUMBER LOOKS OK
1861 39        1507:                    RTS
               1508: 
1862 812E      1509: FNUMF              CMPA    #'.             MIGHT BE FRACTION ONLY F.P. NUMBER
1864 2605      1510:                    BNE     FNUMFAIL        B/ NO SUCH LUCK.
1866 BD186D    1511:                    JSR     FDIGITS         MUST HAVE DIGITS IN FRACTION PART
1869 25CC      1512:                    BCS     FNUM2           B/ GOT DIGITS, LOOKS OK
186B 0C        1513: FNUMFAIL           FAILURE                 NOT AN F.P. NUMBER
186C 39        1514:                    RTS
               1515: 
186D BD0107    1516: FDIGITS            JSR     GETTOKENCHAR    GET FIRST CHARACTER OF DIGIT STRING
1870 BD1667    1517: FDIGITS1           JSR     ISDIGIT         CHECK FOR DIGIT
1873 240A      1518:                    BCC     FDIGITFAIL      B/ NOT A DIGIT STRING
1875 BD0107    1519: FDIGITSL           JSR     GETTOKENCHAR    GET NEXT CHARACTER OF DIGIT STRING
1878 BD1667    1520:                    JSR     ISDIGIT         IS THIS A DIGIT TOO?
187B 25F8      1521:                    BCS     FDIGITSL        B/ YES, GO COLLECT SOME MORE




ASM/6800 1.3H4: 187D                    
08/16/82 00:00:00; Page 39; Form 1      
B2.ASM
187D 0D        1522:                    SEC                     SAY "FOUND DIGIT STRING"
187E 39        1523:                    RTS
               1524: 
187F 0C        1525: FDIGITFAIL         CLC     SAY "DIDN'T FIND DIGIT STRING"
1880 39        1526:                    RTS
  0013         1527: LOOKAHEADELSE      EQU     .TC
  0014         1528: .TC                SET     .TC+1
  1881         1529: .                  SET     *
  0CAF         1530:                    ORG     LOOKAHEADELSE*2+.TA
0CAF 1881      1531:                    #.
  1881         1532:                    ORG     .
               1533: *                  LOOK AHEAD FOR ELSE CLAUSE
               1534: *                  = :0D $BLANKS 'E' 'L' 'S' 'E' ;
1881 8D3C      1535:                    BSR     GETLOOKAHEADCHARACTER
1883 810D      1536:                    CMPA    #$D
1885 2636      1537:                    BNE     LOOKAHEADELSEFAIL
1887 BD17DA    1538:                    JSR     SKIPBLANKS
188A 8145      1539:                    CMPA    #'E
188C 262F      1540:                    BNE     LOOKAHEADELSEFAIL
188E 8D2F      1541:                    BSR     GETLOOKAHEADCHARACTER
1890 814C      1542:                    CMPA    #'L
1892 2629      1543:                    BNE     LOOKAHEADELSEFAIL
1894 8D29      1544:                    BSR     GETLOOKAHEADCHARACTER
1896 8153      1545:                    CMPA    #'S
1898 2623      1546:                    BNE     LOOKAHEADELSEFAIL
189A 8D23      1547:                    BSR     GETLOOKAHEADCHARACTER
189C 8145      1548:                    CMPA    #'E
189E 261D      1549:                    BNE     LOOKAHEADELSEFAIL
  18A0         1550: LOOKAHEADELSETAILCHECK
18A0 8D1D      1551:                    BSR     GETLOOKAHEADCHARACTER
18A2 BD162D    1552:                    JSR     ISLETTER
18A5 2516      1553:                    BCS     LOOKAHEADELSEFAIL
18A7 BD1667    1554:                    JSR     ISDIGIT
18AA 2511      1555:                    BCS     LOOKAHEADELSEFAIL
18AC 8124      1556:                    CMPA    #'$
18AE 270D      1557:                    BEQ     LOOKAHEADELSEFAIL
18B0 8D02      1558:                    BSR     REJECTLOOKAHEAD
18B2 0D        1559:                    SUCCESS 
18B3 39        1560:                    RTS
               1561: *




ASM/6800 1.3H4: 18B3                    
08/16/82 00:00:00; Page 40; Form 1      
B2.ASM
               1562: *                  REJECTLOOKAHEAD -- BACKUP OVER UNWANTED STUFF!
               1563: *
  18B4         1564: REJECTLOOKAHEAD    EQU     *               REJECT ALL BUT THE <CR>
18B4 BD010A    1565:                    JSR     BACKUP
18B7 7A18D0    1566:                    DEC     LOOKAHEADCOUNT
18BA 26F8      1567:                    BNE     REJECTLOOKAHEAD
18BC 39        1568:                    RTS
               1569: 
18BD 0C        1570: LOOKAHEADELSEFAIL  FAILURE 
18BE 39        1571:                    RTS
               1572: 
18BF 7C18D0    1573: GETLOOKAHEADCHARACTER      INC             LOOKAHEADCOUNT
18C2 BD0107    1574:                    JSR     GETTOKENCHAR
18C5 8161      1575:                    CMPA    #'A+32          'A
18C7 2506      1576:                    BCS     GETLOOKAHEADRTS B/ DON'T HAVE TO UPPERCASE THE CHARACTER
18C9 817B      1577:                    CMPA    #'Z+32+1        'Z+1
18CB 2402      1578:                    BCC     GETLOOKAHEADRTS
18CD 8020      1579:                    SUBA    #32             FORCE LOWERCASE LETTER TO UPPERCASE
  18CF         1580: GETLOOKAHEADRTS
18CF 39        1581:                    RTS
               1582: 
18D0 00        1583: LOOKAHEADCOUNT     FCB     0               = # CHARACTERS SCANNED
  0014         1584: LOOKAHEADELSEIF    EQU     .TC
  0015         1585: .TC                SET     .TC+1
  18D1         1586: .                  SET     *
  0CB1         1587:                    ORG     LOOKAHEADELSEIF*2+.TA
0CB1 18D1      1588:                    #.
  18D1         1589:                    ORG     .
               1590: *                  LOOK AHEAD FOR ELSEIF CLAUSE
               1591: *                  = :0D $BLANKS 'E' 'L' 'S' 'E' 'I' 'F';
18D1 8DEC      1592:                    BSR     GETLOOKAHEADCHARACTER
18D3 810D      1593:                    CMPA    #$D
18D5 26E6      1594:                    BNE     LOOKAHEADELSEFAIL
18D7 BD17DA    1595:                    JSR     SKIPBLANKS
18DA 8145      1596:                    CMPA    #'E
18DC 26DF      1597:                    BNE     LOOKAHEADELSEFAIL
18DE 8DDF      1598:                    BSR     GETLOOKAHEADCHARACTER
18E0 814C      1599:                    CMPA    #'L
18E2 26D9      1600:                    BNE     LOOKAHEADELSEFAIL
18E4 8DD9      1601:                    BSR     GETLOOKAHEADCHARACTER




ASM/6800 1.3H4: 18E6                    
08/16/82 00:00:00; Page 41; Form 1      
B2.ASM
18E6 8153      1602:                    CMPA    #'S
18E8 26D3      1603:                    BNE     LOOKAHEADELSEFAIL
18EA 8DD3      1604:                    BSR     GETLOOKAHEADCHARACTER
18EC 8145      1605:                    CMPA    #'E
18EE 26CD      1606:                    BNE     LOOKAHEADELSEFAIL
18F0 8DCD      1607:                    BSR     GETLOOKAHEADCHARACTER
18F2 8149      1608:                    CMPA    #'I
18F4 26C7      1609:                    BNE     LOOKAHEADELSEFAIL
18F6 8DC7      1610:                    BSR     GETLOOKAHEADCHARACTER
18F8 8146      1611:                    CMPA    #'F
18FA 27A4      1612:                    BEQ     LOOKAHEADELSETAILCHECK
18FC 20BF      1613:                    BRA     LOOKAHEADELSEFAIL
  0015         1614: ZEROS              EQU     .TC
  0016         1615: .TC                SET     .TC+1
  18FE         1616: .                  SET     *
  0CB3         1617:                    ORG     ZEROS*2+.TA
0CB3 18FE      1618:                    #.
  18FE         1619:                    ORG     .
               1620: *                  EAT UP LEADING ZEROS ON LINE NUMBERS
               1621: *                  = '0' $'0'
               1622: 
18FE BD0107    1623:                    JSR     GETTOKENCHAR
1901 8130      1624:                    CMPA    #'0
1903 260C      1625:                    BNE     ZEROSFAIL
  1905         1626: ZEROSL
1905 BD0107    1627:                    JSR     GETTOKENCHAR
1908 8130      1628:                    CMPA    #'0
190A 27F9      1629:                    BEQ     ZEROSL
190C BD010A    1630:                    JSR     BACKUP          REJECT NON-ZERO CHARACTER
190F 0D        1631:                    SUCCESS 
1910 39        1632:                    RTS
1911 0C        1633: ZEROSFAIL          FAILURE 
1912 39        1634:                    RTS
  00C1         1635: LB                 EQU     .SC
  00C2         1636: .SC                SET     .SC+1
  1913         1637: .                  SET     *
  0CCB         1638:                    ORG     LB*2+.SA
0CCB 1913      1639:                    #.
  1913         1640:                    ORG     .
1913 21        1641:                    $21




ASM/6800 1.3H4: 1913                    
08/16/82 00:00:00; Page 42; Form 1      
B2.ASM
               1642:                    FCC     ''
1914 DB        1643:                    '[+$80
1915 2A        1644:                    $2A
1916 21        1645:                    $21
               1646:                    FCC     ''
1917 A8        1647:                    '(+$80
1918 29        1648:                    $29
  00C2         1649: RB                 EQU     .SC
  00C3         1650: .SC                SET     .SC+1
  1919         1651: .                  SET     *
  0CCD         1652:                    ORG     RB*2+.SA
0CCD 1919      1653:                    #.
  1919         1654:                    ORG     .
1919 21        1655:                    $21
               1656:                    FCC     ''
191A DD        1657:                    ']+$80
191B 2A        1658:                    $2A
191C 21        1659:                    $21
               1660:                    FCC     ''
191D A9        1661:                    ')+$80
191E 29        1662:                    $29
  191F         1663: .                  SET     *
  0CC9         1664:                    ORG     BASIC*2+.SA
0CC9 191F      1665:                    #.
  191F         1666:                    ORG     .
  00C3         1667: OPTENDOFLINE       EQU     .SC
  00C4         1668: .SC                SET     .SC+1
191F C3        1669:                    OPTENDOFLINE
1920 8276      1670:                    ((:165-*)&$3FFF)+$8000
1922 30        1671:                    $30
1923 2A09436F  1672:                    FCC     '* Compiled by 4/13/82 Software Dynamics BASIC Version 1.4'
195C E9        1673:                    'i+$80
195D 2F        1674:                    $2F
195E 30        1675:                    $30
195F 2E434154  1676:                    FCC     '.CATBUFSIZE    SET $10'
1972 B0        1677:                    '0+$80
1973 2F        1678:                    $2F
1974 30        1679:                    $30
1975 2E095345  1680:                    FCC     '.        SET           '
197B B0        1681:                    '0+$80




ASM/6800 1.3H4: 197C                    
08/16/82 00:00:00; Page 43; Form 1      
B2.ASM
197C 2F        1682:                    $2F
197D 30        1683:                    $30
197E 2E4E5356  1684:                    FCC     '.NSV           SET '
1987 B0        1685:                    '0+$80
1988 2F        1686:                    $2F
1989 30        1687:                    $30
198A 3A3A0953  1688:                    FCC     '::  SET          '
1991 B0        1689:                    '0+$80
1992 2F        1690:                    $2F
  00C4         1691: ORIGIN             EQU     .SC
  00C5         1692: .SC                SET     .SC+1
1993 C4        1693:                    ORIGIN
1994 30        1694:                    $30
1995 24324530  1695:                    FCC     '$2E0'
1999 B0        1696:                    '0+$80
199A 2F        1697:                    $2F
199B 3A0000    1698:                    $3A,COMPILEPHASE,COMPILINGPGMORIGIN
199E 35        1699:                    $35
  199F         1700: :166               EQU     *
199F 3B0000    1701:                    $3B,COMPILEPHASE,COMPILINGPGMORIGIN
19A2 8010      1702:                    ((:167-*)&$3FFF)+$8000
  00C5         1703: REMARKSTMT         EQU     .SC
  00C6         1704: .SC                SET     .SC+1
19A4 C5        1705:                    REMARKSTMT
19A5 400C      1706:                    ((:168-*)&$3FFF)+$4000
  00C6         1707: INCLUDESTMT        EQU     .SC
  00C7         1708: .SC                SET     .SC+1
19A7 C6        1709:                    INCLUDESTMT
19A8 4009      1710:                    ((:168-*)&$3FFF)+$4000
  00C7         1711: PGMORIGINSTMT      EQU     .SC
  00C8         1712: .SC                SET     .SC+1
19AA C7        1713:                    PGMORIGINSTMT
19AB 4006      1714:                    ((:168-*)&$3FFF)+$4000
19AD 34        1715:                    $34
19AE 3A0001    1716:                    $3A,COMPILEPHASE,COMPILINGCATSIZE
  19B1         1717: :168               EQU     *
19B1 2C        1718:                    $2C
  19B2         1719: :167               EQU     *
19B2 7FED      1720:                    ((:166-*)&$3FFF)+$4000
19B4 34        1721:                    $34




ASM/6800 1.3H4: 19B5                    
08/16/82 00:00:00; Page 44; Form 1      
B2.ASM
19B5 35        1722:                    $35
  19B6         1723: :169               EQU     *
19B6 3B0001    1724:                    $3B,COMPILEPHASE,COMPILINGCATSIZE
19B9 8019      1725:                    ((:16A-*)&$3FFF)+$8000
19BB C5        1726:                    REMARKSTMT
19BC 4015      1727:                    ((:16B-*)&$3FFF)+$4000
19BE C6        1728:                    INCLUDESTMT
19BF 4012      1729:                    ((:16B-*)&$3FFF)+$4000
  00C8         1730: CATSIZESTMT        EQU     .SC
  00C9         1731: .SC                SET     .SC+1
19C1 C8        1732:                    CATSIZESTMT
19C2 8004      1733:                    ((:16C-*)&$3FFF)+$8000
  00C9         1734: PROGHEADER         EQU     .SC
  00CA         1735: .SC                SET     .SC+1
19C4 C9        1736:                    PROGHEADER
19C5 2C        1737:                    $2C
  19C6         1738: :16C               EQU     *
19C6 400B      1739:                    ((:16B-*)&$3FFF)+$4000
  00CA         1740: FUNCTIONCOMPILATION        EQU             .SC
  00CB         1741: .SC                SET     .SC+1
19C8 CA        1742:                    FUNCTIONCOMPILATION
19C9 4008      1743:                    ((:16B-*)&$3FFF)+$4000
  00CB         1744: SUBROUTINECOMPILATION      EQU             .SC
  00CC         1745: .SC                SET     .SC+1
19CB CB        1746:                    SUBROUTINECOMPILATION
19CC 4005      1747:                    ((:16B-*)&$3FFF)+$4000
19CE 34        1748:                    $34
19CF C9        1749:                    PROGHEADER
19D0 2C        1750:                    $2C
  19D1         1751: :16B               EQU     *
19D1 2C        1752:                    $2C
  19D2         1753: :16A               EQU     *
19D2 7FE4      1754:                    ((:169-*)&$3FFF)+$4000
19D4 34        1755:                    $34
19D5 35        1756:                    $35
  19D6         1757: :16D               EQU     *
19D6 3B0002    1758:                    $3B,COMPILEPHASE,COMPILINGDATAORIGIN
19D9 8010      1759:                    ((:16E-*)&$3FFF)+$8000
19DB C5        1760:                    REMARKSTMT
19DC 400C      1761:                    ((:16F-*)&$3FFF)+$4000




ASM/6800 1.3H4: 19DE                    
08/16/82 00:00:00; Page 45; Form 1      
B2.ASM
19DE C6        1762:                    INCLUDESTMT
19DF 4009      1763:                    ((:16F-*)&$3FFF)+$4000
  00CC         1764: DATAORIGINSTMT     EQU     .SC
  00CD         1765: .SC                SET     .SC+1
19E1 CC        1766:                    DATAORIGINSTMT
19E2 4006      1767:                    ((:16F-*)&$3FFF)+$4000
19E4 34        1768:                    $34
19E5 3A0003    1769:                    $3A,COMPILEPHASE,COMPILINGCOMMON
  19E8         1770: :16F               EQU     *
19E8 2C        1771:                    $2C
  19E9         1772: :16E               EQU     *
19E9 7FED      1773:                    ((:16D-*)&$3FFF)+$4000
19EB 34        1774:                    $34
19EC 35        1775:                    $35
  19ED         1776: :170               EQU     *
19ED 3B0003    1777:                    $3B,COMPILEPHASE,COMPILINGCOMMON
19F0 8004      1778:                    ((:171-*)&$3FFF)+$8000
  00CD         1779: BASICCOMMON        EQU     .SC
  00CE         1780: .SC                SET     .SC+1
19F2 CD        1781:                    BASICCOMMON
19F3 2C        1782:                    $2C
  19F4         1783: :171               EQU     *
19F4 7FF9      1784:                    ((:170-*)&$3FFF)+$4000
19F6 34        1785:                    $34
19F7 35        1786:                    $35
  19F8         1787: :172               EQU     *
19F8 3B0004    1788:                    $3B,COMPILEPHASE,COMPILINGDIMS
19FB 8004      1789:                    ((:173-*)&$3FFF)+$8000
  00CE         1790: BASICDIMS          EQU     .SC
  00CF         1791: .SC                SET     .SC+1
19FD CE        1792:                    BASICDIMS
19FE 2C        1793:                    $2C
  19FF         1794: :173               EQU     *
19FF 7FF9      1795:                    ((:172-*)&$3FFF)+$4000
1A01 34        1796:                    $34
1A02 35        1797:                    $35
  1A03         1798: :174               EQU     *
1A03 3B0005    1799:                    $3B,COMPILEPHASE,COMPILINGSTMTS
1A06 8004      1800:                    ((:175-*)&$3FFF)+$8000
  00CF         1801: BASICSTMTS         EQU     .SC




ASM/6800 1.3H4: 1A06                    
08/16/82 00:00:00; Page 46; Form 1      
B2.ASM
  00D0         1802: .SC                SET     .SC+1
1A08 CF        1803:                    BASICSTMTS
1A09 2C        1804:                    $2C
  1A0A         1805: :175               EQU     *
1A0A 7FF9      1806:                    ((:174-*)&$3FFF)+$4000
1A0C 34        1807:                    $34
  00D0         1808: OPEXIT             EQU     .SC
  00D1         1809: .SC                SET     .SC+1
1A0D D0        1810:                    OPEXIT
1A0E 2F        1811:                    $2F
1A0F 30        1812:                    $30
1A10 2E50524F  1813:                    FCC     '.PROGEND       EQU '
1A1D AA        1814:                    '*+$80
1A1E 2F        1815:                    $2F
1A1F 30        1816:                    $30
1A20 2E465245  1817:                    FCC     '.FREFLBL       EQU '
1A2D AE        1818:                    '.+$80
1A2E 2F        1819:                    $2F
1A2F 30        1820:                    $30
1A30 2E544E53  1821:                    FCC     '.TNSS          EQU :'
1A3B BA        1822:                    ':+$80
1A3C 2F        1823:                    $2F
1A3D 30        1824:                    $30
1A3E 2E544E53  1825:                    FCC     '.TNSV          EQU .NS'
1A4B D6        1826:                    'V+$80
1A4C 2F        1827:                    $2F
1A4D 30        1828:                    $30
1A4E 09494609  1829:                    FCC     '  IF      .TNSV>>64+25'
1A5E B6        1830:                    '6+$80
1A5F 2F        1831:                    $2F
1A60 30        1832:                    $30
1A61 093F4D61  1833:                    FCC     '  ?Maximum of 320 Scalar variables has been exceeded'
1A94 BF        1834:                    '?+$80
1A95 2F        1835:                    $2F
1A96 30        1836:                    $30
1A97 094649    1837:                    FCC     '  FI'
1A9A CE        1838:                    'N+$80
1A9B 2F        1839:                    $2F
1A9C 30        1840:                    $30
1A9D 09494655  1841:                    FCC     '  IFUND          '




ASM/6800 1.3H4: 1AA4                    
08/16/82 00:00:00; Page 47; Form 1      
B2.ASM
1AA4 BA        1842:                    ':+$80
1AA5 2F        1843:                    $2F
1AA6 30        1844:                    $30
1AA7 3A094551  1845:                    FCC     ':   EQU           '
1AAD AA        1846:                    '*+$80
1AAE 2F        1847:                    $2F
  00D1         1848: RES                EQU     .SC
  00D2         1849: .SC                SET     .SC+1
1AAF D1        1850:                    RES
1AB0 30        1851:                    $30
1AB1 2E544E53  1852:                    FCC     '.TNSS+.TNSV*'
1ABD B6        1853:                    '6+$80
1ABE 2F        1854:                    $2F
1ABF 30        1855:                    $30
1AC0 094649    1856:                    FCC     '   FI'
1AC3 CE        1857:                    'N+$80
1AC4 2F        1858:                    $2F
1AC5 30        1859:                    $30
1AC6 09494609  1860:                    FCC     '   IF      .PROGEND>>:&.PROGEND<<:+.TNSS+.TNSV*'
1AEE B6        1861:                    '6+$80
1AEF 2F        1862:                    $2F
1AF0 30        1863:                    $30
1AF1 093F2044  1864:                    FCC     '  ? Data space overlaps end of code spac'
1B18 E5        1865:                    'e+$80
1B19 2F        1866:                    $2F
1B1A 30        1867:                    $30
1B1B 094649    1868:                    FCC     '   FI'
1B1E CE        1869:                    'N+$80
1B1F 2F        1870:                    $2F
1B20 30        1871:                    $30
1B21 09494609  1872:                    FCC     '  IF      .PROGSTART>>:&.PROGSTART<<:+.TNSS+.TNSV*'
1B4D B6        1873:                    '6+$80
1B4E 2F        1874:                    $2F
1B4F 30        1875:                    $30
1B50 093F2044  1876:                    FCC     '  ? Data space overlaps beginning of code spac'
1B7D E5        1877:                    'e+$80
1B7E 2F        1878:                    $2F
1B7F 30        1879:                    $30
1B80 094649    1880:                    FCC     '  FI'
1B83 CE        1881:                    'N+$80




ASM/6800 1.3H4: 1B84                    
08/16/82 00:00:00; Page 48; Form 1      
B2.ASM
1B84 2F        1882:                    $2F
1B85 30        1883:                    $30
1B86 09454E44  1884:                    FCC     '  END            .PROGSTAR'
1B94 D4        1885:                    'T+$80
1B95 2F        1886:                    $2F
  1B96         1887: :165               EQU     *
1B96 29        1888:                    $29
  1B97         1889: .                  SET     *
  0CDB         1890:                    ORG     PROGHEADER*2+.SA
0CDB 1B97      1891:                    #.
  1B97         1892:                    ORG     .
1B97 30        1893:                    $30
1B98 2E50524F  1894:                    FCC     '.PROGSTAR'
1BA1 D4        1895:                    'T+$80
  00D2         1896: EQUHERE            EQU     .SC
  00D3         1897: .SC                SET     .SC+1
1BA2 D2        1898:                    EQUHERE
1BA3 2F        1899:                    $2F
1BA4 30        1900:                    $30
1BA5 094A5352  1901:                    FCC     '    JSR            $10'
1BAD B0        1902:                    '0+$80
1BAE 2F        1903:                    $2F
  00D3         1904: BYTE               EQU     .SC
  00D4         1905: .SC                SET     .SC+1
1BAF D3        1906:                    BYTE
1BB0 30        1907:                    $30
1BB1 2431      1908:                    FCC     '$1'
1BB3 B4        1909:                    '4+$80
1BB4 2F        1910:                    $2F
  00D4         1911: ADDR               EQU     .SC
  00D5         1912: .SC                SET     .SC+1
1BB5 D4        1913:                    ADDR
1BB6 30        1914:                    $30
1BB7 2E465245  1915:                    FCC     '.FREFLB'
1BBE CC        1916:                    'L+$80
1BBF 2F        1917:                    $2F
  00D5         1918: INTEGER            EQU     .SC
  00D6         1919: .SC                SET     .SC+1
1BC0 D5        1920:                    INTEGER
1BC1 30        1921:                    $30




ASM/6800 1.3H4: 1BC2                    
08/16/82 00:00:00; Page 49; Form 1      
B2.ASM
1BC2 2E434154  1922:                    FCC     '.CATBUFSIZ'
1BCC C5        1923:                    'E+$80
1BCD 2F        1924:                    $2F
  00D6         1925: DADDR              EQU     .SC
  00D7         1926: .SC                SET     .SC+1
1BCE D6        1927:                    DADDR
1BCF 30        1928:                    $30
1BD0 2E544E53  1929:                    FCC     '.TNS'
1BD4 D3        1930:                    'S+$80
1BD5 2F        1931:                    $2F
1BD6 D6        1932:                    DADDR
1BD7 30        1933:                    $30
1BD8 2E544E53  1934:                    FCC     '.TNSS+.TNSV*'
1BE4 B6        1935:                    '6+$80
1BE5 2F        1936:                    $2F
1BE6 3A0002    1937:                    $3A,COMPILEPHASE,COMPILINGDATAORIGIN
1BE9 29        1938:                    $29
  1BEA         1939: .                  SET     *
  0CD7         1940:                    ORG     PGMORIGINSTMT*2+.SA
0CD7 1BEA      1941:                    #.
  1BEA         1942:                    ORG     .
1BEA 3E11A2    1943:                    $3E,#PROGRAM
1BED 8023      1944:                    ((:176-*)&$3FFF)+$8000
1BEF 21        1945:                    $21
1BF0 4F524947  1946:                    FCC     'ORIGI'
1BF5 CE        1947:                    'N+$80
1BF6 4009      1948:                    ((:177-*)&$3FFF)+$4000
1BF8 21        1949:                    $21
1BF9 6F726967  1950:                    FCC     'origi'
1BFE EE        1951:                    'n+$80
  1BFF         1952: :177               EQU     *
1BFF 2C        1953:                    $2C
1C00 21        1954:                    $21
               1955:                    FCC     ''
1C01 BA        1956:                    ':+$80
1C02 2C        1957:                    $2C
1C03 0B        1958:                    +HEXNUM
1C04 2C        1959:                    $2C
  00D7         1960: ENDOFLINEOPTCOMMENT        EQU             .SC
  00D8         1961: .SC                SET     .SC+1




ASM/6800 1.3H4: 1C05                    
08/16/82 00:00:00; Page 50; Form 1      
B2.ASM
1C05 D7        1962:                    ENDOFLINEOPTCOMMENT
1C06 2C        1963:                    $2C
1C07 C4        1964:                    ORIGIN
1C08 30        1965:                    $30
               1966:                    FCC     ''
1C09 A4        1967:                    '$+$80
1C0A 3201      1968:                    $32,1
1C0C 2F        1969:                    $2F
1C0D 3A0001    1970:                    $3A,COMPILEPHASE,COMPILINGCATSIZE
  1C10         1971: :176               EQU     *
1C10 29        1972:                    $29
  1C11         1973: .                  SET     *
  0CD9         1974:                    ORG     CATSIZESTMT*2+.SA
0CD9 1C11      1975:                    #.
  1C11         1976:                    ORG     .
1C11 3E11B9    1977:                    $3E,#CONCATENATION
1C14 803B      1978:                    ((:178-*)&$3FFF)+$8000
1C16 21        1979:                    $21
1C17 42554646  1980:                    FCC     'BUFFE'
1C1C D2        1981:                    'R+$80
1C1D 4009      1982:                    ((:179-*)&$3FFF)+$4000
1C1F 21        1983:                    $21
1C20 62756666  1984:                    FCC     'buffe'
1C25 F2        1985:                    'r+$80
  1C26         1986: :179               EQU     *
1C26 2C        1987:                    $2C
1C27 21        1988:                    $21
1C28 53495A    1989:                    FCC     'SIZ'
1C2B C5        1990:                    'E+$80
1C2C 4007      1991:                    ((:17A-*)&$3FFF)+$4000
1C2E 21        1992:                    $21
1C2F 73697A    1993:                    FCC     'siz'
1C32 E5        1994:                    'e+$80
  1C33         1995: :17A               EQU     *
1C33 2C        1996:                    $2C
1C34 21        1997:                    $21
               1998:                    FCC     ''
1C35 BD        1999:                    '=+$80
1C36 2C        2000:                    $2C
1C37 0A        2001:                    +NUM




ASM/6800 1.3H4: 1C38                    
08/16/82 00:00:00; Page 51; Form 1      
B2.ASM
1C38 2C        2002:                    $2C
1C39 D7        2003:                    ENDOFLINEOPTCOMMENT
1C3A 2C        2004:                    $2C
1C3B 30        2005:                    $30
1C3C 2E434154  2006:                    FCC     '.CATBUFSIZE    SET'
1C4B 89        2007:                    ' +$80
1C4C 3201      2008:                    $32,1
1C4E 2F        2009:                    $2F
  1C4F         2010: :178               EQU     *
1C4F 29        2011:                    $29
  1C50         2012: .                  SET     *
  0CDF         2013:                    ORG     SUBROUTINECOMPILATION*2+.SA
0CDF 1C50      2014:                    #.
  1C50         2015:                    ORG     .
1C50 3E13BB    2016:                    $3E,#SUBROUTINE
1C53 8012      2017:                    ((:17B-*)&$3FFF)+$8000
1C55 06        2018:                    +NID
1C56 4003      2019:                    ((:17C-*)&$3FFF)+$4000
1C58 07        2020:                    +SID
  1C59         2021: :17C               EQU     *
1C59 2C        2022:                    $2C
1C5A 230C      2023:                    $23,TYPESUBROUTINE
  00D8         2024: PARAMETERDEFINITIONS       EQU             .SC
  00D9         2025: .SC                SET     .SC+1
1C5C D8        2026:                    PARAMETERDEFINITIONS
1C5D 2C        2027:                    $2C
  00D9         2028: EXTERNALSUBFUNHEADER       EQU             .SC
  00DA         2029: .SC                SET     .SC+1
1C5E D9        2030:                    EXTERNALSUBFUNHEADER
1C5F 38        2031:                    $38
1C60 01        2032:                    +:17D-*-1
1C61 01        2033:                    +1
  1C62         2034: :17D               EQU     *
1C62 2C        2035:                    $2C
1C63 D7        2036:                    ENDOFLINEOPTCOMMENT
1C64 2C        2037:                    $2C
  1C65         2038: :17B               EQU     *
1C65 29        2039:                    $29
  1C66         2040: .                  SET     *
  0CDD         2041:                    ORG     FUNCTIONCOMPILATION*2+.SA




ASM/6800 1.3H4: 0CDD                    
08/16/82 00:00:00; Page 52; Form 1      
B2.ASM
0CDD 1C66      2042:                    #.
  1C66         2043:                    ORG     .
1C66 3E13CB    2044:                    $3E,#DEF
1C69 803D      2045:                    ((:17E-*)&$3FFF)+$8000
1C6B 06        2046:                    +NID
1C6C 801A      2047:                    ((:17F-*)&$3FFF)+$8000
1C6E 2303      2048:                    $23,FUNCTION
1C70 D8        2049:                    PARAMETERDEFINITIONS
1C71 2C        2050:                    $2C
1C72 D9        2051:                    EXTERNALSUBFUNHEADER
1C73 38        2052:                    $38
1C74 01        2053:                    +:180-*-1
1C75 01        2054:                    +1
  1C76         2055: :180               EQU     *
1C76 2C        2056:                    $2C
1C77 21        2057:                    $21
               2058:                    FCC     ''
1C78 BD        2059:                    '=+$80
1C79 8009      2060:                    ((:181-*)&$3FFF)+$8000
  00DA         2061: NUMEXP             EQU     .SC
  00DB         2062: .SC                SET     .SC+1
1C7B DA        2063:                    NUMEXP
1C7C 2C        2064:                    $2C
  00DB         2065: OPFUNRET           EQU     .SC
  00DC         2066: .SC                SET     .SC+1
1C7D DB        2067:                    OPFUNRET
1C7E 2F        2068:                    $2F
1C7F 3A0006    2069:                    $3A,COMPILEPHASE,COMPILEDONE
  1C82         2070: :181               EQU     *
1C82 4003      2071:                    ((:182-*)&$3FFF)+$4000
1C84 34        2072:                    $34
  1C85         2073: :182               EQU     *
1C85 2C        2074:                    $2C
  1C86         2075: :17F               EQU     *
1C86 401D      2076:                    ((:183-*)&$3FFF)+$4000
1C88 07        2077:                    +SID
1C89 801A      2078:                    ((:184-*)&$3FFF)+$8000
1C8B 2303      2079:                    $23,FUNCTION
1C8D D8        2080:                    PARAMETERDEFINITIONS
1C8E 2C        2081:                    $2C




ASM/6800 1.3H4: 1C8F                    
08/16/82 00:00:00; Page 53; Form 1      
B2.ASM
1C8F D9        2082:                    EXTERNALSUBFUNHEADER
1C90 38        2083:                    $38
1C91 01        2084:                    +:185-*-1
1C92 01        2085:                    +1
  1C93         2086: :185               EQU     *
1C93 2C        2087:                    $2C
1C94 21        2088:                    $21
               2089:                    FCC     ''
1C95 BD        2090:                    '=+$80
1C96 8009      2091:                    ((:186-*)&$3FFF)+$8000
  00DC         2092: STREXP             EQU     .SC
  00DD         2093: .SC                SET     .SC+1
1C98 DC        2094:                    STREXP
1C99 2C        2095:                    $2C
1C9A DB        2096:                    OPFUNRET
1C9B 2F        2097:                    $2F
1C9C 3A0006    2098:                    $3A,COMPILEPHASE,COMPILEDONE
  1C9F         2099: :186               EQU     *
1C9F 4003      2100:                    ((:187-*)&$3FFF)+$4000
1CA1 34        2101:                    $34
  1CA2         2102: :187               EQU     *
1CA2 2C        2103:                    $2C
  1CA3         2104: :184               EQU     *
  1CA3         2105: :183               EQU     *
1CA3 2C        2106:                    $2C
1CA4 D7        2107:                    ENDOFLINEOPTCOMMENT
1CA5 2C        2108:                    $2C
  1CA6         2109: :17E               EQU     *
1CA6 29        2110:                    $29
  1CA7         2111: .                  SET     *
  0CFB         2112:                    ORG     EXTERNALSUBFUNHEADER*2+.SA
0CFB 1CA7      2113:                    #.
  1CA7         2114:                    ORG     .
1CA7 30        2115:                    $30
1CA8 2E50524F  2116:                    FCC     '.PROGSTAR'
1CB1 D4        2117:                    'T+$80
1CB2 D2        2118:                    EQUHERE
1CB3 2F        2119:                    $2F
1CB4 30        2120:                    $30
1CB5 094A5352  2121:                    FCC     '    JSR            $10'




ASM/6800 1.3H4: 1CBD                    
08/16/82 00:00:00; Page 54; Form 1      
B2.ASM
1CBD B6        2122:                    '6+$80
1CBE 2F        2123:                    $2F
1CBF D3        2124:                    BYTE
1CC0 30        2125:                    $30
1CC1 2431      2126:                    FCC     '$1'
1CC3 B4        2127:                    '4+$80
1CC4 2F        2128:                    $2F
1CC5 D4        2129:                    ADDR
1CC6 30        2130:                    $30
1CC7 2E465245  2131:                    FCC     '.FREFLB'
1CCE CC        2132:                    'L+$80
1CCF 2F        2133:                    $2F
1CD0 D6        2134:                    DADDR
1CD1 30        2135:                    $30
1CD2 3A3A2D    2136:                    FCC     '::-'
1CD5 B6        2137:                    '6+$80
1CD6 2F        2138:                    $2F
1CD7 D6        2139:                    DADDR
1CD8 30        2140:                    $30
1CD9 2E544E53  2141:                    FCC     '.TNS'
1CDD D3        2142:                    'S+$80
1CDE 2F        2143:                    $2F
1CDF D6        2144:                    DADDR
1CE0 30        2145:                    $30
1CE1 2E544E53  2146:                    FCC     '.TNSS+6*.TNS'
1CED D6        2147:                    'V+$80
1CEE 2F        2148:                    $2F
1CEF D3        2149:                    BYTE
1CF0 30        2150:                    $30
1CF1 3A4E4152  2151:                    FCC     ':NARG'
1CF6 D3        2152:                    'S+$80
1CF7 2F        2153:                    $2F
1CF8 3A0002    2154:                    $3A,COMPILEPHASE,COMPILINGDATAORIGIN
1CFB 29        2155:                    $29
  1CFC         2156: .                  SET     *
  0CE1         2157:                    ORG     DATAORIGINSTMT*2+.SA
0CE1 1CFC      2158:                    #.
  1CFC         2159:                    ORG     .
1CFC 3E11AF    2160:                    $3E,#DATA
1CFF 801F      2161:                    ((:188-*)&$3FFF)+$8000




ASM/6800 1.3H4: 1D01                    
08/16/82 00:00:00; Page 55; Form 1      
B2.ASM
1D01 21        2162:                    $21
1D02 4F524947  2163:                    FCC     'ORIGI'
1D07 CE        2164:                    'N+$80
1D08 2C        2165:                    $2C
1D09 21        2166:                    $21
               2167:                    FCC     ''
1D0A BA        2168:                    ':+$80
1D0B 2C        2169:                    $2C
1D0C 0B        2170:                    +HEXNUM
1D0D 2C        2171:                    $2C
1D0E D7        2172:                    ENDOFLINEOPTCOMMENT
1D0F 2C        2173:                    $2C
1D10 30        2174:                    $30
1D11 3A094551  2175:                    FCC     ': EQU           '
1D17 A4        2176:                    '$+$80
1D18 3201      2177:                    $32,1
1D1A 2F        2178:                    $2F
1D1B 3A0003    2179:                    $3A,COMPILEPHASE,COMPILINGCOMMON
  1D1E         2180: :188               EQU     *
1D1E 29        2181:                    $29
  1D1F         2182: .                  SET     *
  0CE3         2183:                    ORG     BASICCOMMON*2+.SA
0CE3 1D1F      2184:                    #.
  1D1F         2185:                    ORG     .
  00DD         2186: COMMONSTMT         EQU     .SC
  00DE         2187: .SC                SET     .SC+1
1D1F DD        2188:                    COMMONSTMT
1D20 2A        2189:                    $2A
1D21 C5        2190:                    REMARKSTMT
1D22 2A        2191:                    $2A
1D23 C6        2192:                    INCLUDESTMT
1D24 2A        2193:                    $2A
  00DE         2194: DIMLABEL           EQU     .SC
  00DF         2195: .SC                SET     .SC+1
1D25 DE        2196:                    DIMLABEL
1D26 8013      2197:                    ((:189-*)&$3FFF)+$8000
1D28 DD        2198:                    COMMONSTMT
1D29 400F      2199:                    ((:18A-*)&$3FFF)+$4000
1D2B C5        2200:                    REMARKSTMT
1D2C 400C      2201:                    ((:18A-*)&$3FFF)+$4000




ASM/6800 1.3H4: 1D2C                    
08/16/82 00:00:00; Page 56; Form 1      
B2.ASM
  00DF         2202: DIMSTMT            EQU     .SC
  00E0         2203: .SC                SET     .SC+1
1D2E DF        2204:                    DIMSTMT
1D2F 4009      2205:                    ((:18A-*)&$3FFF)+$4000
  00E0         2206: ENDOFLINE          EQU     .SC
  00E1         2207: .SC                SET     .SC+1
1D31 E0        2208:                    ENDOFLINE
1D32 4006      2209:                    ((:18A-*)&$3FFF)+$4000
  00E1         2210: LABELLEDFIRSTEXECUTABLELINE                EQU .SC
  00E2         2211: .SC                SET     .SC+1
1D34 E1        2212:                    LABELLEDFIRSTEXECUTABLELINE
1D35 38        2213:                    $38
1D36 01        2214:                    +:18B-*-1
1D37 01        2215:                    +1
  1D38         2216: :18B               EQU     *
  1D38         2217: :18A               EQU     *
1D38 2C        2218:                    $2C
  1D39         2219: :189               EQU     *
1D39 2A        2220:                    $2A
1D3A 34        2221:                    $34
1D3B 3A0004    2222:                    $3A,COMPILEPHASE,COMPILINGDIMS
1D3E 29        2223:                    $29
  1D3F         2224: .                  SET     *
  0CE5         2225:                    ORG     BASICDIMS*2+.SA
0CE5 1D3F      2226:                    #.
  1D3F         2227:                    ORG     .
1D3F DF        2228:                    DIMSTMT
1D40 2A        2229:                    $2A
1D41 C5        2230:                    REMARKSTMT
1D42 2A        2231:                    $2A
1D43 C6        2232:                    INCLUDESTMT
1D44 2A        2233:                    $2A
1D45 DE        2234:                    DIMLABEL
1D46 8010      2235:                    ((:18C-*)&$3FFF)+$8000
1D48 DF        2236:                    DIMSTMT
1D49 400C      2237:                    ((:18D-*)&$3FFF)+$4000
1D4B C5        2238:                    REMARKSTMT
1D4C 4009      2239:                    ((:18D-*)&$3FFF)+$4000
1D4E E0        2240:                    ENDOFLINE
1D4F 4006      2241:                    ((:18D-*)&$3FFF)+$4000




ASM/6800 1.3H4: 1D51                    
08/16/82 00:00:00; Page 57; Form 1      
B2.ASM
1D51 E1        2242:                    LABELLEDFIRSTEXECUTABLELINE
1D52 38        2243:                    $38
1D53 01        2244:                    +:18E-*-1
1D54 01        2245:                    +1
  1D55         2246: :18E               EQU     *
  1D55         2247: :18D               EQU     *
1D55 2C        2248:                    $2C
  1D56         2249: :18C               EQU     *
1D56 2A        2250:                    $2A
1D57 34        2251:                    $34
1D58 3A0005    2252:                    $3A,COMPILEPHASE,COMPILINGSTMTS
  00E2         2253: CODEBODY           EQU     .SC
  00E3         2254: .SC                SET     .SC+1
1D5B E2        2255:                    CODEBODY
1D5C D2        2256:                    EQUHERE
1D5D 2F        2257:                    $2F
1D5E 29        2258:                    $29
  1D5F         2259: .                  SET     *
  0CE7         2260:                    ORG     BASICSTMTS*2+.SA
0CE7 1D5F      2261:                    #.
  1D5F         2262:                    ORG     .
  00E3         2263: LINELABEL          EQU     .SC
  00E4         2264: .SC                SET     .SC+1
1D5F E3        2265:                    LINELABEL
1D60 8016      2266:                    ((:18F-*)&$3FFF)+$8000
  00E4         2267: LABELLEDBLOCK      EQU     .SC
  00E5         2268: .SC                SET     .SC+1
1D62 E4        2269:                    LABELLEDBLOCK
1D63 38        2270:                    $38
1D64 01        2271:                    +:190-*-1
1D65 01        2272:                    +1
  1D66         2273: :190               EQU     *
1D66 8006      2274:                    ((:191-*)&$3FFF)+$8000
  00E5         2275: RESTOFCLAUSE       EQU     .SC
  00E6         2276: .SC                SET     .SC+1
1D68 E5        2277:                    RESTOFCLAUSE
1D69 2C        2278:                    $2C
1D6A E0        2279:                    ENDOFLINE
1D6B 2C        2280:                    $2C
  1D6C         2281: :191               EQU     *




ASM/6800 1.3H4: 1D6C                    
08/16/82 00:00:00; Page 58; Form 1      
B2.ASM
1D6C 4009      2282:                    ((:192-*)&$3FFF)+$4000
  00E6         2283: LINEBODY           EQU     .SC
  00E7         2284: .SC                SET     .SC+1
1D6E E6        2285:                    LINEBODY
1D6F 4006      2286:                    ((:192-*)&$3FFF)+$4000
  00E7         2287: FORMATLINE         EQU     .SC
  00E8         2288: .SC                SET     .SC+1
1D71 E7        2289:                    FORMATLINE
1D72 4003      2290:                    ((:192-*)&$3FFF)+$4000
1D74 E0        2291:                    ENDOFLINE
  1D75         2292: :192               EQU     *
1D75 2C        2293:                    $2C
  1D76         2294: :18F               EQU     *
1D76 2A        2295:                    $2A
1D77 E6        2296:                    LINEBODY
1D78 2A        2297:                    $2A
1D79 C6        2298:                    INCLUDESTMT
1D7A 29        2299:                    $29
  1D7B         2300: .                  SET     *
  0CD3         2301:                    ORG     REMARKSTMT*2+.SA
0CD3 1D7B      2302:                    #.
  1D7B         2303:                    ORG     .
  00E8         2304: REMHEAD            EQU     .SC
  00E9         2305: .SC                SET     .SC+1
1D7B E8        2306:                    REMHEAD
1D7C 8006      2307:                    ((:193-*)&$3FFF)+$8000
  00E9         2308: REMARK             EQU     .SC
  00EA         2309: .SC                SET     .SC+1
1D7E E9        2310:                    REMARK
1D7F 2C        2311:                    $2C
1D80 E0        2312:                    ENDOFLINE
1D81 2C        2313:                    $2C
  1D82         2314: :193               EQU     *
1D82 29        2315:                    $29
  1D83         2316: .                  SET     *
  0D19         2317:                    ORG     REMHEAD*2+.SA
0D19 1D83      2318:                    #.
  1D83         2319:                    ORG     .
1D83 21        2320:                    $21
1D84 5245      2321:                    FCC     'RE'




ASM/6800 1.3H4: 1D86                    
08/16/82 00:00:00; Page 59; Form 1      
B2.ASM
1D86 CD        2322:                    'M+$80
1D87 2A        2323:                    $2A
1D88 21        2324:                    $21
1D89 5265      2325:                    FCC     'Re'
1D8B ED        2326:                    'm+$80
1D8C 2A        2327:                    $2A
1D8D 21        2328:                    $21
1D8E 7265      2329:                    FCC     're'
1D90 ED        2330:                    'm+$80
1D91 2A        2331:                    $2A
1D92 21        2332:                    $21
               2333:                    FCC     ''
1D93 A1        2334:                    '!+$80
1D94 29        2335:                    $29
  1D95         2336: .                  SET     *
  0D09         2337:                    ORG     ENDOFLINE*2+.SA
0D09 1D95      2338:                    #.
  1D95         2339:                    ORG     .
1D95 21        2340:                    $21
1D96 8D        2341:                    +$80+$D
1D97 8004      2342:                    ((:194-*)&$3FFF)+$8000
1D99 C3        2343:                    OPTENDOFLINE
1D9A 2C        2344:                    $2C
  1D9B         2345: :194               EQU     *
1D9B 29        2346:                    $29
  1D9C         2347: .                  SET     *
  0CCF         2348:                    ORG     OPTENDOFLINE*2+.SA
0CCF 1D9C      2349:                    #.
  1D9C         2350:                    ORG     .
  1D9C         2351: :195               EQU     *
1D9C 21        2352:                    $21
1D9D 8D        2353:                    +$80+$D
1D9E 4004      2354:                    ((:196-*)&$3FFF)+$4000
1DA0 21        2355:                    $21
1DA1 8C        2356:                    +$80+$C
  1DA2         2357: :196               EQU     *
1DA2 7FFA      2358:                    ((:195-*)&$3FFF)+$4000
1DA4 34        2359:                    $34
1DA5 29        2360:                    $29
  1DA6         2361: .                  SET     *




ASM/6800 1.3H4: 1DA5                    
08/16/82 00:00:00; Page 60; Form 1      
B2.ASM
  0CF7         2362:                    ORG     ENDOFLINEOPTCOMMENT*2+.SA
0CF7 1DA6      2363:                    #.
  1DA6         2364:                    ORG     .
1DA6 21        2365:                    $21
               2366:                    FCC     ''
1DA7 DC        2367:                    '\+$80
1DA8 8004      2368:                    ((:197-*)&$3FFF)+$8000
1DAA C5        2369:                    REMARKSTMT
1DAB 2C        2370:                    $2C
  1DAC         2371: :197               EQU     *
1DAC 2A        2372:                    $2A
1DAD E0        2373:                    ENDOFLINE
1DAE 29        2374:                    $29
  1DAF         2375: .                  SET     *
  0D15         2376:                    ORG     LINEBODY*2+.SA
0D15 1DAF      2377:                    #.
  1DAF         2378:                    ORG     .
  00EA         2379: CLAUSE             EQU     .SC
  00EB         2380: .SC                SET     .SC+1
1DAF EA        2381:                    CLAUSE
1DB0 8004      2382:                    ((:198-*)&$3FFF)+$8000
1DB2 E0        2383:                    ENDOFLINE
1DB3 2C        2384:                    $2C
  1DB4         2385: :198               EQU     *
1DB4 2A        2386:                    $2A
  00EB         2387: FUNCTIONDEFN       EQU     .SC
  00EC         2388: .SC                SET     .SC+1
1DB5 EB        2389:                    FUNCTIONDEFN
1DB6 8004      2390:                    ((:199-*)&$3FFF)+$8000
1DB8 D7        2391:                    ENDOFLINEOPTCOMMENT
1DB9 2C        2392:                    $2C
  1DBA         2393: :199               EQU     *
1DBA 2A        2394:                    $2A
  00EC         2395: SUBROUTINEDEFN     EQU     .SC
  00ED         2396: .SC                SET     .SC+1
1DBB EC        2397:                    SUBROUTINEDEFN
1DBC 8004      2398:                    ((:19A-*)&$3FFF)+$8000
1DBE D7        2399:                    ENDOFLINEOPTCOMMENT
1DBF 2C        2400:                    $2C
  1DC0         2401: :19A               EQU     *




ASM/6800 1.3H4: 1DC0                    
08/16/82 00:00:00; Page 61; Form 1      
B2.ASM
1DC0 2A        2402:                    $2A
  00ED         2403: ENDSTMT            EQU     .SC
  00EE         2404: .SC                SET     .SC+1
1DC1 ED        2405:                    ENDSTMT
1DC2 8005      2406:                    ((:19B-*)&$3FFF)+$8000
1DC4 21        2407:                    $21
1DC5 8D        2408:                    +$80+$D
1DC6 2C        2409:                    $2C
  1DC7         2410: :19B               EQU     *
1DC7 29        2411:                    $29
  00EE         2412: EXECUTABLELINE     EQU     .SC
  00EF         2413: .SC                SET     .SC+1
  1DC8         2414: .                  SET     *
  0D25         2415:                    ORG     EXECUTABLELINE*2+.SA
0D25 1DC8      2416:                    #.
  1DC8         2417:                    ORG     .
1DC8 EA        2418:                    CLAUSE
1DC9 8004      2419:                    ((:19C-*)&$3FFF)+$8000
1DCB E0        2420:                    ENDOFLINE
1DCC 2C        2421:                    $2C
  1DCD         2422: :19C               EQU     *
1DCD 29        2423:                    $29
  1DCE         2424: .                  SET     *
  0D0B         2425:                    ORG     LABELLEDFIRSTEXECUTABLELINE*2+.SA
0D0B 1DCE      2426:                    #.
  1DCE         2427:                    ORG     .
1DCE 3A0005    2428:                    $3A,COMPILEPHASE,COMPILINGSTMTS
1DD1 E2        2429:                    CODEBODY
1DD2 D2        2430:                    EQUHERE
1DD3 2F        2431:                    $2F
1DD4 E4        2432:                    LABELLEDBLOCK
1DD5 38        2433:                    $38
1DD6 01        2434:                    +:19D-*-1
1DD7 01        2435:                    +1
  1DD8         2436: :19D               EQU     *
1DD8 8006      2437:                    ((:19E-*)&$3FFF)+$8000
1DDA E5        2438:                    RESTOFCLAUSE
1DDB 2C        2439:                    $2C
1DDC E0        2440:                    ENDOFLINE
1DDD 2C        2441:                    $2C




ASM/6800 1.3H4: 1DDD                    
08/16/82 00:00:00; Page 62; Form 1      
B2.ASM
  1DDE         2442: :19E               EQU     *
1DDE 4006      2443:                    ((:19F-*)&$3FFF)+$4000
1DE0 E6        2444:                    LINEBODY
1DE1 4003      2445:                    ((:19F-*)&$3FFF)+$4000
1DE3 E7        2446:                    FORMATLINE
  1DE4         2447: :19F               EQU     *
1DE4 2C        2448:                    $2C
1DE5 29        2449:                    $29
  1DE6         2450: .                  SET     *
  0D11         2451:                    ORG     LABELLEDBLOCK*2+.SA
0D11 1DE6      2452:                    #.
  1DE6         2453:                    ORG     .
1DE6 3E1300    2454:                    $3E,#IF
1DE9 8004      2455:                    ((:1A0-*)&$3FFF)+$8000
  00EF         2456: IFSTMT             EQU     .SC
  00F0         2457: .SC                SET     .SC+1
1DEB EF        2458:                    IFSTMT
1DEC 2C        2459:                    $2C
  1DED         2460: :1A0               EQU     *
1DED 402D      2461:                    ((:1A1-*)&$3FFF)+$4000
1DEF 3E121F    2462:                    $3E,#FOR
1DF2 8004      2463:                    ((:1A2-*)&$3FFF)+$8000
  00F0         2464: FORSTMT            EQU     .SC
  00F1         2465: .SC                SET     .SC+1
1DF4 F0        2466:                    FORSTMT
1DF5 2C        2467:                    $2C
  1DF6         2468: :1A2               EQU     *
1DF6 4024      2469:                    ((:1A1-*)&$3FFF)+$4000
1DF8 3E12DE    2470:                    $3E,#REPEAT
1DFB 8004      2471:                    ((:1A3-*)&$3FFF)+$8000
  00F1         2472: REPEATSTMT         EQU     .SC
  00F2         2473: .SC                SET     .SC+1
1DFD F1        2474:                    REPEATSTMT
1DFE 2C        2475:                    $2C
  1DFF         2476: :1A3               EQU     *
1DFF 401B      2477:                    ((:1A1-*)&$3FFF)+$4000
1E01 3E12B7    2478:                    $3E,#WHILE
1E04 8004      2479:                    ((:1A4-*)&$3FFF)+$8000
  00F2         2480: WHILESTMT          EQU     .SC
  00F3         2481: .SC                SET     .SC+1




ASM/6800 1.3H4: 1E06                    
08/16/82 00:00:00; Page 63; Form 1      
B2.ASM
1E06 F2        2482:                    WHILESTMT
1E07 2C        2483:                    $2C
  1E08         2484: :1A4               EQU     *
1E08 4012      2485:                    ((:1A1-*)&$3FFF)+$4000
1E0A 3E12C2    2486:                    $3E,#UNTIL
1E0D 8004      2487:                    ((:1A5-*)&$3FFF)+$8000
  00F3         2488: UNTILSTMT          EQU     .SC
  00F4         2489: .SC                SET     .SC+1
1E0F F3        2490:                    UNTILSTMT
1E10 2C        2491:                    $2C
  1E11         2492: :1A5               EQU     *
1E11 4009      2493:                    ((:1A1-*)&$3FFF)+$4000
1E13 3E12CD    2494:                    $3E,#DO
1E16 8004      2495:                    ((:1A6-*)&$3FFF)+$8000
  00F4         2496: DOSTMT             EQU     .SC
  00F5         2497: .SC                SET     .SC+1
1E18 F4        2498:                    DOSTMT
1E19 2C        2499:                    $2C
  1E1A         2500: :1A6               EQU     *
  1E1A         2501: :1A1               EQU     *
1E1A 8009      2502:                    ((:1A7-*)&$3FFF)+$8000
1E1C 30        2503:                    $30
1E1D 45        2504:                    FCC     'E'
1E1E BA        2505:                    ':+$80
1E1F 3201      2506:                    $32,1
1E21 D2        2507:                    EQUHERE
1E22 2F        2508:                    $2F
  1E23         2509: :1A7               EQU     *
1E23 29        2510:                    $29
  1E24         2511: .                  SET     *
  0D1D         2512:                    ORG     CLAUSE*2+.SA
0D1D 1E24      2513:                    #.
  1E24         2514:                    ORG     .
  00F5         2515: EXECUTABLESTMT     EQU     .SC
  00F6         2516: .SC                SET     .SC+1
1E24 F5        2517:                    EXECUTABLESTMT
1E25 8004      2518:                    ((:1A8-*)&$3FFF)+$8000
1E27 E5        2519:                    RESTOFCLAUSE
1E28 2C        2520:                    $2C
  1E29         2521: :1A8               EQU     *




ASM/6800 1.3H4: 1E29                    
08/16/82 00:00:00; Page 64; Form 1      
B2.ASM
1E29 29        2522:                    $29
  1E2A         2523: .                  SET     *
  0D13         2524:                    ORG     RESTOFCLAUSE*2+.SA
0D13 1E2A      2525:                    #.
  1E2A         2526:                    ORG     .
  1E2A         2527: :1A9               EQU     *
1E2A 21        2528:                    $21
               2529:                    FCC     ''
1E2B DC        2530:                    '\+$80
1E2C 8006      2531:                    ((:1AA-*)&$3FFF)+$8000
1E2E C3        2532:                    OPTENDOFLINE
1E2F 2C        2533:                    $2C
1E30 F5        2534:                    EXECUTABLESTMT
1E31 2C        2535:                    $2C
  1E32         2536: :1AA               EQU     *
1E32 7FF8      2537:                    ((:1A9-*)&$3FFF)+$4000
1E34 34        2538:                    $34
1E35 29        2539:                    $29
  1E36         2540: .                  SET     *
  0D05         2541:                    ORG     DIMLABEL*2+.SA
0D05 1E36      2542:                    #.
  1E36         2543:                    ORG     .
  00F6         2544: LINENUM            EQU     .SC
  00F7         2545: .SC                SET     .SC+1
1E36 F6        2546:                    LINENUM
1E37 8028      2547:                    ((:1AB-*)&$3FFF)+$8000
1E39 2707      2548:                    $27,ISLABEL
1E3B 8004      2549:                    ((:1AC-*)&$3FFF)+$8000
  00F7         2550: DOUBLEDEFLINE      EQU     .SC
  00F8         2551: .SC                SET     .SC+1
1E3D F7        2552:                    DOUBLEDEFLINE
1E3E 2C        2553:                    $2C
  1E3F         2554: :1AC               EQU     *
1E3F 4005      2555:                    ((:1AD-*)&$3FFF)+$4000
1E41 34        2556:                    $34
1E42 2307      2557:                    $23,ISLABEL
  1E44         2558: :1AD               EQU     *
1E44 2C        2559:                    $2C
  00F8         2560: OPJMP              EQU     .SC
  00F9         2561: .SC                SET     .SC+1




ASM/6800 1.3H4: 1E45                    
08/16/82 00:00:00; Page 65; Form 1      
B2.ASM
1E45 F8        2562:                    OPJMP
1E46 2F        2563:                    $2F
1E47 D4        2564:                    ADDR
  00F9         2565: GENLBL             EQU     .SC
  00FA         2566: .SC                SET     .SC+1
1E48 F9        2567:                    GENLBL
1E49 3301      2568:                    $33,1
1E4B 2F        2569:                    $2F
  00FA         2570: LABEL              EQU     .SC
  00FB         2571: .SC                SET     .SC+1
1E4C FA        2572:                    LABEL
1E4D 3201      2573:                    $32,1
  00FB         2574: OPLINE             EQU     .SC
  00FC         2575: .SC                SET     .SC+1
1E4F FB        2576:                    OPLINE
1E50 2F        2577:                    $2F
1E51 D5        2578:                    INTEGER
1E52 3201      2579:                    $32,1
1E54 2F        2580:                    $2F
1E55 F8        2581:                    OPJMP
1E56 2F        2582:                    $2F
1E57 D4        2583:                    ADDR
1E58 E2        2584:                    CODEBODY
1E59 2F        2585:                    $2F
1E5A F9        2586:                    GENLBL
1E5B 3301      2587:                    $33,1
1E5D D2        2588:                    EQUHERE
1E5E 2F        2589:                    $2F
  1E5F         2590: :1AB               EQU     *
1E5F 401E      2591:                    ((:1AE-*)&$3FFF)+$4000
1E61 10        2592:                    +LABELID
1E62 801B      2593:                    ((:1AF-*)&$3FFF)+$8000
1E64 21        2594:                    $21
               2595:                    FCC     ''
1E65 BA        2596:                    ':+$80
1E66 2C        2597:                    $2C
1E67 F8        2598:                    OPJMP
1E68 2F        2599:                    $2F
1E69 D4        2600:                    ADDR
1E6A F9        2601:                    GENLBL




ASM/6800 1.3H4: 1E6B                    
08/16/82 00:00:00; Page 66; Form 1      
B2.ASM
1E6B 3301      2602:                    $33,1
1E6D 2F        2603:                    $2F
  00FC         2604: LABELGEN           EQU     .SC
  00FD         2605: .SC                SET     .SC+1
1E6E FC        2606:                    LABELGEN
1E6F 38        2607:                    $38
1E70 01        2608:                    +:1B0-*-1
1E71 01        2609:                    +1
  1E72         2610: :1B0               EQU     *
1E72 2C        2611:                    $2C
1E73 F8        2612:                    OPJMP
1E74 2F        2613:                    $2F
1E75 D4        2614:                    ADDR
1E76 E2        2615:                    CODEBODY
1E77 2F        2616:                    $2F
1E78 F9        2617:                    GENLBL
1E79 3301      2618:                    $33,1
1E7B D2        2619:                    EQUHERE
1E7C 2F        2620:                    $2F
  1E7D         2621: :1AF               EQU     *
  1E7D         2622: :1AE               EQU     *
1E7D 8004      2623:                    ((:1B1-*)&$3FFF)+$8000
1E7F 3701      2624:                    $37,1
  1E81         2625: :1B1               EQU     *
1E81 29        2626:                    $29
  1E82         2627: .                  SET     *
  0D41         2628:                    ORG     LABELGEN*2+.SA
0D41 1E82      2629:                    #.
  1E82         2630:                    ORG     .
1E82 2707      2631:                    $27,ISLABEL
1E84 8004      2632:                    ((:1B2-*)&$3FFF)+$8000
1E86 F7        2633:                    DOUBLEDEFLINE
1E87 2C        2634:                    $2C
  1E88         2635: :1B2               EQU     *
1E88 2A        2636:                    $2A
1E89 2708      2637:                    $27,POTENTIALLABEL
1E8B 8027      2638:                    ((:1B3-*)&$3FFF)+$8000
1E8D 2508      2639:                    $25,POTENTIALLABEL
1E8F 2C        2640:                    $2C
1E90 2509      2641:                    $25,COMMONSCALAR




ASM/6800 1.3H4: 1E92                    
08/16/82 00:00:00; Page 67; Form 1      
B2.ASM
1E92 2C        2642:                    $2C
1E93 2307      2643:                    $23,ISLABEL
1E95 31        2644:                    $31
  00FD         2645: EQUDATA            EQU     .SC
  00FE         2646: .SC                SET     .SC+1
1E96 FD        2647:                    EQUDATA
1E97 2F        2648:                    $2F
  00FE         2649: RESDATA            EQU     .SC
  00FF         2650: .SC                SET     .SC+1
1E98 FE        2651:                    RESDATA
1E99 30        2652:                    $30
               2653:                    FCC     ''
1E9A B6        2654:                    '6+$80
1E9B 2F        2655:                    $2F
1E9C FA        2656:                    LABEL
1E9D 31        2657:                    $31
  00FF         2658: OPLFREFL           EQU     .SC
  0100         2659: .SC                SET     .SC+1
1E9E FF        2660:                    OPLFREFL
1E9F 2F        2661:                    $2F
1EA0 D6        2662:                    DADDR
1EA1 31        2663:                    $31
1EA2 2F        2664:                    $2F
1EA3 D4        2665:                    ADDR
1EA4 30        2666:                    $30
               2667:                    FCC     ''
1EA5 AE        2668:                    '.+$80
1EA6 2F        2669:                    $2F
1EA7 30        2670:                    $30
1EA8 2E095345  2671:                    FCC     '. SET           *-'
1EB0 B5        2672:                    '5+$80
1EB1 2F        2673:                    $2F
  1EB2         2674: :1B3               EQU     *
1EB2 2A        2675:                    $2A
1EB3 2706      2676:                    $27,FREFLABEL
1EB5 800C      2677:                    ((:1B4-*)&$3FFF)+$8000
1EB7 2506      2678:                    $25,FREFLABEL
1EB9 2C        2679:                    $2C
1EBA 2307      2680:                    $23,ISLABEL
1EBC FA        2681:                    LABEL




ASM/6800 1.3H4: 1EBD                    
08/16/82 00:00:00; Page 68; Form 1      
B2.ASM
1EBD 31        2682:                    $31
  0100         2683: OPSETLABEL         EQU     .SC
  0101         2684: .SC                SET     .SC+1
1EBE 0100      2685:                    OPSETLABEL
1EC0 2F        2686:                    $2F
  1EC1         2687: :1B4               EQU     *
1EC1 2A        2688:                    $2A
  0101         2689: DEFINED            EQU     .SC
  0102         2690: .SC                SET     .SC+1
1EC2 0101      2691:                    DEFINED
1EC4 8005      2692:                    ((:1B5-*)&$3FFF)+$8000
  0102         2693: LABELUSEDASVAR     EQU     .SC
  0103         2694: .SC                SET     .SC+1
1EC6 0102      2695:                    LABELUSEDASVAR
1EC8 2C        2696:                    $2C
  1EC9         2697: :1B5               EQU     *
1EC9 2A        2698:                    $2A
1ECA 34        2699:                    $34
1ECB 2307      2700:                    $23,ISLABEL
1ECD FA        2701:                    LABEL
1ECE 31        2702:                    $31
1ECF 0100      2703:                    OPSETLABEL
1ED1 2F        2704:                    $2F
1ED2 29        2705:                    $29
  1ED3         2706: .                  SET     *
  0D0F         2707:                    ORG     LINELABEL*2+.SA
0D0F 1ED3      2708:                    #.
  1ED3         2709:                    ORG     .
1ED3 F6        2710:                    LINENUM
1ED4 8017      2711:                    ((:1B6-*)&$3FFF)+$8000
1ED6 2707      2712:                    $27,ISLABEL
1ED8 8004      2713:                    ((:1B7-*)&$3FFF)+$8000
1EDA F7        2714:                    DOUBLEDEFLINE
1EDB 2C        2715:                    $2C
  1EDC         2716: :1B7               EQU     *
1EDC 4005      2717:                    ((:1B8-*)&$3FFF)+$4000
1EDE 34        2718:                    $34
1EDF 2307      2719:                    $23,ISLABEL
  1EE1         2720: :1B8               EQU     *
1EE1 2C        2721:                    $2C




ASM/6800 1.3H4: 1EE2                    
08/16/82 00:00:00; Page 69; Form 1      
B2.ASM
1EE2 FA        2722:                    LABEL
1EE3 3201      2723:                    $32,1
1EE5 FB        2724:                    OPLINE
1EE6 2F        2725:                    $2F
1EE7 D5        2726:                    INTEGER
1EE8 3201      2727:                    $32,1
1EEA 2F        2728:                    $2F
  1EEB         2729: :1B6               EQU     *
1EEB 400D      2730:                    ((:1B9-*)&$3FFF)+$4000
1EED 10        2731:                    +LABELID
1EEE 800A      2732:                    ((:1BA-*)&$3FFF)+$8000
1EF0 21        2733:                    $21
               2734:                    FCC     ''
1EF1 BA        2735:                    ':+$80
1EF2 2C        2736:                    $2C
1EF3 FC        2737:                    LABELGEN
1EF4 38        2738:                    $38
1EF5 01        2739:                    +:1BB-*-1
1EF6 01        2740:                    +1
  1EF7         2741: :1BB               EQU     *
1EF7 2C        2742:                    $2C
  1EF8         2743: :1BA               EQU     *
  1EF8         2744: :1B9               EQU     *
1EF8 8004      2745:                    ((:1BC-*)&$3FFF)+$8000
1EFA 3701      2746:                    $37,1
  1EFC         2747: :1BC               EQU     *
1EFC 29        2748:                    $29
  1EFD         2749: .                  SET     *
  0D35         2750:                    ORG     LINENUM*2+.SA
0D35 1EFD      2751:                    #.
  1EFD         2752:                    ORG     .
1EFD 15        2753:                    +ZEROS
1EFE 8006      2754:                    ((:1BD-*)&$3FFF)+$8000
1F00 0A        2755:                    +NUM
1F01 2C        2756:                    $2C
1F02 3702      2757:                    $37,2
  1F04         2758: :1BD               EQU     *
1F04 2A        2759:                    $2A
1F05 0A        2760:                    +NUM
1F06 8004      2761:                    ((:1BE-*)&$3FFF)+$8000




ASM/6800 1.3H4: 1F08                    
08/16/82 00:00:00; Page 70; Form 1      
B2.ASM
1F08 3701      2762:                    $37,1
  1F0A         2763: :1BE               EQU     *
1F0A 29        2764:                    $29
  1F0B         2765: .                  SET     *
  0D4B         2766:                    ORG     DEFINED*2+.SA
0D4B 1F0B      2767:                    #.
  1F0B         2768:                    ORG     .
1F0B 2705      2769:                    $27,SCALAR
1F0D 2A        2770:                    $2A
1F0E 2709      2771:                    $27,COMMONSCALAR
1F10 2A        2772:                    $2A
1F11 2701      2773:                    $27,VECTOR
1F13 2A        2774:                    $2A
1F14 2702      2775:                    $27,ARRAY
1F16 2A        2776:                    $2A
1F17 2703      2777:                    $27,FUNCTION
1F19 2A        2778:                    $2A
1F1A 2707      2779:                    $27,ISLABEL
1F1C 2A        2780:                    $2A
1F1D 2706      2781:                    $27,FREFLABEL
1F1F 2A        2782:                    $2A
1F20 270C      2783:                    $27,TYPESUBROUTINE
1F22 2A        2784:                    $2A
1F23 270E      2785:                    $27,FREFSUBROUTINE
1F25 29        2786:                    $29
  0103         2787: DEFINEDSTRINGQ     EQU     .SC
  0104         2788: .SC                SET     .SC+1
  1F26         2789: .                  SET     *
  0D4F         2790:                    ORG     DEFINEDSTRINGQ*2+.SA
0D4F 1F26      2791:                    #.
  1F26         2792:                    ORG     .
1F26 2700      2793:                    $27,STRVAR
1F28 2A        2794:                    $2A
1F29 270F      2795:                    $27,STRARRAY
1F2B 2A        2796:                    $2A
1F2C 2704      2797:                    $27,STRINGFUNCTION
1F2E 2A        2798:                    $2A
1F2F 270C      2799:                    $27,TYPESUBROUTINE
1F31 2A        2800:                    $2A
1F32 270E      2801:                    $27,FREFSUBROUTINE




ASM/6800 1.3H4: 1F34                    
08/16/82 00:00:00; Page 71; Form 1      
B2.ASM
1F34 29        2802:                    $29
  1F35         2803: .                  SET     *
  0D4D         2804:                    ORG     LABELUSEDASVAR*2+.SA
0D4D 1F35      2805:                    #.
  1F35         2806:                    ORG     .
1F35 2D        2807:                    $2D
1F36 416C7265  2808:                    FCC     'Already defined as a variabl'
1F52 E5        2809:                    'e+$80
1F53 29        2810:                    $29
  1F54         2811: .                  SET     *
  0D37         2812:                    ORG     DOUBLEDEFLINE*2+.SA
0D37 1F54      2813:                    #.
  1F54         2814:                    ORG     .
1F54 2D        2815:                    $2D
1F55 446F7562  2816:                    FCC     'Doubly-defined line numbe'
1F6E F2        2817:                    'r+$80
1F6F 29        2818:                    $29
  0104         2819: SINGLESUBREQ       EQU     .SC
  0105         2820: .SC                SET     .SC+1
  1F70         2821: .                  SET     *
  0D51         2822:                    ORG     SINGLESUBREQ*2+.SA
0D51 1F70      2823:                    #.
  1F70         2824:                    ORG     .
1F70 2D        2825:                    $2D
1F71 53696E67  2826:                    FCC     'Single subscript require'
1F89 E4        2827:                    'd+$80
1F8A 29        2828:                    $29
  0105         2829: DOUBLESUBREQ       EQU     .SC
  0106         2830: .SC                SET     .SC+1
  1F8B         2831: .                  SET     *
  0D53         2832:                    ORG     DOUBLESUBREQ*2+.SA
0D53 1F8B      2833:                    #.
  1F8B         2834:                    ORG     .
1F8B 2D        2835:                    $2D
1F8C 446F7562  2836:                    FCC     'Double subscript require'
1FA4 E4        2837:                    'd+$80
1FA5 29        2838:                    $29
  0106         2839: NOFUNCTSHERE       EQU     .SC
  0107         2840: .SC                SET     .SC+1
  1FA6         2841: .                  SET     *




ASM/6800 1.3H4: 1FA5                    
08/16/82 00:00:00; Page 72; Form 1      
B2.ASM
  0D55         2842:                    ORG     NOFUNCTSHERE*2+.SA
0D55 1FA6      2843:                    #.
  1FA6         2844:                    ORG     .
1FA6 2D        2845:                    $2D
1FA7 46756E63  2846:                    FCC     'Function not allowed her'
1FBF E5        2847:                    'e+$80
1FC0 29        2848:                    $29
  0107         2849: DOUBLEDEFVAR       EQU     .SC
  0108         2850: .SC                SET     .SC+1
  1FC1         2851: .                  SET     *
  0D57         2852:                    ORG     DOUBLEDEFVAR*2+.SA
0D57 1FC1      2853:                    #.
  1FC1         2854:                    ORG     .
1FC1 2D        2855:                    $2D
1FC2 55736520  2856:                    FCC     'Use of name incompatible with previous us'
1FEB E5        2857:                    'e+$80
1FEC 29        2858:                    $29
  0108         2859: DOUBLEDEFSTR       EQU     .SC
  0109         2860: .SC                SET     .SC+1
  1FED         2861: .                  SET     *
  0D59         2862:                    ORG     DOUBLEDEFSTR*2+.SA
0D59 1FED      2863:                    #.
  1FED         2864:                    ORG     .
1FED 2D        2865:                    $2D
1FEE 446F7562  2866:                    FCC     'Doubly defined string variabl'
200B E5        2867:                    'e+$80
200C 29        2868:                    $29
  0109         2869: NOSUBVARS          EQU     .SC
  010A         2870: .SC                SET     .SC+1
  200D         2871: .                  SET     *
  0D5B         2872:                    ORG     NOSUBVARS*2+.SA
0D5B 200D      2873:                    #.
  200D         2874:                    ORG     .
200D 2D        2875:                    $2D
200E 4E6F2073  2876:                    FCC     'No subscripted variables allowed her'
2032 E5        2877:                    'e+$80
2033 29        2878:                    $29
  010A         2879: CANTSTORELABEL     EQU     .SC
  010B         2880: .SC                SET     .SC+1
  2034         2881: .                  SET     *




ASM/6800 1.3H4: 2033                    
08/16/82 00:00:00; Page 73; Form 1      
B2.ASM
  0D5D         2882:                    ORG     CANTSTORELABEL*2+.SA
0D5D 2034      2883:                    #.
  2034         2884:                    ORG     .
2034 2D        2885:                    $2D
2035 41737369  2886:                    FCC     'Assignment to a label is not allowe'
2058 E4        2887:                    'd+$80
2059 29        2888:                    $29
  010B         2889: UDFSID             EQU     .SC
  010C         2890: .SC                SET     .SC+1
  205A         2891: .                  SET     *
  0D5F         2892:                    ORG     UDFSID*2+.SA
0D5F 205A      2893:                    #.
  205A         2894:                    ORG     .
205A 2300      2895:                    $23,STRVAR
205C 2D        2896:                    $2D
205D 556E6465  2897:                    FCC     'Undefined string variabl'
2075 E5        2898:                    'e+$80
2076 29        2899:                    $29
  010C         2900: NOMATCHINGFOR      EQU     .SC
  010D         2901: .SC                SET     .SC+1
  2077         2902: .                  SET     *
  0D61         2903:                    ORG     NOMATCHINGFOR*2+.SA
0D61 2077      2904:                    #.
  2077         2905:                    ORG     .
2077 2D        2906:                    $2D
2078 4E6F2065  2907:                    FCC     "No enclosing FOR with same variabl"
209A E5        2908:                    'e+$80
209B 29        2909:                    $29
  010D         2910: VARUSEDASLABEL     EQU     .SC
  010E         2911: .SC                SET     .SC+1
  209C         2912: .                  SET     *
  0D63         2913:                    ORG     VARUSEDASLABEL*2+.SA
0D63 209C      2914:                    #.
  209C         2915:                    ORG     .
209C 2D        2916:                    $2D
209D 43616E27  2917:                    FCC     "Can't use variable name for labe"
20BD EC        2918:                    'l+$80
20BE 29        2919:                    $29
  010E         2920: NOPARAMETERSHERE   EQU     .SC
  010F         2921: .SC                SET     .SC+1




ASM/6800 1.3H4: 20BE                    
08/16/82 00:00:00; Page 74; Form 1      
B2.ASM
  20BF         2922: .                  SET     *
  0D65         2923:                    ORG     NOPARAMETERSHERE*2+.SA
0D65 20BF      2924:                    #.
  20BF         2925:                    ORG     .
20BF 2D        2926:                    $2D
20C0 50617261  2927:                    FCC     "Parameter variable not allowed her"
20E2 E5        2928:                    'e+$80
20E3 29        2929:                    $29
  20E4         2930: .                  SET     *
  0CD5         2931:                    ORG     INCLUDESTMT*2+.SA
0CD5 20E4      2932:                    #.
  20E4         2933:                    ORG     .
20E4 3E11CC    2934:                    $3E,#INCLUDE
20E7 8015      2935:                    ((:1BF-*)&$3FFF)+$8000
20E9 21        2936:                    $21
               2937:                    FCC     ''
20EA A2        2938:                    '"+$80
20EB 4004      2939:                    ((:1C0-*)&$3FFF)+$4000
20ED 21        2940:                    $21
               2941:                    FCC     ""
20EE A7        2942:                    ''+$80
  20EF         2943: :1C0               EQU     *
20EF 2C        2944:                    $2C
20F0 0C        2945:                    +STRINGGUTS
20F1 2C        2946:                    $2C
20F2 21        2947:                    $21
               2948:                    FCC     ''
20F3 A2        2949:                    '"+$80
20F4 4004      2950:                    ((:1C1-*)&$3FFF)+$4000
20F6 21        2951:                    $21
               2952:                    FCC     ""
20F7 A7        2953:                    ''+$80
  20F8         2954: :1C1               EQU     *
20F8 2C        2955:                    $2C
20F9 36        2956:                    $36
20FA D7        2957:                    ENDOFLINEOPTCOMMENT
20FB 2C        2958:                    $2C
  20FC         2959: :1BF               EQU     *
20FC 29        2960:                    $29
  20FD         2961: .                  SET     *




ASM/6800 1.3H4: 20FC                    
08/16/82 00:00:00; Page 75; Form 1      
B2.ASM
  0D33         2962:                    ORG     EXECUTABLESTMT*2+.SA
0D33 20FD      2963:                    #.
  20FD         2964:                    ORG     .
20FD E8        2965:                    REMHEAD
20FE 8004      2966:                    ((:1C2-*)&$3FFF)+$8000
2100 E9        2967:                    REMARK
2101 2C        2968:                    $2C
  2102         2969: :1C2               EQU     *
2102 2A        2970:                    $2A
  010F         2971: ASSIGNSTMT         EQU     .SC
  0110         2972: .SC                SET     .SC+1
2103 010F      2973:                    ASSIGNSTMT
2105 2A        2974:                    $2A
  0110         2975: KEYWORDSTMT        EQU     .SC
  0111         2976: .SC                SET     .SC+1
2106 0110      2977:                    KEYWORDSTMT
2108 29        2978:                    $29
  2109         2979: .                  SET     *
  0D69         2980:                    ORG     KEYWORDSTMT*2+.SA
0D69 2109      2981:                    #.
  2109         2982:                    ORG     .
2109 3E124F    2983:                    $3E,#LET
210C 8005      2984:                    ((:1C3-*)&$3FFF)+$8000
210E 010F      2985:                    ASSIGNSTMT
2110 2C        2986:                    $2C
  2111         2987: :1C3               EQU     *
2111 2A        2988:                    $2A
2112 3E1300    2989:                    $3E,#IF
2115 8004      2990:                    ((:1C4-*)&$3FFF)+$8000
2117 EF        2991:                    IFSTMT
2118 2C        2992:                    $2C
  2119         2993: :1C4               EQU     *
2119 2A        2994:                    $2A
211A 3E11EC    2995:                    $3E,#GOTO
211D 8005      2996:                    ((:1C5-*)&$3FFF)+$8000
  0111         2997: GOTOSTMT           EQU     .SC
  0112         2998: .SC                SET     .SC+1
211F 0111      2999:                    GOTOSTMT
2121 2C        3000:                    $2C
  2122         3001: :1C5               EQU     *




ASM/6800 1.3H4: 2122                    
08/16/82 00:00:00; Page 76; Form 1      
B2.ASM
2122 2A        3002:                    $2A
2123 3E1258    3003:                    $3E,#PRINT
2126 8005      3004:                    ((:1C6-*)&$3FFF)+$8000
  0112         3005: PRINTSTMT          EQU     .SC
  0113         3006: .SC                SET     .SC+1
2128 0112      3007:                    PRINTSTMT
212A 2C        3008:                    $2C
  212B         3009: :1C6               EQU     *
212B 2A        3010:                    $2A
212C 3E121F    3011:                    $3E,#FOR
212F 8004      3012:                    ((:1C7-*)&$3FFF)+$8000
2131 F0        3013:                    FORSTMT
2132 2C        3014:                    $2C
  2133         3015: :1C7               EQU     *
2133 2A        3016:                    $2A
2134 3E123A    3017:                    $3E,#CYCLE
2137 8005      3018:                    ((:1C8-*)&$3FFF)+$8000
  0113         3019: CYCLESTMT          EQU     .SC
  0114         3020: .SC                SET     .SC+1
2139 0113      3021:                    CYCLESTMT
213B 2C        3022:                    $2C
  213C         3023: :1C8               EQU     *
213C 2A        3024:                    $2A
213D 3E11FF    3025:                    $3E,#GOSUB
2140 8005      3026:                    ((:1C9-*)&$3FFF)+$8000
  0114         3027: GOSUBSTMT          EQU     .SC
  0115         3028: .SC                SET     .SC+1
2142 0114      3029:                    GOSUBSTMT
2144 2C        3030:                    $2C
  2145         3031: :1C9               EQU     *
2145 2A        3032:                    $2A
2146 3E1213    3033:                    $3E,#RETURN
2149 8005      3034:                    ((:1CA-*)&$3FFF)+$8000
  0115         3035: RETURNSTMT         EQU     .SC
  0116         3036: .SC                SET     .SC+1
214B 0115      3037:                    RETURNSTMT
214D 2C        3038:                    $2C
  214E         3039: :1CA               EQU     *
214E 2A        3040:                    $2A
214F 3E12A3    3041:                    $3E,#STOP




ASM/6800 1.3H4: 2152                    
08/16/82 00:00:00; Page 77; Form 1      
B2.ASM
2152 8005      3042:                    ((:1CB-*)&$3FFF)+$8000
  0116         3043: STOPSTMT           EQU     .SC
  0117         3044: .SC                SET     .SC+1
2154 0116      3045:                    STOPSTMT
2156 2C        3046:                    $2C
  2157         3047: :1CB               EQU     *
2157 2A        3048:                    $2A
2158 3E12B7    3049:                    $3E,#WHILE
215B 8004      3050:                    ((:1CC-*)&$3FFF)+$8000
215D F2        3051:                    WHILESTMT
215E 2C        3052:                    $2C
  215F         3053: :1CC               EQU     *
215F 2A        3054:                    $2A
2160 3E12C2    3055:                    $3E,#UNTIL
2163 8004      3056:                    ((:1CD-*)&$3FFF)+$8000
2165 F3        3057:                    UNTILSTMT
2166 2C        3058:                    $2C
  2167         3059: :1CD               EQU     *
2167 2A        3060:                    $2A
2168 3E12DE    3061:                    $3E,#REPEAT
216B 8004      3062:                    ((:1CE-*)&$3FFF)+$8000
216D F1        3063:                    REPEATSTMT
216E 2C        3064:                    $2C
  216F         3065: :1CE               EQU     *
216F 2A        3066:                    $2A
2170 3E12CD    3067:                    $3E,#DO
2173 8004      3068:                    ((:1CF-*)&$3FFF)+$8000
2175 F4        3069:                    DOSTMT
2176 2C        3070:                    $2C
  2177         3071: :1CF               EQU     *
2177 2A        3072:                    $2A
2178 3E1283    3073:                    $3E,#INPUT
217B 8005      3074:                    ((:1D0-*)&$3FFF)+$8000
  0117         3075: INPUTSTMT          EQU     .SC
  0118         3076: .SC                SET     .SC+1
217D 0117      3077:                    INPUTSTMT
217F 2C        3078:                    $2C
  2180         3079: :1D0               EQU     *
2180 2A        3080:                    $2A
2181 3E128E    3081:                    $3E,#READ




ASM/6800 1.3H4: 2184                    
08/16/82 00:00:00; Page 78; Form 1      
B2.ASM
2184 8005      3082:                    ((:1D1-*)&$3FFF)+$8000
  0118         3083: READSTMT           EQU     .SC
  0119         3084: .SC                SET     .SC+1
2186 0118      3085:                    READSTMT
2188 2C        3086:                    $2C
  2189         3087: :1D1               EQU     *
2189 2A        3088:                    $2A
218A 3E1298    3089:                    $3E,#WRITE
218D 8005      3090:                    ((:1D2-*)&$3FFF)+$8000
  0119         3091: WRITESTMT          EQU     .SC
  011A         3092: .SC                SET     .SC+1
218F 0119      3093:                    WRITESTMT
2191 2C        3094:                    $2C
  2192         3095: :1D2               EQU     *
2192 2A        3096:                    $2A
2193 3E1330    3097:                    $3E,#POSITION
2196 4005      3098:                    ((:1D3-*)&$3FFF)+$4000
2198 3E133E    3099:                    $3E,#RESTORE
  219B         3100: :1D3               EQU     *
219B 8005      3101:                    ((:1D4-*)&$3FFF)+$8000
  011A         3102: POSITIONSTMT       EQU     .SC
  011B         3103: .SC                SET     .SC+1
219D 011A      3104:                    POSITIONSTMT
219F 2C        3105:                    $2C
  21A0         3106: :1D4               EQU     *
21A0 2A        3107:                    $2A
21A1 3E134B    3108:                    $3E,#OPEN
21A4 8005      3109:                    ((:1D5-*)&$3FFF)+$8000
  011B         3110: OPENSTMT           EQU     .SC
  011C         3111: .SC                SET     .SC+1
21A6 011B      3112:                    OPENSTMT
21A8 2C        3113:                    $2C
  21A9         3114: :1D5               EQU     *
21A9 2A        3115:                    $2A
21AA 3E1355    3116:                    $3E,#CREATE
21AD 8005      3117:                    ((:1D6-*)&$3FFF)+$8000
  011C         3118: CREATESTMT         EQU     .SC
  011D         3119: .SC                SET     .SC+1
21AF 011C      3120:                    CREATESTMT
21B1 2C        3121:                    $2C




ASM/6800 1.3H4: 21B1                    
08/16/82 00:00:00; Page 79; Form 1      
B2.ASM
  21B2         3122: :1D6               EQU     *
21B2 2A        3123:                    $2A
21B3 3E1361    3124:                    $3E,#CLOSE
21B6 8005      3125:                    ((:1D7-*)&$3FFF)+$8000
  011D         3126: CLOSESTMT          EQU     .SC
  011E         3127: .SC                SET     .SC+1
21B8 011D      3128:                    CLOSESTMT
21BA 2C        3129:                    $2C
  21BB         3130: :1D7               EQU     *
21BB 2A        3131:                    $2A
21BC 3E136C    3132:                    $3E,#DELETE
21BF 8005      3133:                    ((:1D8-*)&$3FFF)+$8000
  011E         3134: DELETESTMT         EQU     .SC
  011F         3135: .SC                SET     .SC+1
21C1 011E      3136:                    DELETESTMT
21C3 2C        3137:                    $2C
  21C4         3138: :1D8               EQU     *
21C4 2A        3139:                    $2A
21C5 3E1378    3140:                    $3E,#RENAME
21C8 8005      3141:                    ((:1D9-*)&$3FFF)+$8000
  011F         3142: RENAMESTMT         EQU     .SC
  0120         3143: .SC                SET     .SC+1
21CA 011F      3144:                    RENAMESTMT
21CC 2C        3145:                    $2C
  21CD         3146: :1D9               EQU     *
21CD 2A        3147:                    $2A
21CE 3E11D9    3148:                    $3E,#ON
21D1 8005      3149:                    ((:1DA-*)&$3FFF)+$8000
  0120         3150: ONSTMT             EQU     .SC
  0121         3151: .SC                SET     .SC+1
21D3 0120      3152:                    ONSTMT
21D5 2C        3153:                    $2C
  21D6         3154: :1DA               EQU     *
21D6 2A        3155:                    $2A
21D7 3E1384    3156:                    $3E,#CHAIN
21DA 8005      3157:                    ((:1DB-*)&$3FFF)+$8000
  0121         3158: CHAINSTMT          EQU     .SC
  0122         3159: .SC                SET     .SC+1
21DC 0121      3160:                    CHAINSTMT
21DE 2C        3161:                    $2C




ASM/6800 1.3H4: 21DE                    
08/16/82 00:00:00; Page 80; Form 1      
B2.ASM
  21DF         3162: :1DB               EQU     *
21DF 2A        3163:                    $2A
21E0 3E138F    3164:                    $3E,#CALL
21E3 8005      3165:                    ((:1DC-*)&$3FFF)+$8000
  0122         3166: CALLSTMT           EQU     .SC
  0123         3167: .SC                SET     .SC+1
21E5 0122      3168:                    CALLSTMT
21E7 2C        3169:                    $2C
  21E8         3170: :1DC               EQU     *
21E8 2A        3171:                    $2A
21E9 3E1399    3172:                    $3E,#POKE
21EC 8005      3173:                    ((:1DD-*)&$3FFF)+$8000
  0123         3174: POKESTMT           EQU     .SC
  0124         3175: .SC                SET     .SC+1
21EE 0123      3176:                    POKESTMT
21F0 2C        3177:                    $2C
  21F1         3178: :1DD               EQU     *
21F1 2A        3179:                    $2A
21F2 3E13A3    3180:                    $3E,#DEBUG
21F5 8005      3181:                    ((:1DE-*)&$3FFF)+$8000
  0124         3182: DEBUGSTMT          EQU     .SC
  0125         3183: .SC                SET     .SC+1
21F7 0124      3184:                    DEBUGSTMT
21F9 2C        3185:                    $2C
  21FA         3186: :1DE               EQU     *
21FA 2A        3187:                    $2A
21FB 3E11E1    3188:                    $3E,#ERROR
21FE 8005      3189:                    ((:1DF-*)&$3FFF)+$8000
  0125         3190: ERRSTMT            EQU     .SC
  0126         3191: .SC                SET     .SC+1
2200 0125      3192:                    ERRSTMT
2202 2C        3193:                    $2C
  2203         3194: :1DF               EQU     *
2203 2A        3195:                    $2A
2204 3E13AE    3196:                    $3E,#SYSCALL
2207 8005      3197:                    ((:1E0-*)&$3FFF)+$8000
  0126         3198: SYSCALLSTMT        EQU     .SC
  0127         3199: .SC                SET     .SC+1
2209 0126      3200:                    SYSCALLSTMT
220B 2C        3201:                    $2C




ASM/6800 1.3H4: 220B                    
08/16/82 00:00:00; Page 81; Form 1      
B2.ASM
  220C         3202: :1E0               EQU     *
220C 2A        3203:                    $2A
220D 3E12AD    3204:                    $3E,#EXIT
2210 8005      3205:                    ((:1E1-*)&$3FFF)+$8000
  0127         3206: EXITSTMT           EQU     .SC
  0128         3207: .SC                SET     .SC+1
2212 0127      3208:                    EXITSTMT
2214 2C        3209:                    $2C
  2215         3210: :1E1               EQU     *
2215 29        3211:                    $29
  2216         3212: .                  SET     *
  0D23         3213:                    ORG     ENDSTMT*2+.SA
0D23 2216      3214:                    #.
  2216         3215:                    ORG     .
2216 3E12D5    3216:                    $3E,#END
2219 8005      3217:                    ((:1E2-*)&$3FFF)+$8000
221B 3A0006    3218:                    $3A,COMPILEPHASE,COMPILEDONE
  221E         3219: :1E2               EQU     *
221E 29        3220:                    $29
  221F         3221: .                  SET     *
  0D03         3222:                    ORG     COMMONSTMT*2+.SA
0D03 221F      3223:                    #.
  221F         3224:                    ORG     .
221F 3E118D    3225:                    $3E,#COMMON
2222 8005      3226:                    ((:1E3-*)&$3FFF)+$8000
  0128         3227: DIMBODY            EQU     .SC
  0129         3228: .SC                SET     .SC+1
2224 0128      3229:                    DIMBODY
2226 2C        3230:                    $2C
  2227         3231: :1E3               EQU     *
2227 29        3232:                    $29
  0129         3233: NOTLEGALIFCOMMON   EQU     .SC
  012A         3234: .SC                SET     .SC+1
  2228         3235: .                  SET     *
  0D9B         3236:                    ORG     NOTLEGALIFCOMMON*2+.SA
0D9B 2228      3237:                    #.
  2228         3238:                    ORG     .
2228 3B0003    3239:                    $3B,COMPILEPHASE,COMPILINGCOMMON
222B 8025      3240:                    ((:1E4-*)&$3FFF)+$8000
222D 2D        3241:                    $2D




ASM/6800 1.3H4: 222E                    
08/16/82 00:00:00; Page 82; Form 1      
B2.ASM
222E 43616E27  3242:                    FCC     "Can't initialize a COMMON variabl"
224F E5        3243:                    'e+$80
  2250         3244: :1E4               EQU     *
2250 2A        3245:                    $2A
2251 34        3246:                    $34
2252 29        3247:                    $29
  2253         3248: .                  SET     *
  0D07         3249:                    ORG     DIMSTMT*2+.SA
0D07 2253      3250:                    #.
  2253         3251:                    ORG     .
2253 3E1184    3252:                    $3E,#DIM
2256 8008      3253:                    ((:1E5-*)&$3FFF)+$8000
2258 3A0004    3254:                    $3A,COMPILEPHASE,COMPILINGDIMS
225B 0128      3255:                    DIMBODY
225D 2C        3256:                    $2C
  225E         3257: :1E5               EQU     *
225E 29        3258:                    $29
  225F         3259: .                  SET     *
  0D99         3260:                    ORG     DIMBODY*2+.SA
0D99 225F      3261:                    #.
  225F         3262:                    ORG     .
  012A         3263: DIMOBJ             EQU     .SC
  012B         3264: .SC                SET     .SC+1
225F 012A      3265:                    DIMOBJ
2261 800E      3266:                    ((:1E6-*)&$3FFF)+$8000
  2263         3267: :1E7               EQU     *
2263 21        3268:                    $21
               3269:                    FCC     ''
2264 AC        3270:                    ',+$80
2265 8005      3271:                    ((:1E8-*)&$3FFF)+$8000
2267 012A      3272:                    DIMOBJ
2269 2C        3273:                    $2C
  226A         3274: :1E8               EQU     *
226A 7FF9      3275:                    ((:1E7-*)&$3FFF)+$4000
226C 34        3276:                    $34
226D D7        3277:                    ENDOFLINEOPTCOMMENT
226E 2C        3278:                    $2C
  226F         3279: :1E6               EQU     *
226F 29        3280:                    $29
  2270         3281: .                  SET     *




ASM/6800 1.3H4: 226F                    
08/16/82 00:00:00; Page 83; Form 1      
B2.ASM
  0D9D         3282:                    ORG     DIMOBJ*2+.SA
0D9D 2270      3283:                    #.
  2270         3284:                    ORG     .
2270 07        3285:                    +SID
2271 810F      3286:                    ((:1E9-*)&$3FFF)+$8000
2273 0103      3287:                    DEFINEDSTRINGQ
2275 8005      3288:                    ((:1EA-*)&$3FFF)+$8000
2277 0108      3289:                    DOUBLEDEFSTR
2279 2C        3290:                    $2C
  227A         3291: :1EA               EQU     *
227A 4003      3292:                    ((:1EB-*)&$3FFF)+$4000
227C 34        3293:                    $34
  227D         3294: :1EB               EQU     *
227D 2C        3295:                    $2C
227E 31        3296:                    $31
227F FD        3297:                    EQUDATA
2280 2F        3298:                    $2F
2281 C1        3299:                    LB
2282 80BA      3300:                    ((:1EC-*)&$3FFF)+$8000
2284 0A        3301:                    +NUM
2285 2C        3302:                    $2C
2286 C2        3303:                    RB
2287 2C        3304:                    $2C
2288 C1        3305:                    LB
2289 8028      3306:                    ((:1ED-*)&$3FFF)+$8000
228B 0A        3307:                    +NUM
228C 2C        3308:                    $2C
228D C2        3309:                    RB
228E 2C        3310:                    $2C
228F 24010F    3311:                    $24,1,STRARRAY
  012B         3312: OPSAINIT           EQU     .SC
  012C         3313: .SC                SET     .SC+1
2292 012B      3314:                    OPSAINIT
2294 2F        3315:                    $2F
2295 D6        3316:                    DADDR
2296 30        3317:                    $30
2297 3A        3318:                    FCC     ":"
2298 BA        3319:                    ':+$80
2299 2F        3320:                    $2F
229A D5        3321:                    INTEGER




ASM/6800 1.3H4: 229B                    
08/16/82 00:00:00; Page 84; Form 1      
B2.ASM
229B 3202      3322:                    $32,2
229D 2F        3323:                    $2F
229E D5        3324:                    INTEGER
229F 3203      3325:                    $32,3
22A1 2F        3326:                    $2F
22A2 FE        3327:                    RESDATA
22A3 3202      3328:                    $32,2
22A5 30        3329:                    $30
22A6 2A        3330:                    FCC     "*"
22A7 A8        3331:                    '(+$80
22A8 3203      3332:                    $32,3
22AA 30        3333:                    $30
22AB 2B34292B  3334:                    FCC     "+4)+"
22AF B2        3335:                    '2+$80
22B0 2F        3336:                    $2F
  22B1         3337: :1ED               EQU     *
22B1 408A      3338:                    ((:1EE-*)&$3FFF)+$4000
22B3 21        3339:                    $21
               3340:                    FCC     ''
22B4 AF        3341:                    '/+$80
22B5 8057      3342:                    ((:1EF-*)&$3FFF)+$8000
22B7 0129      3343:                    NOTLEGALIFCOMMON
22B9 2C        3344:                    $2C
  012C         3345: INIT               EQU     .SC
  012D         3346: .SC                SET     .SC+1
22BA 012C      3347:                    INIT
22BC F9        3348:                    GENLBL
22BD 3302      3349:                    $33,2
22BF 30        3350:                    $30
22C0 2D2A2D32  3351:                    FCC     '-*-2           ?Initializing string exceeds DIMensio'
22EA EE        3352:                    'n+$80
22EB 2F        3353:                    $2F
22EC D5        3354:                    INTEGER
22ED 3202      3355:                    $32,2
22EF 2F        3356:                    $2F
22F0 D5        3357:                    INTEGER
22F1 F9        3358:                    GENLBL
22F2 3302      3359:                    $33,2
22F4 30        3360:                    $30
22F5 2D2A2D    3361:                    FCC     '-*-'




ASM/6800 1.3H4: 22F8                    
08/16/82 00:00:00; Page 85; Form 1      
B2.ASM
22F8 B2        3362:                    '2+$80
22F9 2F        3363:                    $2F
  012D         3364: BYTELST            EQU     .SC
  012E         3365: .SC                SET     .SC+1
22FA 012D      3366:                    BYTELST
22FC 2C        3367:                    $2C
22FD F9        3368:                    GENLBL
22FE 3302      3369:                    $33,2
2300 D2        3370:                    EQUHERE
2301 2F        3371:                    $2F
2302 FE        3372:                    RESDATA
2303 30        3373:                    $30
2304 34        3374:                    FCC     '4'
2305 AB        3375:                    '++$80
2306 3202      3376:                    $32,2
2308 2F        3377:                    $2F
2309 21        3378:                    $21
               3379:                    FCC     ''
230A AF        3380:                    '/+$80
230B 2C        3381:                    $2C
  230C         3382: :1EF               EQU     *
230C 402A      3383:                    ((:1F0-*)&$3FFF)+$4000
230E 3B0003    3384:                    $3B,COMPILEPHASE,COMPILINGCOMMON
2311 8010      3385:                    ((:1F1-*)&$3FFF)+$8000
2313 012C      3386:                    INIT
2315 30        3387:                    $30
               3388:                    FCC     ''
2316 B2        3389:                    '2+$80
2317 2F        3390:                    $2F
2318 D5        3391:                    INTEGER
2319 31        3392:                    $31
231A 2F        3393:                    $2F
231B FE        3394:                    RESDATA
231C 30        3395:                    $30
231D 34        3396:                    FCC     '4'
231E AB        3397:                    '++$80
231F 31        3398:                    $31
2320 2F        3399:                    $2F
  2321         3400: :1F1               EQU     *
2321 4015      3401:                    ((:1F0-*)&$3FFF)+$4000




ASM/6800 1.3H4: 2323                    
08/16/82 00:00:00; Page 86; Form 1      
B2.ASM
2323 34        3402:                    $34
2324 012C      3403:                    INIT
2326 30        3404:                    $30
               3405:                    FCC     ''
2327 B4        3406:                    '4+$80
2328 2F        3407:                    $2F
2329 D5        3408:                    INTEGER
232A 31        3409:                    $31
232B 2F        3410:                    $2F
232C D5        3411:                    INTEGER
232D 30        3412:                    $30
               3413:                    FCC     ''
232E B0        3414:                    '0+$80
232F 2F        3415:                    $2F
2330 FE        3416:                    RESDATA
2331 30        3417:                    $30
2332 34        3418:                    FCC     '4'
2333 AB        3419:                    '++$80
2334 31        3420:                    $31
2335 2F        3421:                    $2F
  2336         3422: :1F0               EQU     *
2336 8005      3423:                    ((:1F2-*)&$3FFF)+$8000
2338 240100    3424:                    $24,1,STRVAR
  233B         3425: :1F2               EQU     *
  233B         3426: :1EE               EQU     *
233B 2C        3427:                    $2C
  233C         3428: :1EC               EQU     *
233C 4043      3429:                    ((:1F3-*)&$3FFF)+$4000
233E 21        3430:                    $21
               3431:                    FCC     ''
233F AF        3432:                    '/+$80
2340 803F      3433:                    ((:1F4-*)&$3FFF)+$8000
2342 0129      3434:                    NOTLEGALIFCOMMON
2344 2C        3435:                    $2C
2345 012C      3436:                    INIT
2347 F9        3437:                    GENLBL
2348 3302      3438:                    $33,2
234A 30        3439:                    $30
234B 2D2A2D    3440:                    FCC     '-*-'
234E B2        3441:                    '2+$80




ASM/6800 1.3H4: 234F                    
08/16/82 00:00:00; Page 87; Form 1      
B2.ASM
234F 2F        3442:                    $2F
2350 F9        3443:                    GENLBL
2351 3301      3444:                    $33,1
2353 D2        3445:                    EQUHERE
2354 2F        3446:                    $2F
2355 D5        3447:                    INTEGER
2356 F9        3448:                    GENLBL
2357 3302      3449:                    $33,2
2359 30        3450:                    $30
235A 2D2A2D    3451:                    FCC     '-*-'
235D B4        3452:                    '4+$80
235E 2F        3453:                    $2F
235F D5        3454:                    INTEGER
2360 F9        3455:                    GENLBL
2361 3302      3456:                    $33,2
2363 30        3457:                    $30
2364 2D2A2D    3458:                    FCC     '-*-'
2367 B2        3459:                    '2+$80
2368 2F        3460:                    $2F
2369 012D      3461:                    BYTELST
236B 2C        3462:                    $2C
236C F9        3463:                    GENLBL
236D 3302      3464:                    $33,2
236F D2        3465:                    EQUHERE
2370 2F        3466:                    $2F
2371 FE        3467:                    RESDATA
2372 30        3468:                    $30
2373 2A        3469:                    FCC     '*'
2374 AD        3470:                    '-+$80
2375 F9        3471:                    GENLBL
2376 3301      3472:                    $33,1
2378 2F        3473:                    $2F
2379 21        3474:                    $21
               3475:                    FCC     ''
237A AF        3476:                    '/+$80
237B 2C        3477:                    $2C
237C 240100    3478:                    $24,1,STRVAR
  237F         3479: :1F4               EQU     *
  237F         3480: :1F3               EQU     *
237F 2C        3481:                    $2C




ASM/6800 1.3H4: 237F                    
08/16/82 00:00:00; Page 88; Form 1      
B2.ASM
  2380         3482: :1E9               EQU     *
2380 2A        3483:                    $2A
2381 06        3484:                    +NID
2382 814A      3485:                    ((:1F5-*)&$3FFF)+$8000
2384 2707      3486:                    $27,ISLABEL
2386 4004      3487:                    ((:1F6-*)&$3FFF)+$4000
2388 2706      3488:                    $27,FREFLABEL
  238A         3489: :1F6               EQU     *
238A 8005      3490:                    ((:1F7-*)&$3FFF)+$8000
238C 010D      3491:                    VARUSEDASLABEL
238E 2C        3492:                    $2C
  238F         3493: :1F7               EQU     *
238F 400C      3494:                    ((:1F8-*)&$3FFF)+$4000
2391 0101      3495:                    DEFINED
2393 8005      3496:                    ((:1F9-*)&$3FFF)+$8000
2395 0107      3497:                    DOUBLEDEFVAR
2397 2C        3498:                    $2C
  2398         3499: :1F9               EQU     *
2398 4003      3500:                    ((:1F8-*)&$3FFF)+$4000
239A 34        3501:                    $34
  239B         3502: :1F8               EQU     *
239B 2C        3503:                    $2C
239C C1        3504:                    LB
239D 8050      3505:                    ((:1FA-*)&$3FFF)+$8000
239F 31        3506:                    $31
23A0 FD        3507:                    EQUDATA
23A1 2F        3508:                    $2F
23A2 0A        3509:                    +NUM
23A3 2C        3510:                    $2C
23A4 C2        3511:                    RB
23A5 8017      3512:                    ((:1FB-*)&$3FFF)+$8000
23A7 240101    3513:                    $24,1,VECTOR
23AA 012C      3514:                    INIT
23AC 30        3515:                    $30
               3516:                    FCC     ''
23AD B2        3517:                    '2+$80
23AE 2F        3518:                    $2F
23AF D5        3519:                    INTEGER
23B0 3202      3520:                    $32,2
23B2 2F        3521:                    $2F




ASM/6800 1.3H4: 23B3                    
08/16/82 00:00:00; Page 89; Form 1      
B2.ASM
23B3 FE        3522:                    RESDATA
23B4 30        3523:                    $30
23B5 382B36    3524:                    FCC     '8+6'
23B8 AA        3525:                    '*+$80
23B9 3202      3526:                    $32,2
23BB 2F        3527:                    $2F
  23BC         3528: :1FB               EQU     *
23BC 4030      3529:                    ((:1FC-*)&$3FFF)+$4000
23BE 21        3530:                    $21
               3531:                    FCC     ''
23BF AC        3532:                    ',+$80
23C0 802C      3533:                    ((:1FD-*)&$3FFF)+$8000
23C2 0A        3534:                    +NUM
23C3 2C        3535:                    $2C
23C4 C2        3536:                    RB
23C5 2C        3537:                    $2C
23C6 240102    3538:                    $24,1,ARRAY
23C9 012C      3539:                    INIT
23CB 30        3540:                    $30
               3541:                    FCC     ''
23CC B4        3542:                    '4+$80
23CD 2F        3543:                    $2F
23CE D5        3544:                    INTEGER
23CF 3202      3545:                    $32,2
23D1 2F        3546:                    $2F
23D2 D5        3547:                    INTEGER
23D3 3203      3548:                    $32,3
23D5 2F        3549:                    $2F
23D6 FE        3550:                    RESDATA
23D7 30        3551:                    $30
23D8 342B362A  3552:                    FCC     '4+6*'
23DC A8        3553:                    '(+$80
23DD 3202      3554:                    $32,2
23DF 30        3555:                    $30
23E0 2B31292A  3556:                    FCC     '+1)*'
23E4 A8        3557:                    '(+$80
23E5 3203      3558:                    $32,3
23E7 30        3559:                    $30
23E8 2B31      3560:                    FCC     '+1'
23EA A9        3561:                    ')+$80




ASM/6800 1.3H4: 23EB                    
08/16/82 00:00:00; Page 90; Form 1      
B2.ASM
23EB 2F        3562:                    $2F
  23EC         3563: :1FD               EQU     *
  23EC         3564: :1FC               EQU     *
23EC 2C        3565:                    $2C
  23ED         3566: :1FA               EQU     *
23ED 40DE      3567:                    ((:1FE-*)&$3FFF)+$4000
23EF 3B0003    3568:                    $3B,COMPILEPHASE,COMPILINGCOMMON
23F2 8024      3569:                    ((:1FF-*)&$3FFF)+$8000
23F4 31        3570:                    $31
23F5 FD        3571:                    EQUDATA
23F6 2F        3572:                    $2F
23F7 21        3573:                    $21
               3574:                    FCC     ''
23F8 AF        3575:                    '/+$80
23F9 8012      3576:                    ((:1100-*)&$3FFF)+$8000
23FB 0129      3577:                    NOTLEGALIFCOMMON
23FD 2C        3578:                    $2C
  012E         3579: CONSTANT           EQU     .SC
  012F         3580: .SC                SET     .SC+1
23FE 012E      3581:                    CONSTANT
2400 2C        3582:                    $2C
2401 21        3583:                    $21
               3584:                    FCC     ''
2402 AF        3585:                    '/+$80
2403 2C        3586:                    $2C
  012F         3587: OPSTORE            EQU     .SC
  0130         3588: .SC                SET     .SC+1
2404 012F      3589:                    OPSTORE
2406 2F        3590:                    $2F
2407 D6        3591:                    DADDR
2408 3201      3592:                    $32,1
240A 2F        3593:                    $2F
  240B         3594: :1100              EQU     *
240B 4003      3595:                    ((:1101-*)&$3FFF)+$4000
240D 34        3596:                    $34
  240E         3597: :1101              EQU     *
240E 2C        3598:                    $2C
240F 240109    3599:                    $24,1,COMMONSCALAR
2412 FE        3600:                    RESDATA
2413 30        3601:                    $30




ASM/6800 1.3H4: 2413                    
08/16/82 00:00:00; Page 91; Form 1      
B2.ASM
               3602:                    FCC     ''
2414 B6        3603:                    '6+$80
2415 2F        3604:                    $2F
  2416         3605: :1FF               EQU     *
2416 40B5      3606:                    ((:1FE-*)&$3FFF)+$4000
2418 21        3607:                    $21
               3608:                    FCC     ''
2419 AF        3609:                    '/+$80
241A 80A6      3610:                    ((:1102-*)&$3FFF)+$8000
241C 0A        3611:                    +NUM
241D 8032      3612:                    ((:1103-*)&$3FFF)+$8000
241F 21        3613:                    $21
               3614:                    FCC     ''
2420 AC        3615:                    ',+$80
2421 8019      3616:                    ((:1104-*)&$3FFF)+$8000
2423 240101    3617:                    $24,1,VECTOR
  0130         3618: INITVECTORHEAD     EQU     .SC
  0131         3619: .SC                SET     .SC+1
2426 0130      3620:                    INITVECTORHEAD
2428 38        3621:                    $38
2429 81        3622:                    +:1105-*-1+$80
242A 01        3623:                    +1
  242B         3624: :1105              EQU     *
242B 2F        3625:                    $2F
  0131         3626: SIXBYTEINTEGER     EQU     .SC
  0132         3627: .SC                SET     .SC+1
242C 0131      3628:                    SIXBYTEINTEGER
242E 38        3629:                    $38
242F 01        3630:                    +:1106-*-1
2430 02        3631:                    +2
  2431         3632: :1106              EQU     *
2431 2F        3633:                    $2F
  0132         3634: VECTORINITLIST     EQU     .SC
  0133         3635: .SC                SET     .SC+1
2432 0132      3636:                    VECTORINITLIST
2434 2C        3637:                    $2C
  0133         3638: INITVECTORTAIL     EQU     .SC
  0134         3639: .SC                SET     .SC+1
2435 0133      3640:                    INITVECTORTAIL
2437 38        3641:                    $38




ASM/6800 1.3H4: 2438                    
08/16/82 00:00:00; Page 92; Form 1      
B2.ASM
2438 80        3642:                    +:1107-*-1+$80
  2439         3643: :1107              EQU     *
2439 2F        3644:                    $2F
  243A         3645: :1104              EQU     *
243A 4014      3646:                    ((:1108-*)&$3FFF)+$4000
243C 34        3647:                    $34
243D 240105    3648:                    $24,1,SCALAR
  0134         3649: INITSCALARHEAD     EQU     .SC
  0135         3650: .SC                SET     .SC+1
2440 0134      3651:                    INITSCALARHEAD
2442 2F        3652:                    $2F
2443 0131      3653:                    SIXBYTEINTEGER
2445 38        3654:                    $38
2446 01        3655:                    +:1109-*-1
2447 02        3656:                    +2
  2448         3657: :1109              EQU     *
2448 2F        3658:                    $2F
2449 3201      3659:                    $32,1
  0135         3660: ALLOCATESCALAR     EQU     .SC
  0136         3661: .SC                SET     .SC+1
244B 0135      3662:                    ALLOCATESCALAR
244D 2F        3663:                    $2F
  244E         3664: :1108              EQU     *
244E 2C        3665:                    $2C
  244F         3666: :1103              EQU     *
244F 406D      3667:                    ((:110A-*)&$3FFF)+$4000
2451 12        3668:                    +FNUM
2452 8032      3669:                    ((:110B-*)&$3FFF)+$8000
2454 21        3670:                    $21
               3671:                    FCC     ''
2455 AC        3672:                    ',+$80
2456 8019      3673:                    ((:110C-*)&$3FFF)+$8000
2458 240101    3674:                    $24,1,VECTOR
245B 0130      3675:                    INITVECTORHEAD
245D 38        3676:                    $38
245E 81        3677:                    +:110D-*-1+$80
245F 01        3678:                    +1
  2460         3679: :110D              EQU     *
2460 2F        3680:                    $2F
  0136         3681: SIXBYTEFNUM        EQU     .SC




ASM/6800 1.3H4: 2460                    
08/16/82 00:00:00; Page 93; Form 1      
B2.ASM
  0137         3682: .SC                SET     .SC+1
2461 0136      3683:                    SIXBYTEFNUM
2463 38        3684:                    $38
2464 01        3685:                    +:110E-*-1
2465 02        3686:                    +2
  2466         3687: :110E              EQU     *
2466 2F        3688:                    $2F
2467 0132      3689:                    VECTORINITLIST
2469 2C        3690:                    $2C
246A 0133      3691:                    INITVECTORTAIL
246C 38        3692:                    $38
246D 80        3693:                    +:110F-*-1+$80
  246E         3694: :110F              EQU     *
246E 2F        3695:                    $2F
  246F         3696: :110C              EQU     *
246F 4014      3697:                    ((:1110-*)&$3FFF)+$4000
2471 34        3698:                    $34
2472 240105    3699:                    $24,1,SCALAR
2475 0134      3700:                    INITSCALARHEAD
2477 2F        3701:                    $2F
2478 0136      3702:                    SIXBYTEFNUM
247A 38        3703:                    $38
247B 01        3704:                    +:1111-*-1
247C 02        3705:                    +2
  247D         3706: :1111              EQU     *
247D 2F        3707:                    $2F
247E 3201      3708:                    $32,1
2480 0135      3709:                    ALLOCATESCALAR
2482 2F        3710:                    $2F
  2483         3711: :1110              EQU     *
2483 2C        3712:                    $2C
  2484         3713: :110B              EQU     *
2484 4038      3714:                    ((:110A-*)&$3FFF)+$4000
2486 21        3715:                    $21
               3716:                    FCC     ''
2487 BA        3717:                    ':+$80
2488 8034      3718:                    ((:1112-*)&$3FFF)+$8000
248A 0B        3719:                    +HEXNUM
248B 2C        3720:                    $2C
248C 21        3721:                    $21




ASM/6800 1.3H4: 248C                    
08/16/82 00:00:00; Page 94; Form 1      
B2.ASM
               3722:                    FCC     ''
248D AC        3723:                    ',+$80
248E 8019      3724:                    ((:1113-*)&$3FFF)+$8000
2490 240101    3725:                    $24,1,VECTOR
2493 0130      3726:                    INITVECTORHEAD
2495 38        3727:                    $38
2496 81        3728:                    +:1114-*-1+$80
2497 01        3729:                    +1
  2498         3730: :1114              EQU     *
2498 2F        3731:                    $2F
  0137         3732: SIXBYTEHEXINTEGER  EQU     .SC
  0138         3733: .SC                SET     .SC+1
2499 0137      3734:                    SIXBYTEHEXINTEGER
249B 38        3735:                    $38
249C 01        3736:                    +:1115-*-1
249D 02        3737:                    +2
  249E         3738: :1115              EQU     *
249E 2F        3739:                    $2F
249F 0132      3740:                    VECTORINITLIST
24A1 2C        3741:                    $2C
24A2 0133      3742:                    INITVECTORTAIL
24A4 38        3743:                    $38
24A5 80        3744:                    +:1116-*-1+$80
  24A6         3745: :1116              EQU     *
24A6 2F        3746:                    $2F
  24A7         3747: :1113              EQU     *
24A7 4014      3748:                    ((:1117-*)&$3FFF)+$4000
24A9 34        3749:                    $34
24AA 240105    3750:                    $24,1,SCALAR
24AD 0134      3751:                    INITSCALARHEAD
24AF 2F        3752:                    $2F
24B0 0137      3753:                    SIXBYTEHEXINTEGER
24B2 38        3754:                    $38
24B3 01        3755:                    +:1118-*-1
24B4 02        3756:                    +2
  24B5         3757: :1118              EQU     *
24B5 2F        3758:                    $2F
24B6 3201      3759:                    $32,1
24B8 0135      3760:                    ALLOCATESCALAR
24BA 2F        3761:                    $2F




ASM/6800 1.3H4: 24BA                    
08/16/82 00:00:00; Page 95; Form 1      
B2.ASM
  24BB         3762: :1117              EQU     *
24BB 2C        3763:                    $2C
  24BC         3764: :1112              EQU     *
  24BC         3765: :110A              EQU     *
24BC 2C        3766:                    $2C
24BD 21        3767:                    $21
               3768:                    FCC     ''
24BE AF        3769:                    '/+$80
24BF 2C        3770:                    $2C
  24C0         3771: :1102              EQU     *
24C0 400B      3772:                    ((:1FE-*)&$3FFF)+$4000
24C2 34        3773:                    $34
24C3 240105    3774:                    $24,1,SCALAR
24C6 3201      3775:                    $32,1
24C8 0135      3776:                    ALLOCATESCALAR
24CA 2F        3777:                    $2F
  24CB         3778: :1FE               EQU     *
24CB 2C        3779:                    $2C
  24CC         3780: :1F5               EQU     *
24CC 29        3781:                    $29
  24CD         3782: .                  SET     *
  0DA5         3783:                    ORG     CONSTANT*2+.SA
0DA5 24CD      3784:                    #.
  24CD         3785:                    ORG     .
24CD 08        3786:                    +ONEDIGITNUM
24CE 8006      3787:                    ((:1119-*)&$3FFF)+$8000
  0138         3788: OPLSMI             EQU     .SC
  0139         3789: .SC                SET     .SC+1
24D0 0138      3790:                    OPLSMI
24D2 31        3791:                    $31
24D3 2F        3792:                    $2F
  24D4         3793: :1119              EQU     *
24D4 2A        3794:                    $2A
24D5 09        3795:                    +TENTO255
24D6 8008      3796:                    ((:111A-*)&$3FFF)+$8000
  0139         3797: OPLBINT            EQU     .SC
  013A         3798: .SC                SET     .SC+1
24D8 0139      3799:                    OPLBINT
24DA 2F        3800:                    $2F
24DB D3        3801:                    BYTE




ASM/6800 1.3H4: 24DC                    
08/16/82 00:00:00; Page 96; Form 1      
B2.ASM
24DC 31        3802:                    $31
24DD 2F        3803:                    $2F
  24DE         3804: :111A              EQU     *
24DE 2A        3805:                    $2A
24DF 0A        3806:                    +NUM
24E0 8008      3807:                    ((:111B-*)&$3FFF)+$8000
  013A         3808: OPLINT             EQU     .SC
  013B         3809: .SC                SET     .SC+1
24E2 013A      3810:                    OPLINT
24E4 2F        3811:                    $2F
24E5 D5        3812:                    INTEGER
24E6 31        3813:                    $31
24E7 2F        3814:                    $2F
  24E8         3815: :111B              EQU     *
24E8 2A        3816:                    $2A
24E9 12        3817:                    +FNUM
24EA 800B      3818:                    ((:111C-*)&$3FFF)+$8000
  013B         3819: OPLFI              EQU     .SC
  013C         3820: .SC                SET     .SC+1
24EC 013B      3821:                    OPLFI
24EE 2F        3822:                    $2F
24EF 0136      3823:                    SIXBYTEFNUM
24F1 38        3824:                    $38
24F2 01        3825:                    +:111D-*-1
24F3 01        3826:                    +1
  24F4         3827: :111D              EQU     *
24F4 2F        3828:                    $2F
  24F5         3829: :111C              EQU     *
24F5 2A        3830:                    $2A
24F6 21        3831:                    $21
               3832:                    FCC     ''
24F7 BA        3833:                    ':+$80
24F8 800C      3834:                    ((:111E-*)&$3FFF)+$8000
24FA 0B        3835:                    +HEXNUM
24FB 2C        3836:                    $2C
24FC 013A      3837:                    OPLINT
24FE 2F        3838:                    $2F
24FF D5        3839:                    INTEGER
2500 30        3840:                    $30
               3841:                    FCC     ''




ASM/6800 1.3H4: 2501                    
08/16/82 00:00:00; Page 97; Form 1      
B2.ASM
2501 A4        3842:                    '$+$80
2502 31        3843:                    $31
2503 2F        3844:                    $2F
  2504         3845: :111E              EQU     *
2504 29        3846:                    $29
  2505         3847: .                  SET     *
  0DA3         3848:                    ORG     BYTELST*2+.SA
0DA3 2505      3849:                    #.
  2505         3850:                    ORG     .
  013C         3851: BYTEOBJ            EQU     .SC
  013D         3852: .SC                SET     .SC+1
2505 013C      3853:                    BYTEOBJ
2507 800C      3854:                    ((:111F-*)&$3FFF)+$8000
  2509         3855: :1120              EQU     *
2509 21        3856:                    $21
               3857:                    FCC     ''
250A AC        3858:                    ',+$80
250B 8005      3859:                    ((:1121-*)&$3FFF)+$8000
250D 013C      3860:                    BYTEOBJ
250F 2C        3861:                    $2C
  2510         3862: :1121              EQU     *
2510 7FF9      3863:                    ((:1120-*)&$3FFF)+$4000
2512 34        3864:                    $34
  2513         3865: :111F              EQU     *
2513 29        3866:                    $29
  2514         3867: .                  SET     *
  0DC1         3868:                    ORG     BYTEOBJ*2+.SA
0DC1 2514      3869:                    #.
  2514         3870:                    ORG     .
2514 0D        3871:                    +STRING
2515 8006      3872:                    ((:1122-*)&$3FFF)+$8000
  013D         3873: TEXT               EQU     .SC
  013E         3874: .SC                SET     .SC+1
2517 013D      3875:                    TEXT
2519 31        3876:                    $31
251A 2F        3877:                    $2F
  251B         3878: :1122              EQU     *
251B 2A        3879:                    $2A
251C 0A        3880:                    +NUM
251D 8005      3881:                    ((:1123-*)&$3FFF)+$8000




ASM/6800 1.3H4: 251F                    
08/16/82 00:00:00; Page 98; Form 1      
B2.ASM
251F D3        3882:                    BYTE
2520 31        3883:                    $31
2521 2F        3884:                    $2F
  2522         3885: :1123              EQU     *
2522 2A        3886:                    $2A
2523 21        3887:                    $21
               3888:                    FCC     ''
2524 BA        3889:                    ':+$80
2525 8009      3890:                    ((:1124-*)&$3FFF)+$8000
2527 0B        3891:                    +HEXNUM
2528 2C        3892:                    $2C
2529 D3        3893:                    BYTE
252A 30        3894:                    $30
               3895:                    FCC     ''
252B A4        3896:                    '$+$80
252C 31        3897:                    $31
252D 2F        3898:                    $2F
  252E         3899: :1124              EQU     *
252E 29        3900:                    $29
  252F         3901: .                  SET     *
  0DAD         3902:                    ORG     VECTORINITLIST*2+.SA
0DAD 252F      3903:                    #.
  252F         3904:                    ORG     .
  013E         3905: VECTORINITVALUE    EQU     .SC
  013F         3906: .SC                SET     .SC+1
252F 013E      3907:                    VECTORINITVALUE
2531 800C      3908:                    ((:1125-*)&$3FFF)+$8000
  2533         3909: :1126              EQU     *
2533 21        3910:                    $21
               3911:                    FCC     ''
2534 AC        3912:                    ',+$80
2535 8005      3913:                    ((:1127-*)&$3FFF)+$8000
2537 013E      3914:                    VECTORINITVALUE
2539 2C        3915:                    $2C
  253A         3916: :1127              EQU     *
253A 7FF9      3917:                    ((:1126-*)&$3FFF)+$4000
253C 34        3918:                    $34
  253D         3919: :1125              EQU     *
253D 29        3920:                    $29
  253E         3921: .                  SET     *




ASM/6800 1.3H4: 253D                    
08/16/82 00:00:00; Page 99; Form 1      
B2.ASM
  0DC5         3922:                    ORG     VECTORINITVALUE*2+.SA
0DC5 253E      3923:                    #.
  253E         3924:                    ORG     .
253E 0A        3925:                    +NUM
253F 8008      3926:                    ((:1128-*)&$3FFF)+$8000
2541 0131      3927:                    SIXBYTEINTEGER
2543 38        3928:                    $38
2544 01        3929:                    +:1129-*-1
2545 01        3930:                    +1
  2546         3931: :1129              EQU     *
2546 2F        3932:                    $2F
  2547         3933: :1128              EQU     *
2547 2A        3934:                    $2A
2548 12        3935:                    +FNUM
2549 8008      3936:                    ((:112A-*)&$3FFF)+$8000
254B 0136      3937:                    SIXBYTEFNUM
254D 38        3938:                    $38
254E 01        3939:                    +:112B-*-1
254F 01        3940:                    +1
  2550         3941: :112B              EQU     *
2550 2F        3942:                    $2F
  2551         3943: :112A              EQU     *
2551 2A        3944:                    $2A
2552 21        3945:                    $21
               3946:                    FCC     ''
2553 BA        3947:                    ':+$80
2554 800A      3948:                    ((:112C-*)&$3FFF)+$8000
2556 0B        3949:                    +HEXNUM
2557 2C        3950:                    $2C
2558 0137      3951:                    SIXBYTEHEXINTEGER
255A 38        3952:                    $38
255B 01        3953:                    +:112D-*-1
255C 01        3954:                    +1
  255D         3955: :112D              EQU     *
255D 2F        3956:                    $2F
  255E         3957: :112C              EQU     *
255E 29        3958:                    $29
  255F         3959: .                  SET     *
  0D17         3960:                    ORG     FORMATLINE*2+.SA
0D17 255F      3961:                    #.




ASM/6800 1.3H4: 0D17                    
08/16/82 00:00:00; Page 100; Form 1     
B2.ASM
  255F         3962:                    ORG     .
255F 3E126E    3963:                    $3E,#FORMAT
2562 801C      3964:                    ((:112E-*)&$3FFF)+$8000
2564 0D        3965:                    +STRING
2565 2C        3966:                    $2C
  013F         3967: OPJUC              EQU     .SC
  0140         3968: .SC                SET     .SC+1
2566 013F      3969:                    OPJUC
2568 2F        3970:                    $2F
2569 D3        3971:                    BYTE
256A F9        3972:                    GENLBL
256B 3301      3973:                    $33,1
256D 30        3974:                    $30
256E 2D2A2D    3975:                    FCC     '-*-'
2571 B1        3976:                    '1+$80
2572 2F        3977:                    $2F
2573 013D      3978:                    TEXT
2575 31        3979:                    $31
2576 2F        3980:                    $2F
2577 F9        3981:                    GENLBL
2578 3301      3982:                    $33,1
257A D2        3983:                    EQUHERE
257B 2F        3984:                    $2F
257C D7        3985:                    ENDOFLINEOPTCOMMENT
257D 2C        3986:                    $2C
  257E         3987: :112E              EQU     *
257E 29        3988:                    $29
  257F         3989: .                  SET     *
  0D67         3990:                    ORG     ASSIGNSTMT*2+.SA
0D67 257F      3991:                    #.
  257F         3992:                    ORG     .
257F 06        3993:                    +NID
2580 810E      3994:                    ((:112F-*)&$3FFF)+$8000
2582 2705      3995:                    $27,SCALAR
2584 800E      3996:                    ((:1130-*)&$3FFF)+$8000
  0140         3997: NOSUBSCRIPTS       EQU     .SC
  0141         3998: .SC                SET     .SC+1
2586 0140      3999:                    NOSUBSCRIPTS
2588 2C        4000:                    $2C
  0141         4001: EQUALNUMEXP        EQU     .SC




ASM/6800 1.3H4: 2588                    
08/16/82 00:00:00; Page 101; Form 1     
B2.ASM
  0142         4002: .SC                SET     .SC+1
2589 0141      4003:                    EQUALNUMEXP
258B 2C        4004:                    $2C
  0142         4005: OPSSCALAR          EQU     .SC
  0143         4006: .SC                SET     .SC+1
258C 0142      4007:                    OPSSCALAR
258E 38        4008:                    $38
258F 01        4009:                    +:1131-*-1
2590 01        4010:                    +1
  2591         4011: :1131              EQU     *
2591 2C        4012:                    $2C
  2592         4013: :1130              EQU     *
2592 40FB      4014:                    ((:1132-*)&$3FFF)+$4000
2594 2708      4015:                    $27,POTENTIALLABEL
2596 8019      4016:                    ((:1133-*)&$3FFF)+$8000
2598 2508      4017:                    $25,POTENTIALLABEL
259A 2C        4018:                    $2C
259B 0140      4019:                    NOSUBSCRIPTS
259D 2C        4020:                    $2C
259E 31        4021:                    $31
259F FD        4022:                    EQUDATA
25A0 2F        4023:                    $2F
25A1 FE        4024:                    RESDATA
25A2 30        4025:                    $30
               4026:                    FCC     ''
25A3 B6        4027:                    '6+$80
25A4 2F        4028:                    $2F
25A5 0141      4029:                    EQUALNUMEXP
25A7 2C        4030:                    $2C
25A8 012F      4031:                    OPSTORE
25AA 2F        4032:                    $2F
25AB D6        4033:                    DADDR
25AC 3201      4034:                    $32,1
25AE 2F        4035:                    $2F
  25AF         4036: :1133              EQU     *
25AF 40DE      4037:                    ((:1132-*)&$3FFF)+$4000
25B1 2709      4038:                    $27,COMMONSCALAR
25B3 8027      4039:                    ((:1134-*)&$3FFF)+$8000
25B5 2508      4040:                    $25,POTENTIALLABEL
25B7 2C        4041:                    $2C




ASM/6800 1.3H4: 25B8                    
08/16/82 00:00:00; Page 102; Form 1     
B2.ASM
25B8 0140      4042:                    NOSUBSCRIPTS
25BA 2C        4043:                    $2C
25BB 270D      4044:                    $27,PARAMETER
25BD 800F      4045:                    ((:1135-*)&$3FFF)+$8000
  0143         4046: OPLOAD             EQU     .SC
  0144         4047: .SC                SET     .SC+1
25BF 0143      4048:                    OPLOAD
25C1 2F        4049:                    $2F
25C2 D6        4050:                    DADDR
25C3 3201      4051:                    $32,1
25C5 2F        4052:                    $2F
25C6 0141      4053:                    EQUALNUMEXP
25C8 2C        4054:                    $2C
  0144         4055: OPST               EQU     .SC
  0145         4056: .SC                SET     .SC+1
25C9 0144      4057:                    OPST
25CB 2F        4058:                    $2F
  25CC         4059: :1135              EQU     *
25CC 400D      4060:                    ((:1136-*)&$3FFF)+$4000
25CE 0141      4061:                    EQUALNUMEXP
25D0 8009      4062:                    ((:1137-*)&$3FFF)+$8000
25D2 012F      4063:                    OPSTORE
25D4 2F        4064:                    $2F
25D5 D6        4065:                    DADDR
25D6 3201      4066:                    $32,1
25D8 2F        4067:                    $2F
  25D9         4068: :1137              EQU     *
  25D9         4069: :1136              EQU     *
25D9 2C        4070:                    $2C
  25DA         4071: :1134              EQU     *
25DA 40B3      4072:                    ((:1132-*)&$3FFF)+$4000
25DC 2701      4073:                    $27,VECTOR
25DE 8025      4074:                    ((:1138-*)&$3FFF)+$8000
  0145         4075: ONESUBSCRIPT       EQU     .SC
  0146         4076: .SC                SET     .SC+1
25E0 0145      4077:                    ONESUBSCRIPT
25E2 2C        4078:                    $2C
25E3 28010D    4079:                    $28,1,PARAMETER
25E6 800F      4080:                    ((:1139-*)&$3FFF)+$8000
  0146         4081: OPVPA              EQU     .SC




ASM/6800 1.3H4: 25E6                    
08/16/82 00:00:00; Page 103; Form 1     
B2.ASM
  0147         4082: .SC                SET     .SC+1
25E8 0146      4083:                    OPVPA
25EA 2F        4084:                    $2F
25EB D6        4085:                    DADDR
25EC 3201      4086:                    $32,1
25EE 2F        4087:                    $2F
25EF 0141      4088:                    EQUALNUMEXP
25F1 2C        4089:                    $2C
25F2 0144      4090:                    OPST
25F4 2F        4091:                    $2F
  25F5         4092: :1139              EQU     *
25F5 400D      4093:                    ((:113A-*)&$3FFF)+$4000
25F7 0141      4094:                    EQUALNUMEXP
25F9 8009      4095:                    ((:113B-*)&$3FFF)+$8000
  0147         4096: OPVSS              EQU     .SC
  0148         4097: .SC                SET     .SC+1
25FB 0147      4098:                    OPVSS
25FD 2F        4099:                    $2F
25FE D6        4100:                    DADDR
25FF 3201      4101:                    $32,1
2601 2F        4102:                    $2F
  2602         4103: :113B              EQU     *
  2602         4104: :113A              EQU     *
2602 2C        4105:                    $2C
  2603         4106: :1138              EQU     *
2603 408A      4107:                    ((:1132-*)&$3FFF)+$4000
2605 2702      4108:                    $27,ARRAY
2607 8025      4109:                    ((:113C-*)&$3FFF)+$8000
  0148         4110: TWOSUBSCRIPTS      EQU     .SC
  0149         4111: .SC                SET     .SC+1
2609 0148      4112:                    TWOSUBSCRIPTS
260B 2C        4113:                    $2C
260C 28010D    4114:                    $28,1,PARAMETER
260F 800F      4115:                    ((:113D-*)&$3FFF)+$8000
  0149         4116: OPAPA              EQU     .SC
  014A         4117: .SC                SET     .SC+1
2611 0149      4118:                    OPAPA
2613 2F        4119:                    $2F
2614 D6        4120:                    DADDR
2615 3201      4121:                    $32,1




ASM/6800 1.3H4: 2617                    
08/16/82 00:00:00; Page 104; Form 1     
B2.ASM
2617 2F        4122:                    $2F
2618 0141      4123:                    EQUALNUMEXP
261A 2C        4124:                    $2C
261B 0144      4125:                    OPST
261D 2F        4126:                    $2F
  261E         4127: :113D              EQU     *
261E 400D      4128:                    ((:113E-*)&$3FFF)+$4000
2620 0141      4129:                    EQUALNUMEXP
2622 8009      4130:                    ((:113F-*)&$3FFF)+$8000
  014A         4131: OPASS              EQU     .SC
  014B         4132: .SC                SET     .SC+1
2624 014A      4133:                    OPASS
2626 2F        4134:                    $2F
2627 D6        4135:                    DADDR
2628 3201      4136:                    $32,1
262A 2F        4137:                    $2F
  262B         4138: :113F              EQU     *
  262B         4139: :113E              EQU     *
262B 2C        4140:                    $2C
  262C         4141: :113C              EQU     *
262C 4061      4142:                    ((:1132-*)&$3FFF)+$4000
262E 2707      4143:                    $27,ISLABEL
2630 4004      4144:                    ((:1140-*)&$3FFF)+$4000
2632 2706      4145:                    $27,FREFLABEL
  2634         4146: :1140              EQU     *
2634 8005      4147:                    ((:1141-*)&$3FFF)+$8000
2636 010A      4148:                    CANTSTORELABEL
2638 2C        4149:                    $2C
  2639         4150: :1141              EQU     *
2639 4054      4151:                    ((:1132-*)&$3FFF)+$4000
263B 2703      4152:                    $27,FUNCTION
263D 8020      4153:                    ((:1142-*)&$3FFF)+$8000
  014B         4154: ARGUMENTLIST       EQU     .SC
  014C         4155: .SC                SET     .SC+1
263F 014B      4156:                    ARGUMENTLIST
2641 38        4157:                    $38
2642 80        4158:                    +:1143-*-1+$80
  2643         4159: :1143              EQU     *
2643 2C        4160:                    $2C
2644 21        4161:                    $21




ASM/6800 1.3H4: 2644                    
08/16/82 00:00:00; Page 105; Form 1     
B2.ASM
               4162:                    FCC     ''
2645 BD        4163:                    '=+$80
2646 2C        4164:                    $2C
  014C         4165: NUMERICARGUMENT    EQU     .SC
  014D         4166: .SC                SET     .SC+1
2647 014C      4167:                    NUMERICARGUMENT
2649 2C        4168:                    $2C
  014D         4169: OPCALL             EQU     .SC
  014E         4170: .SC                SET     .SC+1
264A 014D      4171:                    OPCALL
264C 2F        4172:                    $2F
264D D4        4173:                    ADDR
264E 30        4174:                    $30
264F 5345      4175:                    FCC     'SE'
2651 D4        4176:                    'T+$80
2652 3201      4177:                    $32,1
2654 2F        4178:                    $2F
2655 D3        4179:                    BYTE
2656 F9        4180:                    GENLBL
2657 3301      4181:                    $33,1
2659 30        4182:                    $30
265A 2B        4183:                    FCC     '+'
265B B1        4184:                    '1+$80
265C 2F        4185:                    $2F
  265D         4186: :1142              EQU     *
265D 4030      4187:                    ((:1132-*)&$3FFF)+$4000
265F 270C      4188:                    $27,TYPESUBROUTINE
2661 4004      4189:                    ((:1144-*)&$3FFF)+$4000
2663 270E      4190:                    $27,FREFSUBROUTINE
  2665         4191: :1144              EQU     *
2665 8013      4192:                    ((:1145-*)&$3FFF)+$8000
2667 014B      4193:                    ARGUMENTLIST
2669 38        4194:                    $38
266A 80        4195:                    +:1146-*-1+$80
  266B         4196: :1146              EQU     *
266B 2C        4197:                    $2C
266C 014D      4198:                    OPCALL
266E 2F        4199:                    $2F
266F D4        4200:                    ADDR
2670 3201      4201:                    $32,1




ASM/6800 1.3H4: 2672                    
08/16/82 00:00:00; Page 106; Form 1     
B2.ASM
2672 2F        4202:                    $2F
2673 D3        4203:                    BYTE
2674 F9        4204:                    GENLBL
2675 3301      4205:                    $33,1
2677 2F        4206:                    $2F
  2678         4207: :1145              EQU     *
2678 4015      4208:                    ((:1132-*)&$3FFF)+$4000
267A 0140      4209:                    NOSUBSCRIPTS
267C 8011      4210:                    ((:1147-*)&$3FFF)+$8000
267E 2305      4211:                    $23,SCALAR
2680 31        4212:                    $31
2681 0135      4213:                    ALLOCATESCALAR
2683 2F        4214:                    $2F
2684 0141      4215:                    EQUALNUMEXP
2686 2C        4216:                    $2C
2687 0142      4217:                    OPSSCALAR
2689 38        4218:                    $38
268A 01        4219:                    +:1148-*-1
268B 01        4220:                    +1
  268C         4221: :1148              EQU     *
268C 2C        4222:                    $2C
  268D         4223: :1147              EQU     *
  268D         4224: :1132              EQU     *
268D 2C        4225:                    $2C
  268E         4226: :112F              EQU     *
268E 2A        4227:                    $2A
  014E         4228: OBVIOUSSTRINGTARGET        EQU             .SC
  014F         4229: .SC                SET     .SC+1
268F 014E      4230:                    OBVIOUSSTRINGTARGET
2691 800A      4231:                    ((:1149-*)&$3FFF)+$8000
2693 21        4232:                    $21
               4233:                    FCC     ''
2694 BD        4234:                    '=+$80
2695 2C        4235:                    $2C
2696 DC        4236:                    STREXP
2697 2C        4237:                    $2C
  014F         4238: OPSTS              EQU     .SC
  0150         4239: .SC                SET     .SC+1
2698 014F      4240:                    OPSTS
269A 2F        4241:                    $2F




ASM/6800 1.3H4: 269A                    
08/16/82 00:00:00; Page 107; Form 1     
B2.ASM
  269B         4242: :1149              EQU     *
269B 2A        4243:                    $2A
269C 07        4244:                    +SID
269D 8065      4245:                    ((:114A-*)&$3FFF)+$8000
  0150         4246: STRVARREF          EQU     .SC
  0151         4247: .SC                SET     .SC+1
269F 0150      4248:                    STRVARREF
26A1 38        4249:                    $38
26A2 01        4250:                    +:114B-*-1
26A3 01        4251:                    +1
  26A4         4252: :114B              EQU     *
26A4 8035      4253:                    ((:114C-*)&$3FFF)+$8000
26A6 C1        4254:                    LB
26A7 8026      4255:                    ((:114D-*)&$3FFF)+$8000
26A9 DA        4256:                    NUMEXP
26AA 2C        4257:                    $2C
26AB 21        4258:                    $21
               4259:                    FCC     ''
26AC AC        4260:                    ',+$80
26AD 8011      4261:                    ((:114E-*)&$3FFF)+$8000
26AF DA        4262:                    NUMEXP
26B0 2C        4263:                    $2C
26B1 C2        4264:                    RB
26B2 2C        4265:                    $2C
  0151         4266: OPSS2              EQU     .SC
  0152         4267: .SC                SET     .SC+1
26B3 0151      4268:                    OPSS2
26B5 2F        4269:                    $2F
26B6 21        4270:                    $21
               4271:                    FCC     ''
26B7 BD        4272:                    '=+$80
26B8 2C        4273:                    $2C
26B9 DC        4274:                    STREXP
26BA 2C        4275:                    $2C
26BB 014F      4276:                    OPSTS
26BD 2F        4277:                    $2F
  26BE         4278: :114E              EQU     *
26BE 400E      4279:                    ((:114F-*)&$3FFF)+$4000
26C0 C2        4280:                    RB
26C1 800B      4281:                    ((:1150-*)&$3FFF)+$8000




ASM/6800 1.3H4: 26C1                    
08/16/82 00:00:00; Page 108; Form 1     
B2.ASM
  0152         4282: OPSS1              EQU     .SC
  0153         4283: .SC                SET     .SC+1
26C3 0152      4284:                    OPSS1
26C5 2F        4285:                    $2F
26C6 0141      4286:                    EQUALNUMEXP
26C8 2C        4287:                    $2C
  0153         4288: OPSTB              EQU     .SC
  0154         4289: .SC                SET     .SC+1
26C9 0153      4290:                    OPSTB
26CB 2F        4291:                    $2F
  26CC         4292: :1150              EQU     *
  26CC         4293: :114F              EQU     *
26CC 2C        4294:                    $2C
  26CD         4295: :114D              EQU     *
26CD 400B      4296:                    ((:1151-*)&$3FFF)+$4000
26CF 21        4297:                    $21
               4298:                    FCC     ''
26D0 BD        4299:                    '=+$80
26D1 8007      4300:                    ((:1152-*)&$3FFF)+$8000
26D3 DC        4301:                    STREXP
26D4 2C        4302:                    $2C
26D5 014F      4303:                    OPSTS
26D7 2F        4304:                    $2F
  26D8         4305: :1152              EQU     *
  26D8         4306: :1151              EQU     *
26D8 2C        4307:                    $2C
  26D9         4308: :114C              EQU     *
26D9 4028      4309:                    ((:1153-*)&$3FFF)+$4000
26DB 2704      4310:                    $27,STRINGFUNCTION
26DD 8020      4311:                    ((:1154-*)&$3FFF)+$8000
26DF 014B      4312:                    ARGUMENTLIST
26E1 38        4313:                    $38
26E2 80        4314:                    +:1155-*-1+$80
  26E3         4315: :1155              EQU     *
26E3 2C        4316:                    $2C
26E4 21        4317:                    $21
               4318:                    FCC     ''
26E5 BD        4319:                    '=+$80
26E6 2C        4320:                    $2C
  0154         4321: STRINGARGUMENT     EQU     .SC




ASM/6800 1.3H4: 26E6                    
08/16/82 00:00:00; Page 109; Form 1     
B2.ASM
  0155         4322: .SC                SET     .SC+1
26E7 0154      4323:                    STRINGARGUMENT
26E9 2C        4324:                    $2C
26EA 014D      4325:                    OPCALL
26EC 2F        4326:                    $2F
26ED D4        4327:                    ADDR
26EE 30        4328:                    $30
26EF 5345      4329:                    FCC     'SE'
26F1 D4        4330:                    'T+$80
26F2 3201      4331:                    $32,1
26F4 2F        4332:                    $2F
26F5 D3        4333:                    BYTE
26F6 F9        4334:                    GENLBL
26F7 3301      4335:                    $33,1
26F9 30        4336:                    $30
26FA 2B        4337:                    FCC     '+'
26FB B1        4338:                    '1+$80
26FC 2F        4339:                    $2F
  26FD         4340: :1154              EQU     *
26FD 4004      4341:                    ((:1153-*)&$3FFF)+$4000
26FF 010B      4342:                    UDFSID
  2701         4343: :1153              EQU     *
2701 2C        4344:                    $2C
  2702         4345: :114A              EQU     *
2702 2A        4346:                    $2A
2703 3E13E2    4347:                    $3E,#LEN
2706 8011      4348:                    ((:1156-*)&$3FFF)+$8000
2708 21        4349:                    $21
               4350:                    FCC     ''
2709 A8        4351:                    '(+$80
270A 2C        4352:                    $2C
  0155         4353: DEFSID             EQU     .SC
  0156         4354: .SC                SET     .SC+1
270B 0155      4355:                    DEFSID
270D 2C        4356:                    $2C
270E 21        4357:                    $21
               4358:                    FCC     ''
270F A9        4359:                    ')+$80
2710 2C        4360:                    $2C
2711 0141      4361:                    EQUALNUMEXP




ASM/6800 1.3H4: 2713                    
08/16/82 00:00:00; Page 110; Form 1     
B2.ASM
2713 2C        4362:                    $2C
  0156         4363: OPSSL              EQU     .SC
  0157         4364: .SC                SET     .SC+1
2714 0156      4365:                    OPSSL
2716 2F        4366:                    $2F
  2717         4367: :1156              EQU     *
2717 2A        4368:                    $2A
2718 3E14B4    4369:                    $3E,#RND
271B 8008      4370:                    ((:1157-*)&$3FFF)+$8000
271D 0141      4371:                    EQUALNUMEXP
271F 2C        4372:                    $2C
  0157         4373: OPSETSEED          EQU     .SC
  0158         4374: .SC                SET     .SC+1
2720 0157      4375:                    OPSETSEED
2722 2F        4376:                    $2F
  2723         4377: :1157              EQU     *
2723 29        4378:                    $29
  2724         4379: .                  SET     *
  0DCB         4380:                    ORG     EQUALNUMEXP*2+.SA
0DCB 2724      4381:                    #.
  2724         4382:                    ORG     .
2724 21        4383:                    $21
               4384:                    FCC     ''
2725 BD        4385:                    '=+$80
2726 8004      4386:                    ((:1158-*)&$3FFF)+$8000
2728 DA        4387:                    NUMEXP
2729 2C        4388:                    $2C
  272A         4389: :1158              EQU     *
272A 29        4390:                    $29
  272B         4391: .                  SET     *
  0DE5         4392:                    ORG     OBVIOUSSTRINGTARGET*2+.SA
0DE5 272B      4393:                    #.
  272B         4394:                    ORG     .
272B 3E13F7    4395:                    $3E,#LEFT$
272E 8016      4396:                    ((:1159-*)&$3FFF)+$8000
2730 21        4397:                    $21
               4398:                    FCC     ''
2731 A8        4399:                    '(+$80
2732 2C        4400:                    $2C
2733 0155      4401:                    DEFSID




ASM/6800 1.3H4: 2735                    
08/16/82 00:00:00; Page 111; Form 1     
B2.ASM
2735 2C        4402:                    $2C
2736 0138      4403:                    OPLSMI
2738 30        4404:                    $30
2739 2B        4405:                    FCC     '+'
273A B1        4406:                    '1+$80
273B 2F        4407:                    $2F
273C 21        4408:                    $21
               4409:                    FCC     ''
273D AC        4410:                    ',+$80
273E 2C        4411:                    $2C
273F DA        4412:                    NUMEXP
2740 2C        4413:                    $2C
2741 21        4414:                    $21
               4415:                    FCC     ''
2742 A9        4416:                    ')+$80
2743 2C        4417:                    $2C
  2744         4418: :1159              EQU     *
2744 401A      4419:                    ((:115A-*)&$3FFF)+$4000
2746 3E1402    4420:                    $3E,#MID$
2749 8015      4421:                    ((:115B-*)&$3FFF)+$8000
274B 21        4422:                    $21
               4423:                    FCC     ''
274C A8        4424:                    '(+$80
274D 2C        4425:                    $2C
274E 0155      4426:                    DEFSID
2750 2C        4427:                    $2C
2751 21        4428:                    $21
               4429:                    FCC     ''
2752 AC        4430:                    ',+$80
2753 2C        4431:                    $2C
2754 DA        4432:                    NUMEXP
2755 2C        4433:                    $2C
2756 21        4434:                    $21
               4435:                    FCC     ''
2757 AC        4436:                    ',+$80
2758 2C        4437:                    $2C
2759 DA        4438:                    NUMEXP
275A 2C        4439:                    $2C
275B 21        4440:                    $21
               4441:                    FCC     ''




ASM/6800 1.3H4: 275C                    
08/16/82 00:00:00; Page 112; Form 1     
B2.ASM
275C A9        4442:                    ')+$80
275D 2C        4443:                    $2C
  275E         4444: :115B              EQU     *
  275E         4445: :115A              EQU     *
275E 8005      4446:                    ((:115C-*)&$3FFF)+$8000
2760 0151      4447:                    OPSS2
2762 2F        4448:                    $2F
  2763         4449: :115C              EQU     *
2763 2A        4450:                    $2A
2764 3E140C    4451:                    $3E,#RIGHT$
2767 8013      4452:                    ((:115D-*)&$3FFF)+$8000
2769 21        4453:                    $21
               4454:                    FCC     ''
276A A8        4455:                    '(+$80
276B 2C        4456:                    $2C
276C 0155      4457:                    DEFSID
276E 2C        4458:                    $2C
276F 21        4459:                    $21
               4460:                    FCC     ''
2770 AC        4461:                    ',+$80
2771 2C        4462:                    $2C
2772 DA        4463:                    NUMEXP
2773 2C        4464:                    $2C
2774 21        4465:                    $21
               4466:                    FCC     ''
2775 A9        4467:                    ')+$80
2776 2C        4468:                    $2C
  0158         4469: OPRIGHT            EQU     .SC
  0159         4470: .SC                SET     .SC+1
2777 0158      4471:                    OPRIGHT
2779 2F        4472:                    $2F
  277A         4473: :115D              EQU     *
277A 29        4474:                    $29
  277B         4475: .                  SET     *
  0DE9         4476:                    ORG     STRVARREF*2+.SA
0DE9 277B      4477:                    #.
  277B         4478:                    ORG     .
277B 2700      4479:                    $27,STRVAR
277D 8018      4480:                    ((:115E-*)&$3FFF)+$8000
277F 270D      4481:                    $27,PARAMETER




ASM/6800 1.3H4: 2781                    
08/16/82 00:00:00; Page 113; Form 1     
B2.ASM
2781 8009      4482:                    ((:115F-*)&$3FFF)+$8000
2783 0143      4483:                    OPLOAD
2785 2F        4484:                    $2F
2786 D6        4485:                    DADDR
2787 3201      4486:                    $32,1
2789 2F        4487:                    $2F
  278A         4488: :115F              EQU     *
278A 400A      4489:                    ((:1160-*)&$3FFF)+$4000
278C 34        4490:                    $34
  0159         4491: OPLSD              EQU     .SC
  015A         4492: .SC                SET     .SC+1
278D 0159      4493:                    OPLSD
278F 2F        4494:                    $2F
2790 D6        4495:                    DADDR
2791 3201      4496:                    $32,1
2793 2F        4497:                    $2F
  2794         4498: :1160              EQU     *
2794 2C        4499:                    $2C
  2795         4500: :115E              EQU     *
2795 2A        4501:                    $2A
2796 270F      4502:                    $27,STRARRAY
2798 8046      4503:                    ((:1161-*)&$3FFF)+$8000
279A 270D      4504:                    $27,PARAMETER
279C 8005      4505:                    ((:1162-*)&$3FFF)+$8000
279E 0143      4506:                    OPLOAD
27A0 2F        4507:                    $2F
  27A1         4508: :1162              EQU     *
27A1 4006      4509:                    ((:1163-*)&$3FFF)+$4000
27A3 34        4510:                    $34
  015A         4511: OPLADDR            EQU     .SC
  015B         4512: .SC                SET     .SC+1
27A4 015A      4513:                    OPLADDR
27A6 2F        4514:                    $2F
  27A7         4515: :1163              EQU     *
27A7 2C        4516:                    $2C
27A8 D6        4517:                    DADDR
27A9 3201      4518:                    $32,1
27AB 2F        4519:                    $2F
27AC C1        4520:                    LB
27AD 8009      4521:                    ((:1164-*)&$3FFF)+$8000




ASM/6800 1.3H4: 27AF                    
08/16/82 00:00:00; Page 114; Form 1     
B2.ASM
27AF DA        4522:                    NUMEXP
27B0 2C        4523:                    $2C
27B1 C2        4524:                    RB
27B2 2C        4525:                    $2C
  015B         4526: OPSSA              EQU     .SC
  015C         4527: .SC                SET     .SC+1
27B3 015B      4528:                    OPSSA
27B5 2F        4529:                    $2F
  27B6         4530: :1164              EQU     *
27B6 4027      4531:                    ((:1165-*)&$3FFF)+$4000
27B8 2D        4532:                    $2D
27B9 53747269  4533:                    FCC     "String array requires subscript her"
27DC E5        4534:                    'e+$80
  27DD         4535: :1165              EQU     *
27DD 2C        4536:                    $2C
  27DE         4537: :1161              EQU     *
27DE 29        4538:                    $29
  27DF         4539: .                  SET     *
  0D6B         4540:                    ORG     GOTOSTMT*2+.SA
0D6B 27DF      4541:                    #.
  27DF         4542:                    ORG     .
27DF 3E11F6    4543:                    $3E,#ELN
27E2 8005      4544:                    ((:1166-*)&$3FFF)+$8000
  015C         4545: OPGOELN            EQU     .SC
  015D         4546: .SC                SET     .SC+1
27E4 015C      4547:                    OPGOELN
27E6 2F        4548:                    $2F
  27E7         4549: :1166              EQU     *
27E7 2A        4550:                    $2A
27E8 34        4551:                    $34
27E9 F8        4552:                    OPJMP
27EA 2F        4553:                    $2F
  015D         4554: TARGET             EQU     .SC
  015E         4555: .SC                SET     .SC+1
27EB 015D      4556:                    TARGET
27ED 2C        4557:                    $2C
27EE 29        4558:                    $29
  27EF         4559: .                  SET     *
  0E03         4560:                    ORG     TARGET*2+.SA
0E03 27EF      4561:                    #.




ASM/6800 1.3H4: 0E03                    
08/16/82 00:00:00; Page 115; Form 1     
B2.ASM
  27EF         4562:                    ORG     .
27EF F6        4563:                    LINENUM
27F0 8006      4564:                    ((:1167-*)&$3FFF)+$8000
27F2 D4        4565:                    ADDR
27F3 FA        4566:                    LABEL
27F4 31        4567:                    $31
27F5 2F        4568:                    $2F
  27F6         4569: :1167              EQU     *
27F6 2A        4570:                    $2A
27F7 06        4571:                    +NID
27F8 8005      4572:                    ((:1168-*)&$3FFF)+$8000
  015E         4573: TARGETSUB          EQU     .SC
  015F         4574: .SC                SET     .SC+1
27FA 015E      4575:                    TARGETSUB
27FC 2C        4576:                    $2C
  27FD         4577: :1168              EQU     *
27FD 29        4578:                    $29
  27FE         4579: .                  SET     *
  0E05         4580:                    ORG     TARGETSUB*2+.SA
0E05 27FE      4581:                    #.
  27FE         4582:                    ORG     .
27FE 2707      4583:                    $27,ISLABEL
2800 401B      4584:                    ((:1169-*)&$3FFF)+$4000
2802 2708      4585:                    $27,POTENTIALLABEL
2804 8005      4586:                    ((:116A-*)&$3FFF)+$8000
2806 2509      4587:                    $25,COMMONSCALAR
2808 2C        4588:                    $2C
  2809         4589: :116A              EQU     *
2809 4012      4590:                    ((:1169-*)&$3FFF)+$4000
280B 2706      4591:                    $27,FREFLABEL
280D 400E      4592:                    ((:1169-*)&$3FFF)+$4000
280F 0101      4593:                    DEFINED
2811 8005      4594:                    ((:116B-*)&$3FFF)+$8000
2813 010D      4595:                    VARUSEDASLABEL
2815 2C        4596:                    $2C
  2816         4597: :116B              EQU     *
2816 4005      4598:                    ((:1169-*)&$3FFF)+$4000
2818 34        4599:                    $34
2819 2306      4600:                    $23,FREFLABEL
  281B         4601: :1169              EQU     *




ASM/6800 1.3H4: 281B                    
08/16/82 00:00:00; Page 116; Form 1     
B2.ASM
281B 8006      4602:                    ((:116C-*)&$3FFF)+$8000
281D D4        4603:                    ADDR
281E FA        4604:                    LABEL
281F 31        4605:                    $31
2820 2F        4606:                    $2F
  2821         4607: :116C              EQU     *
2821 29        4608:                    $29
  2822         4609: .                  SET     *
  0D29         4610:                    ORG     FORSTMT*2+.SA
0D29 2822      4611:                    #.
  2822         4612:                    ORG     .
  015F         4613: DEFSCALAR          EQU     .SC
  0160         4614: .SC                SET     .SC+1
2822 015F      4615:                    DEFSCALAR
2824 811C      4616:                    ((:116D-*)&$3FFF)+$8000
2826 270A      4617:                    $27,INFORLOOP
2828 802D      4618:                    ((:116E-*)&$3FFF)+$8000
282A 250A      4619:                    $25,INFORLOOP
282C 2C        4620:                    $2C
282D 2D        4621:                    $2D
282E 4C6F6F70  4622:                    FCC     "Loop variable controls an enclosing FO"
2854 D2        4623:                    'R+$80
  2855         4624: :116E              EQU     *
2855 4033      4625:                    ((:116F-*)&$3FFF)+$4000
2857 270D      4626:                    $27,PARAMETER
2859 802A      4627:                    ((:1170-*)&$3FFF)+$8000
285B 2D        4628:                    $2D
285C 43616E27  4629:                    FCC     "Can't use a parameter as FOR loop inde"
2882 F8        4630:                    'x+$80
  2883         4631: :1170              EQU     *
2883 4005      4632:                    ((:116F-*)&$3FFF)+$4000
2885 34        4633:                    $34
2886 230A      4634:                    $23,INFORLOOP
  2888         4635: :116F              EQU     *
2888 2C        4636:                    $2C
2889 270B      4637:                    $27,STEPLIMALLOCATED
288B 4011      4638:                    ((:1171-*)&$3FFF)+$4000
288D 34        4639:                    $34
288E 230B      4640:                    $23,STEPLIMALLOCATED
2890 30        4641:                    $30




ASM/6800 1.3H4: 2891                    
08/16/82 00:00:00; Page 117; Form 1     
B2.ASM
2891 53        4642:                    FCC     'S'
2892 BA        4643:                    ':+$80
2893 3201      4644:                    $32,1
2895 FD        4645:                    EQUDATA
2896 2F        4646:                    $2F
2897 FE        4647:                    RESDATA
2898 30        4648:                    $30
2899 31        4649:                    FCC     '1'
289A B2        4650:                    '2+$80
289B 2F        4651:                    $2F
  289C         4652: :1171              EQU     *
289C 2C        4653:                    $2C
289D 0141      4654:                    EQUALNUMEXP
289F 2C        4655:                    $2C
28A0 3E1228    4656:                    $3E,#TO
28A3 2C        4657:                    $2C
28A4 DA        4658:                    NUMEXP
28A5 2C        4659:                    $2C
28A6 3E1230    4660:                    $3E,#STEP
28A9 8004      4661:                    ((:1172-*)&$3FFF)+$8000
28AB DA        4662:                    NUMEXP
28AC 2C        4663:                    $2C
  28AD         4664: :1172              EQU     *
28AD 4008      4665:                    ((:1173-*)&$3FFF)+$4000
28AF 34        4666:                    $34
28B0 0138      4667:                    OPLSMI
28B2 30        4668:                    $30
               4669:                    FCC     ''
28B3 B1        4670:                    '1+$80
28B4 2F        4671:                    $2F
  28B5         4672: :1173              EQU     *
28B5 2C        4673:                    $2C
28B6 30        4674:                    $30
28B7 46        4675:                    FCC     'F'
28B8 BA        4676:                    ':+$80
28B9 3201      4677:                    $32,1
  0160         4678: SETHERE            EQU     .SC
  0161         4679: .SC                SET     .SC+1
28BB 0160      4680:                    SETHERE
28BD 2F        4681:                    $2F




ASM/6800 1.3H4: 28BD                    
08/16/82 00:00:00; Page 118; Form 1     
B2.ASM
  0161         4682: OPFOR              EQU     .SC
  0162         4683: .SC                SET     .SC+1
28BE 0161      4684:                    OPFOR
28C0 2F        4685:                    $2F
28C1 D4        4686:                    ADDR
28C2 F9        4687:                    GENLBL
28C3 3301      4688:                    $33,1
28C5 2F        4689:                    $2F
28C6 280105    4690:                    $28,1,SCALAR
28C9 8007      4691:                    ((:1174-*)&$3FFF)+$8000
  0162         4692: SADDR              EQU     .SC
  0163         4693: .SC                SET     .SC+1
28CB 0162      4694:                    SADDR
28CD 3201      4695:                    $32,1
28CF 2F        4696:                    $2F
  28D0         4697: :1174              EQU     *
28D0 400B      4698:                    ((:1175-*)&$3FFF)+$4000
28D2 280109    4699:                    $28,1,COMMONSCALAR
28D5 8006      4700:                    ((:1176-*)&$3FFF)+$8000
28D7 D6        4701:                    DADDR
28D8 3201      4702:                    $32,1
28DA 2F        4703:                    $2F
  28DB         4704: :1176              EQU     *
  28DB         4705: :1175              EQU     *
28DB 2C        4706:                    $2C
28DC D6        4707:                    DADDR
28DD 30        4708:                    $30
28DE 53        4709:                    FCC     'S'
28DF BA        4710:                    ':+$80
28E0 3201      4711:                    $32,1
28E2 2F        4712:                    $2F
28E3 3E12C2    4713:                    $3E,#UNTIL
28E6 8008      4714:                    ((:1177-*)&$3FFF)+$8000
  0163         4715: CONDITION          EQU     .SC
  0164         4716: .SC                SET     .SC+1
28E8 0163      4717:                    CONDITION
28EA 2C        4718:                    $2C
  0164         4719: OPBF               EQU     .SC
  0165         4720: .SC                SET     .SC+1
28EB 0164      4721:                    OPBF




ASM/6800 1.3H4: 28ED                    
08/16/82 00:00:00; Page 119; Form 1     
B2.ASM
28ED 2F        4722:                    $2F
  28EE         4723: :1177              EQU     *
28EE 400D      4724:                    ((:1178-*)&$3FFF)+$4000
28F0 3E12B7    4725:                    $3E,#WHILE
28F3 8008      4726:                    ((:1179-*)&$3FFF)+$8000
28F5 0163      4727:                    CONDITION
28F7 2C        4728:                    $2C
  0165         4729: OPBT               EQU     .SC
  0166         4730: .SC                SET     .SC+1
28F8 0165      4731:                    OPBT
28FA 2F        4732:                    $2F
  28FB         4733: :1179              EQU     *
  28FB         4734: :1178              EQU     *
28FB 8012      4735:                    ((:117A-*)&$3FFF)+$8000
28FD D4        4736:                    ADDR
28FE 30        4737:                    $30
28FF 2A2B      4738:                    FCC     "*+"
2901 B5        4739:                    '5+$80
2902 2F        4740:                    $2F
  0166         4741: OPEXITLOOP         EQU     .SC
  0167         4742: .SC                SET     .SC+1
2903 0166      4743:                    OPEXITLOOP
2905 2F        4744:                    $2F
2906 D4        4745:                    ADDR
2907 30        4746:                    $30
2908 46        4747:                    FCC     'F'
2909 BA        4748:                    ':+$80
290A 3201      4749:                    $32,1
290C 2F        4750:                    $2F
  290D         4751: :117A              EQU     *
290D 4003      4752:                    ((:117B-*)&$3FFF)+$4000
290F 34        4753:                    $34
  2910         4754: :117B              EQU     *
2910 2C        4755:                    $2C
  0167         4756: FORCLAUSE          EQU     .SC
  0168         4757: .SC                SET     .SC+1
2911 0167      4758:                    FORCLAUSE
2913 401A      4759:                    ((:117C-*)&$3FFF)+$4000
2915 3E12CD    4760:                    $3E,#DO
2918 8015      4761:                    ((:117D-*)&$3FFF)+$8000




ASM/6800 1.3H4: 291A                    
08/16/82 00:00:00; Page 120; Form 1     
B2.ASM
291A E0        4762:                    ENDOFLINE
291B 8005      4763:                    ((:117E-*)&$3FFF)+$8000
  0168         4764: FORBLOCK           EQU     .SC
  0169         4765: .SC                SET     .SC+1
291D 0168      4766:                    FORBLOCK
291F 2C        4767:                    $2C
  2920         4768: :117E              EQU     *
2920 400C      4769:                    ((:117F-*)&$3FFF)+$4000
2922 EA        4770:                    CLAUSE
2923 8009      4771:                    ((:1180-*)&$3FFF)+$8000
2925 3E12D5    4772:                    $3E,#END
2928 4003      4773:                    ((:1181-*)&$3FFF)+$4000
292A 34        4774:                    $34
  292B         4775: :1181              EQU     *
292B 2C        4776:                    $2C
  292C         4777: :1180              EQU     *
  292C         4778: :117F              EQU     *
292C 2C        4779:                    $2C
  292D         4780: :117D              EQU     *
  292D         4781: :117C              EQU     *
292D 2C        4782:                    $2C
292E 26010A    4783:                    $26,1,INFORLOOP
  0169         4784: OPNEXT             EQU     .SC
  016A         4785: .SC                SET     .SC+1
2931 0169      4786:                    OPNEXT
2933 2F        4787:                    $2F
2934 D4        4788:                    ADDR
2935 30        4789:                    $30
2936 46        4790:                    FCC     'F'
2937 BA        4791:                    ':+$80
2938 3201      4792:                    $32,1
293A 2F        4793:                    $2F
293B F9        4794:                    GENLBL
293C 3301      4795:                    $33,1
293E D2        4796:                    EQUHERE
293F 2F        4797:                    $2F
  2940         4798: :116D              EQU     *
2940 29        4799:                    $29
  2941         4800: .                  SET     *
  0E19         4801:                    ORG     FORBLOCK*2+.SA




ASM/6800 1.3H4: 0E19                    
08/16/82 00:00:00; Page 121; Form 1     
B2.ASM
0E19 2941      4802:                    #.
  2941         4803:                    ORG     .
2941 E3        4804:                    LINELABEL
2942 8028      4805:                    ((:1182-*)&$3FFF)+$8000
2944 E4        4806:                    LABELLEDBLOCK
2945 38        4807:                    $38
2946 01        4808:                    +:1183-*-1
2947 01        4809:                    +1
  2948         4810: :1183              EQU     *
2948 8005      4811:                    ((:1184-*)&$3FFF)+$8000
294A 0167      4812:                    FORCLAUSE
294C 2C        4813:                    $2C
  294D         4814: :1184              EQU     *
294D 401C      4815:                    ((:1185-*)&$3FFF)+$4000
294F F5        4816:                    EXECUTABLESTMT
2950 8005      4817:                    ((:1186-*)&$3FFF)+$8000
2952 0167      4818:                    FORCLAUSE
2954 2C        4819:                    $2C
  2955         4820: :1186              EQU     *
2955 4014      4821:                    ((:1185-*)&$3FFF)+$4000
2957 E7        4822:                    FORMATLINE
2958 8005      4823:                    ((:1187-*)&$3FFF)+$8000
295A 0168      4824:                    FORBLOCK
295C 2C        4825:                    $2C
  295D         4826: :1187              EQU     *
295D 400C      4827:                    ((:1185-*)&$3FFF)+$4000
295F E0        4828:                    ENDOFLINE
2960 8005      4829:                    ((:1188-*)&$3FFF)+$8000
2962 0168      4830:                    FORBLOCK
2964 2C        4831:                    $2C
  2965         4832: :1188              EQU     *
2965 4004      4833:                    ((:1185-*)&$3FFF)+$4000
  016A         4834: MUSTBENEXT         EQU     .SC
  016B         4835: .SC                SET     .SC+1
2967 016A      4836:                    MUSTBENEXT
  2969         4837: :1185              EQU     *
2969 2C        4838:                    $2C
  296A         4839: :1182              EQU     *
296A 2A        4840:                    $2A
296B F5        4841:                    EXECUTABLESTMT




ASM/6800 1.3H4: 296C                    
08/16/82 00:00:00; Page 122; Form 1     
B2.ASM
296C 8005      4842:                    ((:1189-*)&$3FFF)+$8000
296E 0167      4843:                    FORCLAUSE
2970 2C        4844:                    $2C
  2971         4845: :1189              EQU     *
2971 2A        4846:                    $2A
2972 C6        4847:                    INCLUDESTMT
2973 8005      4848:                    ((:118A-*)&$3FFF)+$8000
2975 0168      4849:                    FORBLOCK
2977 2C        4850:                    $2C
  2978         4851: :118A              EQU     *
2978 2A        4852:                    $2A
2979 016A      4853:                    MUSTBENEXT
297B 29        4854:                    $29
  297C         4855: .                  SET     *
  0E17         4856:                    ORG     FORCLAUSE*2+.SA
0E17 297C      4857:                    #.
  297C         4858:                    ORG     .
297C 21        4859:                    $21
               4860:                    FCC     ''
297D DC        4861:                    '\+$80
297E 800F      4862:                    ((:118B-*)&$3FFF)+$8000
2980 C3        4863:                    OPTENDOFLINE
2981 2C        4864:                    $2C
2982 F5        4865:                    EXECUTABLESTMT
2983 8005      4866:                    ((:118C-*)&$3FFF)+$8000
2985 0167      4867:                    FORCLAUSE
2987 2C        4868:                    $2C
  2988         4869: :118C              EQU     *
2988 4004      4870:                    ((:118D-*)&$3FFF)+$4000
298A 016A      4871:                    MUSTBENEXT
  298C         4872: :118D              EQU     *
298C 2C        4873:                    $2C
  298D         4874: :118B              EQU     *
298D 2A        4875:                    $2A
298E E0        4876:                    ENDOFLINE
298F 8005      4877:                    ((:118E-*)&$3FFF)+$8000
2991 0168      4878:                    FORBLOCK
2993 2C        4879:                    $2C
  2994         4880: :118E              EQU     *
2994 29        4881:                    $29




ASM/6800 1.3H4: 2994                    
08/16/82 00:00:00; Page 123; Form 1     
B2.ASM
  2995         4882: .                  SET     *
  0E1D         4883:                    ORG     MUSTBENEXT*2+.SA
0E1D 2995      4884:                    #.
  2995         4885:                    ORG     .
2995 3E1245    4886:                    $3E,#NEXT
2998 800B      4887:                    ((:118F-*)&$3FFF)+$8000
299A 06        4888:                    +NID
299B 2C        4889:                    $2C
299C 270A      4890:                    $27,INFORLOOP
299E 4004      4891:                    ((:1190-*)&$3FFF)+$4000
29A0 010C      4892:                    NOMATCHINGFOR
  29A2         4893: :1190              EQU     *
29A2 2C        4894:                    $2C
  29A3         4895: :118F              EQU     *
29A3 2A        4896:                    $2A
29A4 3E12D5    4897:                    $3E,#END
29A7 2A        4898:                    $2A
29A8 2D        4899:                    $2D
29A9 4D697373  4900:                    FCC     'Missing NEX'
29B4 D4        4901:                    'T+$80
29B5 29        4902:                    $29
  29B6         4903: .                  SET     *
  0D6F         4904:                    ORG     CYCLESTMT*2+.SA
0D6F 29B6      4905:                    #.
  29B6         4906:                    ORG     .
29B6 06        4907:                    +NID
29B7 8013      4908:                    ((:1191-*)&$3FFF)+$8000
29B9 270A      4909:                    $27,INFORLOOP
29BB 4004      4910:                    ((:1192-*)&$3FFF)+$4000
29BD 010C      4911:                    NOMATCHINGFOR
  29BF         4912: :1192              EQU     *
29BF 2C        4913:                    $2C
29C0 0169      4914:                    OPNEXT
29C2 2F        4915:                    $2F
29C3 D4        4916:                    ADDR
29C4 30        4917:                    $30
29C5 46        4918:                    FCC     'F'
29C6 BA        4919:                    ':+$80
29C7 3201      4920:                    $32,1
29C9 2F        4921:                    $2F




ASM/6800 1.3H4: 29C9                    
08/16/82 00:00:00; Page 124; Form 1     
B2.ASM
  29CA         4922: :1191              EQU     *
29CA 29        4923:                    $29
  29CB         4924: .                  SET     *
  0D71         4925:                    ORG     GOSUBSTMT*2+.SA
0D71 29CB      4926:                    #.
  29CB         4927:                    ORG     .
29CB 3E120A    4928:                    $3E,#POP
29CE 8007      4929:                    ((:1193-*)&$3FFF)+$8000
29D0 DA        4930:                    NUMEXP
29D1 2C        4931:                    $2C
  016B         4932: OPGPOP             EQU     .SC
  016C         4933: .SC                SET     .SC+1
29D2 016B      4934:                    OPGPOP
29D4 2F        4935:                    $2F
  29D5         4936: :1193              EQU     *
29D5 2A        4937:                    $2A
29D6 34        4938:                    $34
  016C         4939: OPGSB              EQU     .SC
  016D         4940: .SC                SET     .SC+1
29D7 016C      4941:                    OPGSB
29D9 2F        4942:                    $2F
29DA 015D      4943:                    TARGET
29DC 2C        4944:                    $2C
29DD 29        4945:                    $29
  29DE         4946: .                  SET     *
  0D73         4947:                    ORG     RETURNSTMT*2+.SA
0D73 29DE      4948:                    #.
  29DE         4949:                    ORG     .
29DE 3E13BB    4950:                    $3E,#SUBROUTINE
29E1 8005      4951:                    ((:1194-*)&$3FFF)+$8000
  016D         4952: OPSUBRET           EQU     .SC
  016E         4953: .SC                SET     .SC+1
29E3 016D      4954:                    OPSUBRET
29E5 2F        4955:                    $2F
  29E6         4956: :1194              EQU     *
29E6 2A        4957:                    $2A
  016E         4958: NUMORSTREXP        EQU     .SC
  016F         4959: .SC                SET     .SC+1
29E7 016E      4960:                    NUMORSTREXP
29E9 8004      4961:                    ((:1195-*)&$3FFF)+$8000




ASM/6800 1.3H4: 29EB                    
08/16/82 00:00:00; Page 125; Form 1     
B2.ASM
29EB DB        4962:                    OPFUNRET
29EC 2F        4963:                    $2F
  29ED         4964: :1195              EQU     *
29ED 2A        4965:                    $2A
29EE 34        4966:                    $34
  016F         4967: OPRET              EQU     .SC
  0170         4968: .SC                SET     .SC+1
29EF 016F      4969:                    OPRET
29F1 2F        4970:                    $2F
29F2 29        4971:                    $29
  29F3         4972: .                  SET     *
  0D75         4973:                    ORG     STOPSTMT*2+.SA
0D75 29F3      4974:                    #.
  29F3         4975:                    ORG     .
  0170         4976: OPSTP              EQU     .SC
  0171         4977: .SC                SET     .SC+1
29F3 0170      4978:                    OPSTP
29F5 2F        4979:                    $2F
29F6 29        4980:                    $29
  29F7         4981: .                  SET     *
  0D97         4982:                    ORG     EXITSTMT*2+.SA
0D97 29F7      4983:                    #.
  29F7         4984:                    ORG     .
29F7 06        4985:                    +NID
29F8 8023      4986:                    ((:1196-*)&$3FFF)+$8000
29FA 270A      4987:                    $27,INFORLOOP
29FC 800C      4988:                    ((:1197-*)&$3FFF)+$8000
29FE 0166      4989:                    OPEXITLOOP
2A00 2F        4990:                    $2F
2A01 D4        4991:                    ADDR
2A02 30        4992:                    $30
2A03 46        4993:                    FCC     'F'
2A04 BA        4994:                    ':+$80
2A05 3201      4995:                    $32,1
2A07 2F        4996:                    $2F
  2A08         4997: :1197              EQU     *
2A08 4012      4998:                    ((:1198-*)&$3FFF)+$4000
2A0A 2707      4999:                    $27,ISLABEL
2A0C 800A      5000:                    ((:1199-*)&$3FFF)+$8000
2A0E F8        5001:                    OPJMP




ASM/6800 1.3H4: 2A0F                    
08/16/82 00:00:00; Page 126; Form 1     
B2.ASM
2A0F 2F        5002:                    $2F
2A10 D4        5003:                    ADDR
2A11 30        5004:                    $30
2A12 45        5005:                    FCC     'E'
2A13 BA        5006:                    ':+$80
2A14 31        5007:                    $31
2A15 2F        5008:                    $2F
  2A16         5009: :1199              EQU     *
2A16 4004      5010:                    ((:1198-*)&$3FFF)+$4000
2A18 010C      5011:                    NOMATCHINGFOR
  2A1A         5012: :1198              EQU     *
2A1A 2C        5013:                    $2C
  2A1B         5014: :1196              EQU     *
2A1B 2A        5015:                    $2A
2A1C 3E13BB    5016:                    $3E,#SUBROUTINE
2A1F 8005      5017:                    ((:119A-*)&$3FFF)+$8000
2A21 016D      5018:                    OPSUBRET
2A23 2F        5019:                    $2F
  2A24         5020: :119A              EQU     *
2A24 2A        5021:                    $2A
2A25 0A        5022:                    +NUM
2A26 8020      5023:                    ((:119B-*)&$3FFF)+$8000
2A28 2707      5024:                    $27,ISLABEL
2A2A 4015      5025:                    ((:119C-*)&$3FFF)+$4000
2A2C 2D        5026:                    $2D
2A2D 4D757374  5027:                    FCC     "Must be loop labe"
2A3E EC        5028:                    'l+$80
  2A3F         5029: :119C              EQU     *
2A3F 2C        5030:                    $2C
2A40 D4        5031:                    ADDR
2A41 30        5032:                    $30
2A42 45        5033:                    FCC     'E'
2A43 BA        5034:                    ':+$80
2A44 31        5035:                    $31
2A45 2F        5036:                    $2F
  2A46         5037: :119B              EQU     *
2A46 2A        5038:                    $2A
2A47 34        5039:                    $34
2A48 D0        5040:                    OPEXIT
2A49 2F        5041:                    $2F




ASM/6800 1.3H4: 2A4A                    
08/16/82 00:00:00; Page 127; Form 1     
B2.ASM
2A4A 29        5042:                    $29
  2A4B         5043: .                  SET     *
  0D89         5044:                    ORG     ONSTMT*2+.SA
0D89 2A4B      5045:                    #.
  2A4B         5046:                    ORG     .
2A4B 3E11E1    5047:                    $3E,#ERROR
2A4E 8039      5048:                    ((:119D-*)&$3FFF)+$8000
2A50 3E11EC    5049:                    $3E,#GOTO
2A53 8012      5050:                    ((:119E-*)&$3FFF)+$8000
  0171         5051: OPTRP              EQU     .SC
  0172         5052: .SC                SET     .SC+1
2A55 0171      5053:                    OPTRP
2A57 2F        5054:                    $2F
2A58 21        5055:                    $21
               5056:                    FCC     ''
2A59 B0        5057:                    '0+$80
2A5A 8006      5058:                    ((:119F-*)&$3FFF)+$8000
2A5C D4        5059:                    ADDR
2A5D 30        5060:                    $30
               5061:                    FCC     ''
2A5E B0        5062:                    '0+$80
2A5F 2F        5063:                    $2F
  2A60         5064: :119F              EQU     *
2A60 4004      5065:                    ((:11A0-*)&$3FFF)+$4000
2A62 015D      5066:                    TARGET
  2A64         5067: :11A0              EQU     *
2A64 2C        5068:                    $2C
  2A65         5069: :119E              EQU     *
2A65 4021      5070:                    ((:11A1-*)&$3FFF)+$4000
2A67 3E12CD    5071:                    $3E,#DO
2A6A 801C      5072:                    ((:11A2-*)&$3FFF)+$8000
2A6C 0171      5073:                    OPTRP
2A6E 2F        5074:                    $2F
2A6F D4        5075:                    ADDR
2A70 30        5076:                    $30
2A71 2A2B      5077:                    FCC     '*+'
2A73 B5        5078:                    '5+$80
2A74 2F        5079:                    $2F
2A75 F8        5080:                    OPJMP
2A76 2F        5081:                    $2F




ASM/6800 1.3H4: 2A77                    
08/16/82 00:00:00; Page 128; Form 1     
B2.ASM
2A77 D4        5082:                    ADDR
2A78 F9        5083:                    GENLBL
2A79 3301      5084:                    $33,1
2A7B 2F        5085:                    $2F
2A7C F4        5086:                    DOSTMT
2A7D 2C        5087:                    $2C
  0172         5088: OPERRST            EQU     .SC
  0173         5089: .SC                SET     .SC+1
2A7E 0172      5090:                    OPERRST
2A80 2F        5091:                    $2F
2A81 F9        5092:                    GENLBL
2A82 3301      5093:                    $33,1
2A84 D2        5094:                    EQUHERE
2A85 2F        5095:                    $2F
  2A86         5096: :11A2              EQU     *
  2A86         5097: :11A1              EQU     *
2A86 2C        5098:                    $2C
  2A87         5099: :119D              EQU     *
2A87 2A        5100:                    $2A
2A88 DA        5101:                    NUMEXP
2A89 802C      5102:                    ((:11A3-*)&$3FFF)+$8000
2A8B 3E11EC    5103:                    $3E,#GOTO
2A8E 8005      5104:                    ((:11A4-*)&$3FFF)+$8000
  0173         5105: OPON               EQU     .SC
  0174         5106: .SC                SET     .SC+1
2A90 0173      5107:                    OPON
2A92 2F        5108:                    $2F
  2A93         5109: :11A4              EQU     *
2A93 400A      5110:                    ((:11A5-*)&$3FFF)+$4000
2A95 3E11FF    5111:                    $3E,#GOSUB
2A98 8005      5112:                    ((:11A6-*)&$3FFF)+$8000
  0174         5113: OPONG              EQU     .SC
  0175         5114: .SC                SET     .SC+1
2A9A 0174      5115:                    OPONG
2A9C 2F        5116:                    $2F
  2A9D         5117: :11A6              EQU     *
  2A9D         5118: :11A5              EQU     *
2A9D 2C        5119:                    $2C
2A9E D4        5120:                    ADDR
2A9F F9        5121:                    GENLBL




ASM/6800 1.3H4: 2AA0                    
08/16/82 00:00:00; Page 129; Form 1     
B2.ASM
2AA0 3301      5122:                    $33,1
2AA2 2F        5123:                    $2F
2AA3 015D      5124:                    TARGET
2AA5 2C        5125:                    $2C
  2AA6         5126: :11A7              EQU     *
2AA6 21        5127:                    $21
               5128:                    FCC     ''
2AA7 AC        5129:                    ',+$80
2AA8 8005      5130:                    ((:11A8-*)&$3FFF)+$8000
2AAA 015D      5131:                    TARGET
2AAC 2C        5132:                    $2C
  2AAD         5133: :11A8              EQU     *
2AAD 7FF9      5134:                    ((:11A7-*)&$3FFF)+$4000
2AAF 34        5135:                    $34
2AB0 F9        5136:                    GENLBL
2AB1 3301      5137:                    $33,1
2AB3 D2        5138:                    EQUHERE
2AB4 2F        5139:                    $2F
  2AB5         5140: :11A3              EQU     *
2AB5 29        5141:                    $29
  2AB6         5142: .                  SET     *
  0D1B         5143:                    ORG     REMARK*2+.SA
0D1B 2AB6      5144:                    #.
  2AB6         5145:                    ORG     .
  2AB6         5146: :11A9              EQU     *
  0175         5147: REMARKCHAR         EQU     .SC
  0176         5148: .SC                SET     .SC+1
2AB6 0175      5149:                    REMARKCHAR
2AB8 7FFE      5150:                    ((:11A9-*)&$3FFF)+$4000
2ABA 34        5151:                    $34
2ABB 29        5152:                    $29
  2ABC         5153: .                  SET     *
  0E33         5154:                    ORG     REMARKCHAR*2+.SA
0E33 2ABC      5155:                    #.
  2ABC         5156:                    ORG     .
2ABC 0F        5157:                    +ANYCHAR
2ABD 29        5158:                    $29
  2ABE         5159: .                  SET     *
  0D8B         5160:                    ORG     CHAINSTMT*2+.SA
0D8B 2ABE      5161:                    #.




ASM/6800 1.3H4: 0D8B                    
08/16/82 00:00:00; Page 130; Form 1     
B2.ASM
  2ABE         5162:                    ORG     .
2ABE DC        5163:                    STREXP
2ABF 8005      5164:                    ((:11AA-*)&$3FFF)+$8000
  0176         5165: OPCHAIN            EQU     .SC
  0177         5166: .SC                SET     .SC+1
2AC1 0176      5167:                    OPCHAIN
2AC3 2F        5168:                    $2F
  2AC4         5169: :11AA              EQU     *
2AC4 29        5170:                    $29
  2AC5         5171: .                  SET     *
  0D8D         5172:                    ORG     CALLSTMT*2+.SA
0D8D 2AC5      5173:                    #.
  2AC5         5174:                    ORG     .
2AC5 3E13AE    5175:                    $3E,#SYSCALL
2AC8 8005      5176:                    ((:11AB-*)&$3FFF)+$8000
2ACA 0126      5177:                    SYSCALLSTMT
2ACC 2C        5178:                    $2C
  2ACD         5179: :11AB              EQU     *
2ACD 2A        5180:                    $2A
2ACE 06        5181:                    +NID
2ACF 4003      5182:                    ((:11AC-*)&$3FFF)+$4000
2AD1 07        5183:                    +SID
  2AD2         5184: :11AC              EQU     *
2AD2 802C      5185:                    ((:11AD-*)&$3FFF)+$8000
2AD4 270C      5186:                    $27,TYPESUBROUTINE
2AD6 4016      5187:                    ((:11AE-*)&$3FFF)+$4000
2AD8 270E      5188:                    $27,FREFSUBROUTINE
2ADA 4012      5189:                    ((:11AE-*)&$3FFF)+$4000
2ADC 0101      5190:                    DEFINED
2ADE 4004      5191:                    ((:11AF-*)&$3FFF)+$4000
2AE0 0103      5192:                    DEFINEDSTRINGQ
  2AE2         5193: :11AF              EQU     *
2AE2 8005      5194:                    ((:11B0-*)&$3FFF)+$8000
2AE4 0107      5195:                    DOUBLEDEFVAR
2AE6 2C        5196:                    $2C
  2AE7         5197: :11B0              EQU     *
2AE7 4005      5198:                    ((:11AE-*)&$3FFF)+$4000
2AE9 34        5199:                    $34
2AEA 230E      5200:                    $23,FREFSUBROUTINE
  2AEC         5201: :11AE              EQU     *




ASM/6800 1.3H4: 2AEC                    
08/16/82 00:00:00; Page 131; Form 1     
B2.ASM
2AEC 2C        5202:                    $2C
2AED 014B      5203:                    ARGUMENTLIST
2AEF 38        5204:                    $38
2AF0 80        5205:                    +:11B1-*-1+$80
  2AF1         5206: :11B1              EQU     *
2AF1 2C        5207:                    $2C
2AF2 014D      5208:                    OPCALL
2AF4 2F        5209:                    $2F
2AF5 D4        5210:                    ADDR
2AF6 3201      5211:                    $32,1
2AF8 2F        5212:                    $2F
2AF9 D3        5213:                    BYTE
2AFA F9        5214:                    GENLBL
2AFB 3301      5215:                    $33,1
2AFD 2F        5216:                    $2F
  2AFE         5217: :11AD              EQU     *
2AFE 29        5218:                    $29
  2AFF         5219: .                  SET     *
  0DDF         5220:                    ORG     ARGUMENTLIST*2+.SA
0DDF 2AFF      5221:                    #.
  2AFF         5222:                    ORG     .
2AFF F9        5223:                    GENLBL
2B00 3301      5224:                    $33,1
2B02 30        5225:                    $30
2B03 09534554  5226:                    FCC     '  SET            '
2B08 B0        5227:                    '0+$80
2B09 2F        5228:                    $2F
2B0A 21        5229:                    $21
               5230:                    FCC     ''
2B0B A8        5231:                    '(+$80
2B0C 8030      5232:                    ((:11B2-*)&$3FFF)+$8000
  0177         5233: ARGUMENT           EQU     .SC
  0178         5234: .SC                SET     .SC+1
2B0E 0177      5235:                    ARGUMENT
2B10 2C        5236:                    $2C
2B11 F9        5237:                    GENLBL
2B12 3301      5238:                    $33,1
2B14 30        5239:                    $30
2B15 09534554  5240:                    FCC     '  SET            1'
2B1B AB        5241:                    '++$80




ASM/6800 1.3H4: 2B1C                    
08/16/82 00:00:00; Page 132; Form 1     
B2.ASM
2B1C F9        5242:                    GENLBL
2B1D 3301      5243:                    $33,1
2B1F 2F        5244:                    $2F
  2B20         5245: :11B3              EQU     *
2B20 21        5246:                    $21
               5247:                    FCC     ''
2B21 AC        5248:                    ',+$80
2B22 8014      5249:                    ((:11B4-*)&$3FFF)+$8000
2B24 0177      5250:                    ARGUMENT
2B26 2C        5251:                    $2C
2B27 F9        5252:                    GENLBL
2B28 3301      5253:                    $33,1
2B2A 30        5254:                    $30
2B2B 09534554  5255:                    FCC     '   SET            1'
2B31 AB        5256:                    '++$80
2B32 F9        5257:                    GENLBL
2B33 3301      5258:                    $33,1
2B35 2F        5259:                    $2F
  2B36         5260: :11B4              EQU     *
2B36 7FEA      5261:                    ((:11B3-*)&$3FFF)+$4000
2B38 34        5262:                    $34
2B39 21        5263:                    $21
               5264:                    FCC     ''
2B3A A9        5265:                    ')+$80
2B3B 2C        5266:                    $2C
  2B3C         5267: :11B2              EQU     *
2B3C 4003      5268:                    ((:11B5-*)&$3FFF)+$4000
2B3E 34        5269:                    $34
  2B3F         5270: :11B5              EQU     *
2B3F 2C        5271:                    $2C
2B40 29        5272:                    $29
  0178         5273: VARIABLEONLY       EQU     .SC
  0179         5274: .SC                SET     .SC+1
  2B41         5275: .                  SET     *
  0E39         5276:                    ORG     VARIABLEONLY*2+.SA
0E39 2B41      5277:                    #.
  2B41         5278:                    ORG     .
2B41 21        5279:                    $21
               5280:                    FCC     ''
2B42 AB        5281:                    '++$80




ASM/6800 1.3H4: 2B43                    
08/16/82 00:00:00; Page 133; Form 1     
B2.ASM
2B43 22        5282:                    $22
2B44 8054      5283:                    ((:11B6-*)&$3FFF)+$8000
2B46 21        5284:                    $21
               5285:                    FCC     ''
2B47 AD        5286:                    '-+$80
2B48 22        5287:                    $22
2B49 804F      5288:                    ((:11B6-*)&$3FFF)+$8000
2B4B 21        5289:                    $21
               5290:                    FCC     ''
2B4C A1        5291:                    '!+$80
2B4D 22        5292:                    $22
2B4E 804A      5293:                    ((:11B6-*)&$3FFF)+$8000
2B50 3E151D    5294:                    $3E,#XOR
2B53 22        5295:                    $22
2B54 8044      5296:                    ((:11B6-*)&$3FFF)+$8000
2B56 21        5297:                    $21
2B57 2A        5298:                    FCC     '*'
2B58 AA        5299:                    '*+$80
2B59 22        5300:                    $22
2B5A 803E      5301:                    ((:11B6-*)&$3FFF)+$8000
2B5C 21        5302:                    $21
               5303:                    FCC     ''
2B5D AA        5304:                    '*+$80
2B5E 22        5305:                    $22
2B5F 8039      5306:                    ((:11B6-*)&$3FFF)+$8000
2B61 21        5307:                    $21
               5308:                    FCC     ''
2B62 AF        5309:                    '/+$80
2B63 22        5310:                    $22
2B64 8034      5311:                    ((:11B6-*)&$3FFF)+$8000
2B66 21        5312:                    $21
               5313:                    FCC     ''
2B67 A6        5314:                    '&+$80
2B68 22        5315:                    $22
2B69 802F      5316:                    ((:11B6-*)&$3FFF)+$8000
2B6B 21        5317:                    $21
               5318:                    FCC     ''
2B6C DE        5319:                    '^+$80
2B6D 22        5320:                    $22
2B6E 802A      5321:                    ((:11B6-*)&$3FFF)+$8000




ASM/6800 1.3H4: 2B70                    
08/16/82 00:00:00; Page 134; Form 1     
B2.ASM
2B70 21        5322:                    $21
               5323:                    FCC     ''
2B71 BC        5324:                    '<+$80
2B72 22        5325:                    $22
2B73 8025      5326:                    ((:11B6-*)&$3FFF)+$8000
2B75 21        5327:                    $21
2B76 3C        5328:                    FCC     '<'
2B77 BD        5329:                    '=+$80
2B78 22        5330:                    $22
2B79 801F      5331:                    ((:11B6-*)&$3FFF)+$8000
2B7B 21        5332:                    $21
               5333:                    FCC     ''
2B7C BD        5334:                    '=+$80
2B7D 22        5335:                    $22
2B7E 801A      5336:                    ((:11B6-*)&$3FFF)+$8000
2B80 21        5337:                    $21
2B81 3E        5338:                    FCC     '>'
2B82 BD        5339:                    '=+$80
2B83 22        5340:                    $22
2B84 8014      5341:                    ((:11B6-*)&$3FFF)+$8000
2B86 21        5342:                    $21
               5343:                    FCC     ''
2B87 BE        5344:                    '>+$80
2B88 22        5345:                    $22
2B89 800F      5346:                    ((:11B6-*)&$3FFF)+$8000
2B8B 21        5347:                    $21
2B8C 3C        5348:                    FCC     '<'
2B8D BE        5349:                    '>+$80
2B8E 22        5350:                    $22
2B8F 8009      5351:                    ((:11B6-*)&$3FFF)+$8000
2B91 3E1526    5352:                    $3E,#CAT
2B94 22        5353:                    $22
2B95 8003      5354:                    ((:11B6-*)&$3FFF)+$8000
2B97 34        5355:                    $34
  2B98         5356: :11B6              EQU     *
2B98 29        5357:                    $29
  0179         5358: PUSHPARAMTEMPADDR  EQU     .SC
  017A         5359: .SC                SET     .SC+1
  2B99         5360: .                  SET     *
  0E3B         5361:                    ORG     PUSHPARAMTEMPADDR*2+.SA




ASM/6800 1.3H4: 0E3B                    
08/16/82 00:00:00; Page 135; Form 1     
B2.ASM
0E3B 2B99      5362:                    #.
  2B99         5363:                    ORG     .
2B99 F9        5364:                    GENLBL
2B9A 3301      5365:                    $33,1
2B9C FD        5366:                    EQUDATA
2B9D 2F        5367:                    $2F
2B9E FE        5368:                    RESDATA
2B9F 30        5369:                    $30
               5370:                    FCC     ''
2BA0 B6        5371:                    '6+$80
2BA1 2F        5372:                    $2F
2BA2 012F      5373:                    OPSTORE
2BA4 2F        5374:                    $2F
2BA5 D6        5375:                    DADDR
2BA6 F9        5376:                    GENLBL
2BA7 3301      5377:                    $33,1
2BA9 2F        5378:                    $2F
2BAA 015A      5379:                    OPLADDR
2BAC 2F        5380:                    $2F
2BAD D6        5381:                    DADDR
2BAE F9        5382:                    GENLBL
2BAF 3301      5383:                    $33,1
2BB1 29        5384:                    $29
  2BB2         5385: .                  SET     *
  0D8F         5386:                    ORG     POKESTMT*2+.SA
0D8F 2BB2      5387:                    #.
  2BB2         5388:                    ORG     .
2BB2 DA        5389:                    NUMEXP
2BB3 800A      5390:                    ((:11B7-*)&$3FFF)+$8000
2BB5 21        5391:                    $21
               5392:                    FCC     ''
2BB6 AC        5393:                    ',+$80
2BB7 2C        5394:                    $2C
2BB8 DA        5395:                    NUMEXP
2BB9 2C        5396:                    $2C
  017A         5397: OPOKE              EQU     .SC
  017B         5398: .SC                SET     .SC+1
2BBA 017A      5399:                    OPOKE
2BBC 2F        5400:                    $2F
  2BBD         5401: :11B7              EQU     *




ASM/6800 1.3H4: 2BBD                    
08/16/82 00:00:00; Page 136; Form 1     
B2.ASM
2BBD 29        5402:                    $29
  2BBE         5403: .                  SET     *
  0D91         5404:                    ORG     DEBUGSTMT*2+.SA
0D91 2BBE      5405:                    #.
  2BBE         5406:                    ORG     .
  017B         5407: OPDBG              EQU     .SC
  017C         5408: .SC                SET     .SC+1
2BBE 017B      5409:                    OPDBG
2BC0 2F        5410:                    $2F
2BC1 29        5411:                    $29
  2BC2         5412: .                  SET     *
  0D93         5413:                    ORG     ERRSTMT*2+.SA
0D93 2BC2      5414:                    #.
  2BC2         5415:                    ORG     .
2BC2 DA        5416:                    NUMEXP
2BC3 8005      5417:                    ((:11B8-*)&$3FFF)+$8000
  017C         5418: OPERRCAUSE         EQU     .SC
  017D         5419: .SC                SET     .SC+1
2BC5 017C      5420:                    OPERRCAUSE
2BC7 2F        5421:                    $2F
  2BC8         5422: :11B8              EQU     *
2BC8 2A        5423:                    $2A
2BC9 34        5424:                    $34
2BCA 0172      5425:                    OPERRST
2BCC 2F        5426:                    $2F
2BCD 29        5427:                    $29
  2BCE         5428: .                  SET     *
  0D1F         5429:                    ORG     FUNCTIONDEFN*2+.SA
0D1F 2BCE      5430:                    #.
  2BCE         5431:                    ORG     .
2BCE 3E13CB    5432:                    $3E,#DEF
2BD1 806B      5433:                    ((:11B9-*)&$3FFF)+$8000
2BD3 06        5434:                    +NID
2BD4 8032      5435:                    ((:11BA-*)&$3FFF)+$8000
2BD6 0101      5436:                    DEFINED
2BD8 8005      5437:                    ((:11BB-*)&$3FFF)+$8000
2BDA 0107      5438:                    DOUBLEDEFVAR
2BDC 2C        5439:                    $2C
  2BDD         5440: :11BB              EQU     *
2BDD 4005      5441:                    ((:11BC-*)&$3FFF)+$4000




ASM/6800 1.3H4: 2BDF                    
08/16/82 00:00:00; Page 137; Form 1     
B2.ASM
2BDF 34        5442:                    $34
2BE0 2303      5443:                    $23,FUNCTION
  2BE2         5444: :11BC              EQU     *
2BE2 2C        5445:                    $2C
2BE3 D8        5446:                    PARAMETERDEFINITIONS
2BE4 2C        5447:                    $2C
2BE5 21        5448:                    $21
               5449:                    FCC     ''
2BE6 BD        5450:                    '=+$80
2BE7 8017      5451:                    ((:11BD-*)&$3FFF)+$8000
2BE9 F8        5452:                    OPJMP
2BEA 2F        5453:                    $2F
2BEB D4        5454:                    ADDR
2BEC F9        5455:                    GENLBL
2BED 3301      5456:                    $33,1
2BEF 2F        5457:                    $2F
2BF0 3201      5458:                    $32,1
  017D         5459: LOCALSUBFUNHEADER  EQU     .SC
  017E         5460: .SC                SET     .SC+1
2BF2 017D      5461:                    LOCALSUBFUNHEADER
2BF4 2F        5462:                    $2F
2BF5 DA        5463:                    NUMEXP
2BF6 2C        5464:                    $2C
2BF7 DB        5465:                    OPFUNRET
2BF8 2F        5466:                    $2F
2BF9 F9        5467:                    GENLBL
2BFA 3301      5468:                    $33,1
2BFC D2        5469:                    EQUHERE
2BFD 2F        5470:                    $2F
  2BFE         5471: :11BD              EQU     *
2BFE 4007      5472:                    ((:11BE-*)&$3FFF)+$4000
  017E         5473: ROUTINEBODY        EQU     .SC
  017F         5474: .SC                SET     .SC+1
2C00 017E      5475:                    ROUTINEBODY
2C02 38        5476:                    $38
2C03 01        5477:                    +:11BF-*-1
2C04 01        5478:                    +1
  2C05         5479: :11BF              EQU     *
  2C05         5480: :11BE              EQU     *
2C05 2C        5481:                    $2C




ASM/6800 1.3H4: 2C05                    
08/16/82 00:00:00; Page 138; Form 1     
B2.ASM
  2C06         5482: :11BA              EQU     *
2C06 4035      5483:                    ((:11C0-*)&$3FFF)+$4000
2C08 07        5484:                    +SID
2C09 8032      5485:                    ((:11C1-*)&$3FFF)+$8000
2C0B 0103      5486:                    DEFINEDSTRINGQ
2C0D 8005      5487:                    ((:11C2-*)&$3FFF)+$8000
2C0F 0108      5488:                    DOUBLEDEFSTR
2C11 2C        5489:                    $2C
  2C12         5490: :11C2              EQU     *
2C12 4005      5491:                    ((:11C3-*)&$3FFF)+$4000
2C14 34        5492:                    $34
2C15 2304      5493:                    $23,STRINGFUNCTION
  2C17         5494: :11C3              EQU     *
2C17 2C        5495:                    $2C
2C18 D8        5496:                    PARAMETERDEFINITIONS
2C19 2C        5497:                    $2C
2C1A 21        5498:                    $21
               5499:                    FCC     ''
2C1B BD        5500:                    '=+$80
2C1C 8017      5501:                    ((:11C4-*)&$3FFF)+$8000
2C1E F8        5502:                    OPJMP
2C1F 2F        5503:                    $2F
2C20 D4        5504:                    ADDR
2C21 F9        5505:                    GENLBL
2C22 3301      5506:                    $33,1
2C24 2F        5507:                    $2F
2C25 3201      5508:                    $32,1
2C27 017D      5509:                    LOCALSUBFUNHEADER
2C29 2F        5510:                    $2F
2C2A DC        5511:                    STREXP
2C2B 2C        5512:                    $2C
2C2C DB        5513:                    OPFUNRET
2C2D 2F        5514:                    $2F
2C2E F9        5515:                    GENLBL
2C2F 3301      5516:                    $33,1
2C31 D2        5517:                    EQUHERE
2C32 2F        5518:                    $2F
  2C33         5519: :11C4              EQU     *
2C33 4007      5520:                    ((:11C5-*)&$3FFF)+$4000
2C35 017E      5521:                    ROUTINEBODY




ASM/6800 1.3H4: 2C37                    
08/16/82 00:00:00; Page 139; Form 1     
B2.ASM
2C37 38        5522:                    $38
2C38 01        5523:                    +:11C6-*-1
2C39 01        5524:                    +1
  2C3A         5525: :11C6              EQU     *
  2C3A         5526: :11C5              EQU     *
2C3A 2C        5527:                    $2C
  2C3B         5528: :11C1              EQU     *
  2C3B         5529: :11C0              EQU     *
2C3B 2C        5530:                    $2C
  2C3C         5531: :11B9              EQU     *
2C3C 29        5532:                    $29
  2C3D         5533: .                  SET     *
  0D21         5534:                    ORG     SUBROUTINEDEFN*2+.SA
0D21 2C3D      5535:                    #.
  2C3D         5536:                    ORG     .
2C3D 3E13BB    5537:                    $3E,#SUBROUTINE
2C40 8029      5538:                    ((:11C7-*)&$3FFF)+$8000
2C42 06        5539:                    +NID
2C43 4003      5540:                    ((:11C8-*)&$3FFF)+$4000
2C45 07        5541:                    +SID
  2C46         5542: :11C8              EQU     *
2C46 2C        5543:                    $2C
2C47 270E      5544:                    $27,FREFSUBROUTINE
2C49 8005      5545:                    ((:11C9-*)&$3FFF)+$8000
2C4B 250E      5546:                    $25,FREFSUBROUTINE
2C4D 2C        5547:                    $2C
  2C4E         5548: :11C9              EQU     *
2C4E 4010      5549:                    ((:11CA-*)&$3FFF)+$4000
2C50 0101      5550:                    DEFINED
2C52 4004      5551:                    ((:11CB-*)&$3FFF)+$4000
2C54 0103      5552:                    DEFINEDSTRINGQ
  2C56         5553: :11CB              EQU     *
2C56 8005      5554:                    ((:11CC-*)&$3FFF)+$8000
2C58 0107      5555:                    DOUBLEDEFVAR
2C5A 2C        5556:                    $2C
  2C5B         5557: :11CC              EQU     *
2C5B 4003      5558:                    ((:11CA-*)&$3FFF)+$4000
2C5D 34        5559:                    $34
  2C5E         5560: :11CA              EQU     *
2C5E 2C        5561:                    $2C




ASM/6800 1.3H4: 2C5F                    
08/16/82 00:00:00; Page 140; Form 1     
B2.ASM
2C5F 230C      5562:                    $23,TYPESUBROUTINE
2C61 D8        5563:                    PARAMETERDEFINITIONS
2C62 2C        5564:                    $2C
2C63 017E      5565:                    ROUTINEBODY
2C65 38        5566:                    $38
2C66 01        5567:                    +:11CD-*-1
2C67 01        5568:                    +1
  2C68         5569: :11CD              EQU     *
2C68 2C        5570:                    $2C
  2C69         5571: :11C7              EQU     *
2C69 29        5572:                    $29
  2C6A         5573: .                  SET     *
  0E45         5574:                    ORG     ROUTINEBODY*2+.SA
0E45 2C6A      5575:                    #.
  2C6A         5576:                    ORG     .
2C6A 3E13D4    5577:                    $3E,#EXTERNAL
2C6D 800E      5578:                    ((:11CE-*)&$3FFF)+$8000
2C6F FE        5579:                    RESDATA
2C70 30        5580:                    $30
2C71 2D3A4E41  5581:                    FCC     '-:NARGS*'
2C79 B6        5582:                    '6+$80
2C7A 2F        5583:                    $2F
  2C7B         5584: :11CE              EQU     *
2C7B 2A        5585:                    $2A
2C7C D7        5586:                    ENDOFLINEOPTCOMMENT
2C7D 802A      5587:                    ((:11CF-*)&$3FFF)+$8000
2C7F F8        5588:                    OPJMP
2C80 2F        5589:                    $2F
2C81 D4        5590:                    ADDR
2C82 F9        5591:                    GENLBL
2C83 3301      5592:                    $33,1
2C85 2F        5593:                    $2F
2C86 3201      5594:                    $32,1
2C88 017D      5595:                    LOCALSUBFUNHEADER
2C8A 2F        5596:                    $2F
  2C8B         5597: :11D0              EQU     *
2C8B C5        5598:                    REMARKSTMT
2C8C 400D      5599:                    ((:11D1-*)&$3FFF)+$4000
2C8E C6        5600:                    INCLUDESTMT
2C8F 400A      5601:                    ((:11D1-*)&$3FFF)+$4000




ASM/6800 1.3H4: 2C91                    
08/16/82 00:00:00; Page 141; Form 1     
B2.ASM
2C91 3E1184    5602:                    $3E,#DIM
2C94 8005      5603:                    ((:11D2-*)&$3FFF)+$8000
2C96 0128      5604:                    DIMBODY
2C98 2C        5605:                    $2C
  2C99         5606: :11D2              EQU     *
  2C99         5607: :11D1              EQU     *
2C99 7FF2      5608:                    ((:11D0-*)&$3FFF)+$4000
2C9B 34        5609:                    $34
  017F         5610: ROUTINEBLOCK       EQU     .SC
  0180         5611: .SC                SET     .SC+1
2C9C 017F      5612:                    ROUTINEBLOCK
2C9E 2C        5613:                    $2C
2C9F 0170      5614:                    OPSTP
2CA1 2F        5615:                    $2F
2CA2 F9        5616:                    GENLBL
2CA3 3301      5617:                    $33,1
2CA5 D2        5618:                    EQUHERE
2CA6 2F        5619:                    $2F
  2CA7         5620: :11CF              EQU     *
2CA7 29        5621:                    $29
  2CA8         5622: .                  SET     *
  0E47         5623:                    ORG     ROUTINEBLOCK*2+.SA
0E47 2CA8      5624:                    #.
  2CA8         5625:                    ORG     .
2CA8 E3        5626:                    LINELABEL
2CA9 8040      5627:                    ((:11D3-*)&$3FFF)+$8000
2CAB E4        5628:                    LABELLEDBLOCK
2CAC 38        5629:                    $38
2CAD 01        5630:                    +:11D4-*-1
2CAE 01        5631:                    +1
  2CAF         5632: :11D4              EQU     *
2CAF 8009      5633:                    ((:11D5-*)&$3FFF)+$8000
2CB1 E5        5634:                    RESTOFCLAUSE
2CB2 2C        5635:                    $2C
2CB3 E0        5636:                    ENDOFLINE
2CB4 2C        5637:                    $2C
2CB5 017F      5638:                    ROUTINEBLOCK
2CB7 2C        5639:                    $2C
  2CB8         5640: :11D5              EQU     *
2CB8 4030      5641:                    ((:11D6-*)&$3FFF)+$4000




ASM/6800 1.3H4: 2CBA                    
08/16/82 00:00:00; Page 142; Form 1     
B2.ASM
2CBA EE        5642:                    EXECUTABLELINE
2CBB 8005      5643:                    ((:11D7-*)&$3FFF)+$8000
2CBD 017F      5644:                    ROUTINEBLOCK
2CBF 2C        5645:                    $2C
  2CC0         5646: :11D7              EQU     *
2CC0 4028      5647:                    ((:11D6-*)&$3FFF)+$4000
2CC2 E7        5648:                    FORMATLINE
2CC3 8005      5649:                    ((:11D8-*)&$3FFF)+$8000
2CC5 017F      5650:                    ROUTINEBLOCK
2CC7 2C        5651:                    $2C
  2CC8         5652: :11D8              EQU     *
2CC8 4020      5653:                    ((:11D6-*)&$3FFF)+$4000
2CCA E0        5654:                    ENDOFLINE
2CCB 8005      5655:                    ((:11D9-*)&$3FFF)+$8000
2CCD 017F      5656:                    ROUTINEBLOCK
2CCF 2C        5657:                    $2C
  2CD0         5658: :11D9              EQU     *
2CD0 4018      5659:                    ((:11D6-*)&$3FFF)+$4000
2CD2 EB        5660:                    FUNCTIONDEFN
2CD3 8007      5661:                    ((:11DA-*)&$3FFF)+$8000
2CD5 D7        5662:                    ENDOFLINEOPTCOMMENT
2CD6 2C        5663:                    $2C
2CD7 017F      5664:                    ROUTINEBLOCK
2CD9 2C        5665:                    $2C
  2CDA         5666: :11DA              EQU     *
2CDA 400E      5667:                    ((:11D6-*)&$3FFF)+$4000
2CDC EC        5668:                    SUBROUTINEDEFN
2CDD 8007      5669:                    ((:11DB-*)&$3FFF)+$8000
2CDF D7        5670:                    ENDOFLINEOPTCOMMENT
2CE0 2C        5671:                    $2C
2CE1 017F      5672:                    ROUTINEBLOCK
2CE3 2C        5673:                    $2C
  2CE4         5674: :11DB              EQU     *
2CE4 4004      5675:                    ((:11D6-*)&$3FFF)+$4000
  0180         5676: MUSTBEEND          EQU     .SC
  0181         5677: .SC                SET     .SC+1
2CE6 0180      5678:                    MUSTBEEND
  2CE8         5679: :11D6              EQU     *
2CE8 2C        5680:                    $2C
  2CE9         5681: :11D3              EQU     *




ASM/6800 1.3H4: 2CE9                    
08/16/82 00:00:00; Page 143; Form 1     
B2.ASM
2CE9 2A        5682:                    $2A
2CEA EE        5683:                    EXECUTABLELINE
2CEB 8005      5684:                    ((:11DC-*)&$3FFF)+$8000
2CED 017F      5685:                    ROUTINEBLOCK
2CEF 2C        5686:                    $2C
  2CF0         5687: :11DC              EQU     *
2CF0 2A        5688:                    $2A
2CF1 EB        5689:                    FUNCTIONDEFN
2CF2 8007      5690:                    ((:11DD-*)&$3FFF)+$8000
2CF4 E0        5691:                    ENDOFLINE
2CF5 2C        5692:                    $2C
2CF6 017F      5693:                    ROUTINEBLOCK
2CF8 2C        5694:                    $2C
  2CF9         5695: :11DD              EQU     *
2CF9 2A        5696:                    $2A
2CFA EC        5697:                    SUBROUTINEDEFN
2CFB 8007      5698:                    ((:11DE-*)&$3FFF)+$8000
2CFD E0        5699:                    ENDOFLINE
2CFE 2C        5700:                    $2C
2CFF 017F      5701:                    ROUTINEBLOCK
2D01 2C        5702:                    $2C
  2D02         5703: :11DE              EQU     *
2D02 2A        5704:                    $2A
2D03 C6        5705:                    INCLUDESTMT
2D04 8005      5706:                    ((:11DF-*)&$3FFF)+$8000
2D06 017F      5707:                    ROUTINEBLOCK
2D08 2C        5708:                    $2C
  2D09         5709: :11DF              EQU     *
2D09 2A        5710:                    $2A
2D0A 0180      5711:                    MUSTBEEND
2D0C 29        5712:                    $29
  2D0D         5713: .                  SET     *
  0CF9         5714:                    ORG     PARAMETERDEFINITIONS*2+.SA
0CF9 2D0D      5715:                    #.
  2D0D         5716:                    ORG     .
2D0D 34        5717:                    $34
2D0E 30        5718:                    $30
2D0F 3A4E4152  5719:                    FCC     ':NARGS         SET '
2D1A B0        5720:                    '0+$80
2D1B 2F        5721:                    $2F




ASM/6800 1.3H4: 2D1C                    
08/16/82 00:00:00; Page 144; Form 1     
B2.ASM
2D1C 21        5722:                    $21
               5723:                    FCC     ''
2D1D A8        5724:                    '(+$80
2D1E 803C      5725:                    ((:11E0-*)&$3FFF)+$8000
  0181         5726: NEWPARAMETER       EQU     .SC
  0182         5727: .SC                SET     .SC+1
2D20 0181      5728:                    NEWPARAMETER
2D22 2C        5729:                    $2C
2D23 30        5730:                    $30
2D24 3A4E4152  5731:                    FCC     ':NARGS         SET :NARGS+'
2D36 B1        5732:                    '1+$80
2D37 2F        5733:                    $2F
  2D38         5734: :11E1              EQU     *
2D38 21        5735:                    $21
               5736:                    FCC     ''
2D39 AC        5737:                    ',+$80
2D3A 801A      5738:                    ((:11E2-*)&$3FFF)+$8000
2D3C 0181      5739:                    NEWPARAMETER
2D3E 2C        5740:                    $2C
2D3F 30        5741:                    $30
2D40 3A4E4152  5742:                    FCC     ':NARGS         SET :NARGS+'
2D52 B1        5743:                    '1+$80
2D53 2F        5744:                    $2F
  2D54         5745: :11E2              EQU     *
2D54 7FE4      5746:                    ((:11E1-*)&$3FFF)+$4000
2D56 34        5747:                    $34
2D57 21        5748:                    $21
               5749:                    FCC     ''
2D58 A9        5750:                    ')+$80
2D59 2C        5751:                    $2C
  2D5A         5752: :11E0              EQU     *
2D5A 4003      5753:                    ((:11E3-*)&$3FFF)+$4000
2D5C 34        5754:                    $34
  2D5D         5755: :11E3              EQU     *
2D5D 2C        5756:                    $2C
2D5E 29        5757:                    $29
  2D5F         5758: .                  SET     *
  0E43         5759:                    ORG     LOCALSUBFUNHEADER*2+.SA
0E43 2D5F      5760:                    #.
  2D5F         5761:                    ORG     .




ASM/6800 1.3H4: 2D5F                    
08/16/82 00:00:00; Page 145; Form 1     
B2.ASM
2D5F 30        5762:                    $30
2D60 094A5352  5763:                    FCC     '  JSR            $10'
2D68 B6        5764:                    '6+$80
2D69 2F        5765:                    $2F
2D6A D3        5766:                    BYTE
2D6B 30        5767:                    $30
2D6C 2431      5768:                    FCC     '$1'
2D6E B4        5769:                    '4+$80
2D6F 2F        5770:                    $2F
2D70 D4        5771:                    ADDR
2D71 30        5772:                    $30
               5773:                    FCC     ''
2D72 B0        5774:                    '0+$80
2D73 2F        5775:                    $2F
2D74 D6        5776:                    DADDR
2D75 30        5777:                    $30
2D76 3A3A2D    5778:                    FCC     '::-'
2D79 B6        5779:                    '6+$80
2D7A 2F        5780:                    $2F
2D7B D6        5781:                    DADDR
2D7C 30        5782:                    $30
2D7D 2E544E53  5783:                    FCC     '.TNS'
2D81 D3        5784:                    'S+$80
2D82 2F        5785:                    $2F
2D83 D6        5786:                    DADDR
2D84 30        5787:                    $30
2D85 2E544E53  5788:                    FCC     '.TNSS+6*.TNS'
2D91 D6        5789:                    'V+$80
2D92 2F        5790:                    $2F
2D93 D3        5791:                    BYTE
2D94 30        5792:                    $30
2D95 3A4E4152  5793:                    FCC     ':NARG'
2D9A D3        5794:                    'S+$80
2D9B 29        5795:                    $29
  2D9C         5796: .                  SET     *
  0E4B         5797:                    ORG     NEWPARAMETER*2+.SA
0E4B 2D9C      5798:                    #.
  2D9C         5799:                    ORG     .
2D9C 06        5800:                    +NID
2D9D 802A      5801:                    ((:11E4-*)&$3FFF)+$8000




ASM/6800 1.3H4: 2D9F                    
08/16/82 00:00:00; Page 146; Form 1     
B2.ASM
2D9F 0101      5802:                    DEFINED
2DA1 8005      5803:                    ((:11E5-*)&$3FFF)+$8000
2DA3 0107      5804:                    DOUBLEDEFVAR
2DA5 2C        5805:                    $2C
  2DA6         5806: :11E5              EQU     *
2DA6 4020      5807:                    ((:11E6-*)&$3FFF)+$4000
2DA8 C1        5808:                    LB
2DA9 8018      5809:                    ((:11E7-*)&$3FFF)+$8000
2DAB 21        5810:                    $21
               5811:                    FCC     ''
2DAC AA        5812:                    '*+$80
2DAD 2C        5813:                    $2C
2DAE 21        5814:                    $21
               5815:                    FCC     ''
2DAF AC        5816:                    ',+$80
2DB0 8009      5817:                    ((:11E8-*)&$3FFF)+$8000
2DB2 21        5818:                    $21
               5819:                    FCC     ''
2DB3 AA        5820:                    '*+$80
2DB4 2C        5821:                    $2C
2DB5 C2        5822:                    RB
2DB6 2C        5823:                    $2C
2DB7 2302      5824:                    $23,ARRAY
  2DB9         5825: :11E8              EQU     *
2DB9 4007      5826:                    ((:11E9-*)&$3FFF)+$4000
2DBB C2        5827:                    RB
2DBC 8004      5828:                    ((:11EA-*)&$3FFF)+$8000
2DBE 2301      5829:                    $23,VECTOR
  2DC0         5830: :11EA              EQU     *
  2DC0         5831: :11E9              EQU     *
2DC0 2C        5832:                    $2C
  2DC1         5833: :11E7              EQU     *
2DC1 4005      5834:                    ((:11E6-*)&$3FFF)+$4000
2DC3 34        5835:                    $34
2DC4 2309      5836:                    $23,COMMONSCALAR
  2DC6         5837: :11E6              EQU     *
2DC6 2C        5838:                    $2C
  2DC7         5839: :11E4              EQU     *
2DC7 401F      5840:                    ((:11EB-*)&$3FFF)+$4000
2DC9 07        5841:                    +SID




ASM/6800 1.3H4: 2DCA                    
08/16/82 00:00:00; Page 147; Form 1     
B2.ASM
2DCA 801C      5842:                    ((:11EC-*)&$3FFF)+$8000
2DCC 0103      5843:                    DEFINEDSTRINGQ
2DCE 8005      5844:                    ((:11ED-*)&$3FFF)+$8000
2DD0 0108      5845:                    DOUBLEDEFSTR
2DD2 2C        5846:                    $2C
  2DD3         5847: :11ED              EQU     *
2DD3 4012      5848:                    ((:11EE-*)&$3FFF)+$4000
2DD5 C1        5849:                    LB
2DD6 800A      5850:                    ((:11EF-*)&$3FFF)+$8000
2DD8 21        5851:                    $21
               5852:                    FCC     ""
2DD9 AA        5853:                    '*+$80
2DDA 2C        5854:                    $2C
2DDB C2        5855:                    RB
2DDC 2C        5856:                    $2C
2DDD 24010F    5857:                    $24,1,STRARRAY
  2DE0         5858: :11EF              EQU     *
2DE0 4005      5859:                    ((:11EE-*)&$3FFF)+$4000
2DE2 34        5860:                    $34
2DE3 2300      5861:                    $23,STRVAR
  2DE5         5862: :11EE              EQU     *
2DE5 2C        5863:                    $2C
  2DE6         5864: :11EC              EQU     *
  2DE6         5865: :11EB              EQU     *
2DE6 800B      5866:                    ((:11F0-*)&$3FFF)+$8000
2DE8 230D      5867:                    $23,PARAMETER
2DEA 31        5868:                    $31
2DEB FD        5869:                    EQUDATA
2DEC 2F        5870:                    $2F
2DED FE        5871:                    RESDATA
2DEE 30        5872:                    $30
               5873:                    FCC     ''
2DEF B6        5874:                    '6+$80
2DF0 2F        5875:                    $2F
  2DF1         5876: :11F0              EQU     *
2DF1 29        5877:                    $29
  2DF2         5878: .                  SET     *
  0D7F         5879:                    ORG     OPENSTMT*2+.SA
0D7F 2DF2      5880:                    #.
  2DF2         5881:                    ORG     .




ASM/6800 1.3H4: 0D7F                    
08/16/82 00:00:00; Page 148; Form 1     
B2.ASM
  0182         5882: CHNL               EQU     .SC
  0183         5883: .SC                SET     .SC+1
2DF2 0182      5884:                    CHNL
2DF4 800A      5885:                    ((:11F1-*)&$3FFF)+$8000
2DF6 21        5886:                    $21
               5887:                    FCC     ''
2DF7 AC        5888:                    ',+$80
2DF8 2C        5889:                    $2C
2DF9 DC        5890:                    STREXP
2DFA 2C        5891:                    $2C
  0183         5892: OPOPN              EQU     .SC
  0184         5893: .SC                SET     .SC+1
2DFB 0183      5894:                    OPOPN
2DFD 2F        5895:                    $2F
  2DFE         5896: :11F1              EQU     *
2DFE 29        5897:                    $29
  2DFF         5898: .                  SET     *
  0D81         5899:                    ORG     CREATESTMT*2+.SA
0D81 2DFF      5900:                    #.
  2DFF         5901:                    ORG     .
2DFF 0182      5902:                    CHNL
2E01 800A      5903:                    ((:11F2-*)&$3FFF)+$8000
2E03 21        5904:                    $21
               5905:                    FCC     ''
2E04 AC        5906:                    ',+$80
2E05 2C        5907:                    $2C
2E06 DC        5908:                    STREXP
2E07 2C        5909:                    $2C
  0184         5910: OPCREAT            EQU     .SC
  0185         5911: .SC                SET     .SC+1
2E08 0184      5912:                    OPCREAT
2E0A 2F        5913:                    $2F
  2E0B         5914: :11F2              EQU     *
2E0B 29        5915:                    $29
  2E0C         5916: .                  SET     *
  0D83         5917:                    ORG     CLOSESTMT*2+.SA
0D83 2E0C      5918:                    #.
  2E0C         5919:                    ORG     .
2E0C 0182      5920:                    CHNL
2E0E 8012      5921:                    ((:11F3-*)&$3FFF)+$8000




ASM/6800 1.3H4: 2E0E                    
08/16/82 00:00:00; Page 149; Form 1     
B2.ASM
  0185         5922: OPCLS              EQU     .SC
  0186         5923: .SC                SET     .SC+1
2E10 0185      5924:                    OPCLS
2E12 2F        5925:                    $2F
  2E13         5926: :11F4              EQU     *
2E13 21        5927:                    $21
               5928:                    FCC     ''
2E14 AC        5929:                    ',+$80
2E15 8008      5930:                    ((:11F5-*)&$3FFF)+$8000
2E17 0182      5931:                    CHNL
2E19 2C        5932:                    $2C
2E1A 0185      5933:                    OPCLS
2E1C 2F        5934:                    $2F
  2E1D         5935: :11F5              EQU     *
2E1D 7FF6      5936:                    ((:11F4-*)&$3FFF)+$4000
2E1F 34        5937:                    $34
  2E20         5938: :11F3              EQU     *
2E20 29        5939:                    $29
  2E21         5940: .                  SET     *
  0D85         5941:                    ORG     DELETESTMT*2+.SA
0D85 2E21      5942:                    #.
  2E21         5943:                    ORG     .
2E21 DC        5944:                    STREXP
2E22 8005      5945:                    ((:11F6-*)&$3FFF)+$8000
  0186         5946: OPDEL              EQU     .SC
  0187         5947: .SC                SET     .SC+1
2E24 0186      5948:                    OPDEL
2E26 2F        5949:                    $2F
  2E27         5950: :11F6              EQU     *
2E27 29        5951:                    $29
  2E28         5952: .                  SET     *
  0D87         5953:                    ORG     RENAMESTMT*2+.SA
0D87 2E28      5954:                    #.
  2E28         5955:                    ORG     .
2E28 DC        5956:                    STREXP
2E29 800A      5957:                    ((:11F7-*)&$3FFF)+$8000
2E2B 21        5958:                    $21
               5959:                    FCC     ''
2E2C AC        5960:                    ',+$80
2E2D 2C        5961:                    $2C




ASM/6800 1.3H4: 2E2E                    
08/16/82 00:00:00; Page 150; Form 1     
B2.ASM
2E2E DC        5962:                    STREXP
2E2F 2C        5963:                    $2C
  0187         5964: OPREN              EQU     .SC
  0188         5965: .SC                SET     .SC+1
2E30 0187      5966:                    OPREN
2E32 2F        5967:                    $2F
  2E33         5968: :11F7              EQU     *
2E33 29        5969:                    $29
  2E34         5970: .                  SET     *
  0D7D         5971:                    ORG     POSITIONSTMT*2+.SA
0D7D 2E34      5972:                    #.
  2E34         5973:                    ORG     .
2E34 0182      5974:                    CHNL
2E36 8010      5975:                    ((:11F8-*)&$3FFF)+$8000
  0188         5976: SETPOSITION        EQU     .SC
  0189         5977: .SC                SET     .SC+1
2E38 0188      5978:                    SETPOSITION
2E3A 400B      5979:                    ((:11F9-*)&$3FFF)+$4000
2E3C 21        5980:                    $21
               5981:                    FCC     ''
2E3D AC        5982:                    ',+$80
2E3E 8007      5983:                    ((:11FA-*)&$3FFF)+$8000
2E40 DA        5984:                    NUMEXP
2E41 2C        5985:                    $2C
  0189         5986: OPRESTR            EQU     .SC
  018A         5987: .SC                SET     .SC+1
2E42 0189      5988:                    OPRESTR
2E44 2F        5989:                    $2F
  2E45         5990: :11FA              EQU     *
  2E45         5991: :11F9              EQU     *
2E45 2C        5992:                    $2C
  2E46         5993: :11F8              EQU     *
2E46 29        5994:                    $29
  2E47         5995: .                  SET     *
  0D95         5996:                    ORG     SYSCALLSTMT*2+.SA
0D95 2E47      5997:                    #.
  2E47         5998:                    ORG     .
2E47 0182      5999:                    CHNL
2E49 8005      6000:                    ((:11FB-*)&$3FFF)+$8000
2E4B 21        6001:                    $21




ASM/6800 1.3H4: 2E4B                    
08/16/82 00:00:00; Page 151; Form 1     
B2.ASM
               6002:                    FCC     ''
2E4C AC        6003:                    ',+$80
2E4D 2C        6004:                    $2C
  2E4E         6005: :11FB              EQU     *
2E4E 4006      6006:                    ((:11FC-*)&$3FFF)+$4000
2E50 34        6007:                    $34
  018A         6008: OPZCHN             EQU     .SC
  018B         6009: .SC                SET     .SC+1
2E51 018A      6010:                    OPZCHN
2E53 2F        6011:                    $2F
  2E54         6012: :11FC              EQU     *
2E54 8005      6013:                    ((:11FD-*)&$3FFF)+$8000
  018B         6014: SYSCALL1           EQU     .SC
  018C         6015: .SC                SET     .SC+1
2E56 018B      6016:                    SYSCALL1
2E58 2C        6017:                    $2C
  2E59         6018: :11FD              EQU     *
2E59 29        6019:                    $29
  2E5A         6020: .                  SET     *
  0E5F         6021:                    ORG     SYSCALL1*2+.SA
0E5F 2E5A      6022:                    #.
  2E5A         6023:                    ORG     .
2E5A 21        6024:                    $21
               6025:                    FCC     ''
2E5B A8        6026:                    '(+$80
2E5C 8008      6027:                    ((:11FE-*)&$3FFF)+$8000
  018C         6028: SYSCALL2           EQU     .SC
  018D         6029: .SC                SET     .SC+1
2E5E 018C      6030:                    SYSCALL2
2E60 2C        6031:                    $2C
2E61 21        6032:                    $21
               6033:                    FCC     ''
2E62 A9        6034:                    ')+$80
2E63 2C        6035:                    $2C
  2E64         6036: :11FE              EQU     *
2E64 2A        6037:                    $2A
2E65 018C      6038:                    SYSCALL2
2E67 29        6039:                    $29
  2E68         6040: .                  SET     *
  0E61         6041:                    ORG     SYSCALL2*2+.SA




ASM/6800 1.3H4: 0E61                    
08/16/82 00:00:00; Page 152; Form 1     
B2.ASM
0E61 2E68      6042:                    #.
  2E68         6043:                    ORG     .
2E68 DC        6044:                    STREXP
2E69 802C      6045:                    ((:11FF-*)&$3FFF)+$8000
2E6B 21        6046:                    $21
               6047:                    FCC     ''
2E6C AC        6048:                    ',+$80
2E6D 8021      6049:                    ((:1200-*)&$3FFF)+$8000
2E6F DC        6050:                    STREXP
2E70 2C        6051:                    $2C
2E71 21        6052:                    $21
               6053:                    FCC     ''
2E72 AC        6054:                    ',+$80
2E73 8014      6055:                    ((:1201-*)&$3FFF)+$8000
2E75 DC        6056:                    STREXP
2E76 2C        6057:                    $2C
2E77 21        6058:                    $21
               6059:                    FCC     ''
2E78 AC        6060:                    ',+$80
2E79 8007      6061:                    ((:1202-*)&$3FFF)+$8000
2E7B DA        6062:                    NUMEXP
2E7C 2C        6063:                    $2C
  018D         6064: OPSYSCALL4ARG      EQU     .SC
  018E         6065: .SC                SET     .SC+1
2E7D 018D      6066:                    OPSYSCALL4ARG
2E7F 2F        6067:                    $2F
  2E80         6068: :1202              EQU     *
2E80 4006      6069:                    ((:1203-*)&$3FFF)+$4000
2E82 34        6070:                    $34
  018E         6071: OPSYSCALL3ARG      EQU     .SC
  018F         6072: .SC                SET     .SC+1
2E83 018E      6073:                    OPSYSCALL3ARG
2E85 2F        6074:                    $2F
  2E86         6075: :1203              EQU     *
2E86 2C        6076:                    $2C
  2E87         6077: :1201              EQU     *
2E87 4006      6078:                    ((:1204-*)&$3FFF)+$4000
2E89 34        6079:                    $34
  018F         6080: OPSYSCALL2ARG      EQU     .SC
  0190         6081: .SC                SET     .SC+1




ASM/6800 1.3H4: 2E8A                    
08/16/82 00:00:00; Page 153; Form 1     
B2.ASM
2E8A 018F      6082:                    OPSYSCALL2ARG
2E8C 2F        6083:                    $2F
  2E8D         6084: :1204              EQU     *
2E8D 2C        6085:                    $2C
  2E8E         6086: :1200              EQU     *
2E8E 4006      6087:                    ((:1205-*)&$3FFF)+$4000
2E90 34        6088:                    $34
  0190         6089: OPSYSCALL1ARG      EQU     .SC
  0191         6090: .SC                SET     .SC+1
2E91 0190      6091:                    OPSYSCALL1ARG
2E93 2F        6092:                    $2F
  2E94         6093: :1205              EQU     *
2E94 2C        6094:                    $2C
  2E95         6095: :11FF              EQU     *
2E95 29        6096:                    $29
  2E96         6097: .                  SET     *
  0E4D         6098:                    ORG     CHNL*2+.SA
0E4D 2E96      6099:                    #.
  2E96         6100:                    ORG     .
2E96 21        6101:                    $21
               6102:                    FCC     ''
2E97 A3        6103:                    '#+$80
2E98 8007      6104:                    ((:1206-*)&$3FFF)+$8000
2E9A DA        6105:                    NUMEXP
2E9B 2C        6106:                    $2C
  0191         6107: OPCHNL             EQU     .SC
  0192         6108: .SC                SET     .SC+1
2E9C 0191      6109:                    OPCHNL
2E9E 2F        6110:                    $2F
  2E9F         6111: :1206              EQU     *
2E9F 29        6112:                    $29
  0192         6113: CHNLWOPTPOS        EQU     .SC
  0193         6114: .SC                SET     .SC+1
  2EA0         6115: .                  SET     *
  0E6D         6116:                    ORG     CHNLWOPTPOS*2+.SA
0E6D 2EA0      6117:                    #.
  2EA0         6118:                    ORG     .
2EA0 0182      6119:                    CHNL
2EA2 800B      6120:                    ((:1207-*)&$3FFF)+$8000
2EA4 0188      6121:                    SETPOSITION




ASM/6800 1.3H4: 2EA6                    
08/16/82 00:00:00; Page 154; Form 1     
B2.ASM
2EA6 4003      6122:                    ((:1208-*)&$3FFF)+$4000
2EA8 34        6123:                    $34
  2EA9         6124: :1208              EQU     *
2EA9 2C        6125:                    $2C
2EAA 21        6126:                    $21
               6127:                    FCC     ''
2EAB AC        6128:                    ',+$80
2EAC 2C        6129:                    $2C
  2EAD         6130: :1207              EQU     *
2EAD 29        6131:                    $29
  2EAE         6132: .                  SET     *
  0D77         6133:                    ORG     INPUTSTMT*2+.SA
0D77 2EAE      6134:                    #.
  2EAE         6135:                    ORG     .
2EAE 21        6136:                    $21
2EAF 22        6137:                    FCC     '"'
2EB0 A2        6138:                    '"+$80
2EB1 4005      6139:                    ((:1209-*)&$3FFF)+$4000
2EB3 21        6140:                    $21
2EB4 27        6141:                    FCC     "'"
2EB5 A7        6142:                    ''+$80
  2EB6         6143: :1209              EQU     *
2EB6 8008      6144:                    ((:120A-*)&$3FFF)+$8000
2EB8 018A      6145:                    OPZCHN
2EBA 2F        6146:                    $2F
  0193         6147: INPUTSETPOS        EQU     .SC
  0194         6148: .SC                SET     .SC+1
2EBB 0193      6149:                    INPUTSETPOS
2EBD 2C        6150:                    $2C
  2EBE         6151: :120A              EQU     *
2EBE 401E      6152:                    ((:120B-*)&$3FFF)+$4000
  0194         6153: STRCON             EQU     .SC
  0195         6154: .SC                SET     .SC+1
2EC0 0194      6155:                    STRCON
2EC2 800B      6156:                    ((:120C-*)&$3FFF)+$8000
2EC4 018A      6157:                    OPZCHN
2EC6 2F        6158:                    $2F
2EC7 0193      6159:                    INPUTSETPOS
2EC9 2C        6160:                    $2C
  0195         6161: OPPS               EQU     .SC




ASM/6800 1.3H4: 2EC9                    
08/16/82 00:00:00; Page 155; Form 1     
B2.ASM
  0196         6162: .SC                SET     .SC+1
2ECA 0195      6163:                    OPPS
2ECC 2F        6164:                    $2F
  2ECD         6165: :120C              EQU     *
2ECD 400F      6166:                    ((:120B-*)&$3FFF)+$4000
2ECF 0192      6167:                    CHNLWOPTPOS
2ED1 400B      6168:                    ((:120B-*)&$3FFF)+$4000
2ED3 018A      6169:                    OPZCHN
2ED5 2F        6170:                    $2F
2ED6 0193      6171:                    INPUTSETPOS
2ED8 2C        6172:                    $2C
  0196         6173: OPRMPT             EQU     .SC
  0197         6174: .SC                SET     .SC+1
2ED9 0196      6175:                    OPRMPT
2EDB 2F        6176:                    $2F
  2EDC         6177: :120B              EQU     *
2EDC 8012      6178:                    ((:120D-*)&$3FFF)+$8000
  0197         6179: OPINL              EQU     .SC
  0198         6180: .SC                SET     .SC+1
2EDE 0197      6181:                    OPINL
2EE0 2F        6182:                    $2F
2EE1 D4        6183:                    ADDR
2EE2 F9        6184:                    GENLBL
2EE3 3301      6185:                    $33,1
2EE5 2F        6186:                    $2F
  0198         6187: INLIST             EQU     .SC
  0199         6188: .SC                SET     .SC+1
2EE6 0198      6189:                    INLIST
2EE8 2C        6190:                    $2C
2EE9 F9        6191:                    GENLBL
2EEA 3301      6192:                    $33,1
2EEC D2        6193:                    EQUHERE
2EED 2F        6194:                    $2F
  2EEE         6195: :120D              EQU     *
2EEE 29        6196:                    $29
  2EEF         6197: .                  SET     *
  0E6F         6198:                    ORG     INPUTSETPOS*2+.SA
0E6F 2EEF      6199:                    #.
  2EEF         6200:                    ORG     .
2EEF 0188      6201:                    SETPOSITION




ASM/6800 1.3H4: 2EF1                    
08/16/82 00:00:00; Page 156; Form 1     
B2.ASM
2EF1 8005      6202:                    ((:120E-*)&$3FFF)+$8000
2EF3 21        6203:                    $21
               6204:                    FCC     ''
2EF4 AC        6205:                    ',+$80
2EF5 2C        6206:                    $2C
  2EF6         6207: :120E              EQU     *
2EF6 2A        6208:                    $2A
2EF7 34        6209:                    $34
2EF8 29        6210:                    $29
  2EF9         6211: .                  SET     *
  0E79         6212:                    ORG     INLIST*2+.SA
0E79 2EF9      6213:                    #.
  2EF9         6214:                    ORG     .
  0199         6215: INSVAR             EQU     .SC
  019A         6216: .SC                SET     .SC+1
2EF9 0199      6217:                    INSVAR
2EFB 2A        6218:                    $2A
  019A         6219: INNVAR             EQU     .SC
  019B         6220: .SC                SET     .SC+1
2EFC 019A      6221:                    INNVAR
2EFE 800D      6222:                    ((:120F-*)&$3FFF)+$8000
2F00 21        6223:                    $21
               6224:                    FCC     ''
2F01 AC        6225:                    ',+$80
2F02 8005      6226:                    ((:1210-*)&$3FFF)+$8000
2F04 0198      6227:                    INLIST
2F06 2C        6228:                    $2C
  2F07         6229: :1210              EQU     *
2F07 4003      6230:                    ((:1211-*)&$3FFF)+$4000
2F09 34        6231:                    $34
  2F0A         6232: :1211              EQU     *
2F0A 2C        6233:                    $2C
  2F0B         6234: :120F              EQU     *
2F0B 29        6235:                    $29
  2F0C         6236: .                  SET     *
  0E7B         6237:                    ORG     INSVAR*2+.SA
0E7B 2F0C      6238:                    #.
  2F0C         6239:                    ORG     .
2F0C 014E      6240:                    OBVIOUSSTRINGTARGET
2F0E 8008      6241:                    ((:1212-*)&$3FFF)+$8000




ASM/6800 1.3H4: 2F0E                    
08/16/82 00:00:00; Page 157; Form 1     
B2.ASM
  019B         6242: OPINS              EQU     .SC
  019C         6243: .SC                SET     .SC+1
2F10 019B      6244:                    OPINS
2F12 2F        6245:                    $2F
2F13 014F      6246:                    OPSTS
2F15 2F        6247:                    $2F
  2F16         6248: :1212              EQU     *
2F16 2A        6249:                    $2A
2F17 07        6250:                    +SID
2F18 8053      6251:                    ((:1213-*)&$3FFF)+$8000
2F1A 0150      6252:                    STRVARREF
2F1C 38        6253:                    $38
2F1D 01        6254:                    +:1214-*-1
2F1E 01        6255:                    +1
  2F1F         6256: :1214              EQU     *
2F1F 8031      6257:                    ((:1215-*)&$3FFF)+$8000
2F21 C1        6258:                    LB
2F22 8024      6259:                    ((:1216-*)&$3FFF)+$8000
2F24 DA        6260:                    NUMEXP
2F25 2C        6261:                    $2C
2F26 21        6262:                    $21
               6263:                    FCC     ''
2F27 AC        6264:                    ',+$80
2F28 800F      6265:                    ((:1217-*)&$3FFF)+$8000
2F2A DA        6266:                    NUMEXP
2F2B 2C        6267:                    $2C
2F2C C2        6268:                    RB
2F2D 2C        6269:                    $2C
2F2E 0151      6270:                    OPSS2
2F30 2F        6271:                    $2F
2F31 019B      6272:                    OPINS
2F33 2F        6273:                    $2F
2F34 014F      6274:                    OPSTS
2F36 2F        6275:                    $2F
  2F37         6276: :1217              EQU     *
2F37 400E      6277:                    ((:1218-*)&$3FFF)+$4000
2F39 C2        6278:                    RB
2F3A 800B      6279:                    ((:1219-*)&$3FFF)+$8000
2F3C 0152      6280:                    OPSS1
2F3E 2F        6281:                    $2F




ASM/6800 1.3H4: 2F3E                    
08/16/82 00:00:00; Page 158; Form 1     
B2.ASM
  019C         6282: OPINP              EQU     .SC
  019D         6283: .SC                SET     .SC+1
2F3F 019C      6284:                    OPINP
2F41 2F        6285:                    $2F
2F42 0153      6286:                    OPSTB
2F44 2F        6287:                    $2F
  2F45         6288: :1219              EQU     *
  2F45         6289: :1218              EQU     *
2F45 2C        6290:                    $2C
  2F46         6291: :1216              EQU     *
2F46 4009      6292:                    ((:121A-*)&$3FFF)+$4000
2F48 34        6293:                    $34
2F49 019B      6294:                    OPINS
2F4B 2F        6295:                    $2F
2F4C 014F      6296:                    OPSTS
2F4E 2F        6297:                    $2F
  2F4F         6298: :121A              EQU     *
2F4F 2C        6299:                    $2C
  2F50         6300: :1215              EQU     *
2F50 401A      6301:                    ((:121B-*)&$3FFF)+$4000
2F52 2704      6302:                    $27,STRINGFUNCTION
2F54 8012      6303:                    ((:121C-*)&$3FFF)+$8000
2F56 2D        6304:                    $2D
2F57 4E6F7420  6305:                    FCC     "Not Implemente"
2F65 E4        6306:                    'd+$80
  2F66         6307: :121C              EQU     *
2F66 4004      6308:                    ((:121B-*)&$3FFF)+$4000
2F68 010B      6309:                    UDFSID
  2F6A         6310: :121B              EQU     *
2F6A 2C        6311:                    $2C
  2F6B         6312: :1213              EQU     *
2F6B 29        6313:                    $29
  2F6C         6314: .                  SET     *
  0E7D         6315:                    ORG     INNVAR*2+.SA
0E7D 2F6C      6316:                    #.
  2F6C         6317:                    ORG     .
2F6C 06        6318:                    +NID
2F6D 80F3      6319:                    ((:121D-*)&$3FFF)+$8000
2F6F 2705      6320:                    $27,SCALAR
2F71 800E      6321:                    ((:121E-*)&$3FFF)+$8000




ASM/6800 1.3H4: 2F73                    
08/16/82 00:00:00; Page 159; Form 1     
B2.ASM
2F73 0140      6322:                    NOSUBSCRIPTS
2F75 2C        6323:                    $2C
2F76 019C      6324:                    OPINP
2F78 2F        6325:                    $2F
2F79 0142      6326:                    OPSSCALAR
2F7B 38        6327:                    $38
2F7C 01        6328:                    +:121F-*-1
2F7D 01        6329:                    +1
  2F7E         6330: :121F              EQU     *
2F7E 2C        6331:                    $2C
  2F7F         6332: :121E              EQU     *
2F7F 40E0      6333:                    ((:1220-*)&$3FFF)+$4000
2F81 2708      6334:                    $27,POTENTIALLABEL
2F83 8019      6335:                    ((:1221-*)&$3FFF)+$8000
2F85 2508      6336:                    $25,POTENTIALLABEL
2F87 2C        6337:                    $2C
2F88 0140      6338:                    NOSUBSCRIPTS
2F8A 2C        6339:                    $2C
2F8B 31        6340:                    $31
2F8C FD        6341:                    EQUDATA
2F8D 2F        6342:                    $2F
2F8E FE        6343:                    RESDATA
2F8F 30        6344:                    $30
               6345:                    FCC     ''
2F90 B6        6346:                    '6+$80
2F91 2F        6347:                    $2F
2F92 019C      6348:                    OPINP
2F94 2F        6349:                    $2F
2F95 012F      6350:                    OPSTORE
2F97 2F        6351:                    $2F
2F98 D6        6352:                    DADDR
2F99 3201      6353:                    $32,1
2F9B 2F        6354:                    $2F
  2F9C         6355: :1221              EQU     *
2F9C 40C3      6356:                    ((:1220-*)&$3FFF)+$4000
2F9E 2709      6357:                    $27,COMMONSCALAR
2FA0 8027      6358:                    ((:1222-*)&$3FFF)+$8000
2FA2 2508      6359:                    $25,POTENTIALLABEL
2FA4 2C        6360:                    $2C
2FA5 0140      6361:                    NOSUBSCRIPTS




ASM/6800 1.3H4: 2FA7                    
08/16/82 00:00:00; Page 160; Form 1     
B2.ASM
2FA7 2C        6362:                    $2C
2FA8 270D      6363:                    $27,PARAMETER
2FAA 800F      6364:                    ((:1223-*)&$3FFF)+$8000
2FAC 0143      6365:                    OPLOAD
2FAE 2F        6366:                    $2F
2FAF D6        6367:                    DADDR
2FB0 3201      6368:                    $32,1
2FB2 2F        6369:                    $2F
2FB3 019C      6370:                    OPINP
2FB5 2F        6371:                    $2F
2FB6 0144      6372:                    OPST
2FB8 2F        6373:                    $2F
  2FB9         6374: :1223              EQU     *
2FB9 400D      6375:                    ((:1224-*)&$3FFF)+$4000
2FBB 34        6376:                    $34
2FBC 019C      6377:                    OPINP
2FBE 2F        6378:                    $2F
2FBF 012F      6379:                    OPSTORE
2FC1 2F        6380:                    $2F
2FC2 D6        6381:                    DADDR
2FC3 3201      6382:                    $32,1
2FC5 2F        6383:                    $2F
  2FC6         6384: :1224              EQU     *
2FC6 2C        6385:                    $2C
  2FC7         6386: :1222              EQU     *
2FC7 4098      6387:                    ((:1220-*)&$3FFF)+$4000
2FC9 2701      6388:                    $27,VECTOR
2FCB 8025      6389:                    ((:1225-*)&$3FFF)+$8000
2FCD 0145      6390:                    ONESUBSCRIPT
2FCF 2C        6391:                    $2C
2FD0 28010D    6392:                    $28,1,PARAMETER
2FD3 800F      6393:                    ((:1226-*)&$3FFF)+$8000
2FD5 0146      6394:                    OPVPA
2FD7 2F        6395:                    $2F
2FD8 D6        6396:                    DADDR
2FD9 3201      6397:                    $32,1
2FDB 2F        6398:                    $2F
2FDC 019C      6399:                    OPINP
2FDE 2F        6400:                    $2F
2FDF 0144      6401:                    OPST




ASM/6800 1.3H4: 2FE1                    
08/16/82 00:00:00; Page 161; Form 1     
B2.ASM
2FE1 2F        6402:                    $2F
  2FE2         6403: :1226              EQU     *
2FE2 400D      6404:                    ((:1227-*)&$3FFF)+$4000
2FE4 34        6405:                    $34
2FE5 019C      6406:                    OPINP
2FE7 2F        6407:                    $2F
2FE8 0147      6408:                    OPVSS
2FEA 2F        6409:                    $2F
2FEB D6        6410:                    DADDR
2FEC 3201      6411:                    $32,1
2FEE 2F        6412:                    $2F
  2FEF         6413: :1227              EQU     *
2FEF 2C        6414:                    $2C
  2FF0         6415: :1225              EQU     *
2FF0 406F      6416:                    ((:1220-*)&$3FFF)+$4000
2FF2 2702      6417:                    $27,ARRAY
2FF4 8025      6418:                    ((:1228-*)&$3FFF)+$8000
2FF6 0148      6419:                    TWOSUBSCRIPTS
2FF8 2C        6420:                    $2C
2FF9 28010D    6421:                    $28,1,PARAMETER
2FFC 800F      6422:                    ((:1229-*)&$3FFF)+$8000
2FFE 0149      6423:                    OPAPA
3000 2F        6424:                    $2F
3001 D6        6425:                    DADDR
3002 3201      6426:                    $32,1
3004 2F        6427:                    $2F
3005 019C      6428:                    OPINP
3007 2F        6429:                    $2F
3008 0144      6430:                    OPST
300A 2F        6431:                    $2F
  300B         6432: :1229              EQU     *
300B 400D      6433:                    ((:122A-*)&$3FFF)+$4000
300D 34        6434:                    $34
300E 019C      6435:                    OPINP
3010 2F        6436:                    $2F
3011 014A      6437:                    OPASS
3013 2F        6438:                    $2F
3014 D6        6439:                    DADDR
3015 3201      6440:                    $32,1
3017 2F        6441:                    $2F




ASM/6800 1.3H4: 3017                    
08/16/82 00:00:00; Page 162; Form 1     
B2.ASM
  3018         6442: :122A              EQU     *
3018 2C        6443:                    $2C
  3019         6444: :1228              EQU     *
3019 4046      6445:                    ((:1220-*)&$3FFF)+$4000
301B 2707      6446:                    $27,ISLABEL
301D 4004      6447:                    ((:122B-*)&$3FFF)+$4000
301F 2706      6448:                    $27,FREFLABEL
  3021         6449: :122B              EQU     *
3021 8005      6450:                    ((:122C-*)&$3FFF)+$8000
3023 010A      6451:                    CANTSTORELABEL
3025 2C        6452:                    $2C
  3026         6453: :122C              EQU     *
3026 4039      6454:                    ((:1220-*)&$3FFF)+$4000
3028 2703      6455:                    $27,FUNCTION
302A 8020      6456:                    ((:122D-*)&$3FFF)+$8000
302C 014B      6457:                    ARGUMENTLIST
302E 38        6458:                    $38
302F 80        6459:                    +:122E-*-1+$80
  3030         6460: :122E              EQU     *
3030 2C        6461:                    $2C
3031 019C      6462:                    OPINP
3033 2F        6463:                    $2F
3034 0179      6464:                    PUSHPARAMTEMPADDR
3036 2F        6465:                    $2F
3037 014D      6466:                    OPCALL
3039 2F        6467:                    $2F
303A D4        6468:                    ADDR
303B 30        6469:                    $30
303C 5345      6470:                    FCC     'SE'
303E D4        6471:                    'T+$80
303F 3201      6472:                    $32,1
3041 2F        6473:                    $2F
3042 D3        6474:                    BYTE
3043 F9        6475:                    GENLBL
3044 3301      6476:                    $33,1
3046 30        6477:                    $30
3047 2B        6478:                    FCC     '+'
3048 B1        6479:                    '1+$80
3049 2F        6480:                    $2F
  304A         6481: :122D              EQU     *




ASM/6800 1.3H4: 304A                    
08/16/82 00:00:00; Page 163; Form 1     
B2.ASM
304A 4015      6482:                    ((:1220-*)&$3FFF)+$4000
304C 0140      6483:                    NOSUBSCRIPTS
304E 8011      6484:                    ((:122F-*)&$3FFF)+$8000
3050 2305      6485:                    $23,SCALAR
3052 31        6486:                    $31
3053 0135      6487:                    ALLOCATESCALAR
3055 2F        6488:                    $2F
3056 019C      6489:                    OPINP
3058 2F        6490:                    $2F
3059 0142      6491:                    OPSSCALAR
305B 38        6492:                    $38
305C 01        6493:                    +:1230-*-1
305D 01        6494:                    +1
  305E         6495: :1230              EQU     *
305E 2C        6496:                    $2C
  305F         6497: :122F              EQU     *
  305F         6498: :1220              EQU     *
305F 2C        6499:                    $2C
  3060         6500: :121D              EQU     *
3060 2A        6501:                    $2A
3061 3E13E2    6502:                    $3E,#LEN
3064 8011      6503:                    ((:1231-*)&$3FFF)+$8000
3066 21        6504:                    $21
               6505:                    FCC     ''
3067 A8        6506:                    '(+$80
3068 2C        6507:                    $2C
3069 0155      6508:                    DEFSID
306B 2C        6509:                    $2C
306C 21        6510:                    $21
               6511:                    FCC     ''
306D A9        6512:                    ')+$80
306E 2C        6513:                    $2C
306F 019C      6514:                    OPINP
3071 2F        6515:                    $2F
3072 0156      6516:                    OPSSL
3074 2F        6517:                    $2F
  3075         6518: :1231              EQU     *
3075 2A        6519:                    $2A
3076 3E14B4    6520:                    $3E,#RND
3079 8008      6521:                    ((:1232-*)&$3FFF)+$8000




ASM/6800 1.3H4: 307B                    
08/16/82 00:00:00; Page 164; Form 1     
B2.ASM
307B 019C      6522:                    OPINP
307D 2F        6523:                    $2F
307E 0157      6524:                    OPSETSEED
3080 2F        6525:                    $2F
  3081         6526: :1232              EQU     *
3081 29        6527:                    $29
  3082         6528: .                  SET     *
  0D6D         6529:                    ORG     PRINTSTMT*2+.SA
0D6D 3082      6530:                    #.
  3082         6531:                    ORG     .
3082 0182      6532:                    CHNL
3084 8030      6533:                    ((:1233-*)&$3FFF)+$8000
3086 0188      6534:                    SETPOSITION
3088 8018      6535:                    ((:1234-*)&$3FFF)+$8000
308A 21        6536:                    $21
               6537:                    FCC     ''
308B AC        6538:                    ',+$80
308C 8009      6539:                    ((:1235-*)&$3FFF)+$8000
  019D         6540: USINGPART          EQU     .SC
  019E         6541: .SC                SET     .SC+1
308E 019D      6542:                    USINGPART
3090 4004      6543:                    ((:1236-*)&$3FFF)+$4000
  019E         6544: PRINTLIST          EQU     .SC
  019F         6545: .SC                SET     .SC+1
3092 019E      6546:                    PRINTLIST
  3094         6547: :1236              EQU     *
3094 2C        6548:                    $2C
  3095         6549: :1235              EQU     *
3095 400A      6550:                    ((:1237-*)&$3FFF)+$4000
3097 21        6551:                    $21
               6552:                    FCC     ''
3098 BB        6553:                    ';+$80
3099 4006      6554:                    ((:1237-*)&$3FFF)+$4000
309B 34        6555:                    $34
  019F         6556: OPPCR              EQU     .SC
  01A0         6557: .SC                SET     .SC+1
309C 019F      6558:                    OPPCR
309E 2F        6559:                    $2F
  309F         6560: :1237              EQU     *
309F 2C        6561:                    $2C




ASM/6800 1.3H4: 309F                    
08/16/82 00:00:00; Page 165; Form 1     
B2.ASM
  30A0         6562: :1234              EQU     *
30A0 4013      6563:                    ((:1238-*)&$3FFF)+$4000
30A2 21        6564:                    $21
               6565:                    FCC     ''
30A3 AC        6566:                    ',+$80
30A4 8009      6567:                    ((:1239-*)&$3FFF)+$8000
30A6 019D      6568:                    USINGPART
30A8 4004      6569:                    ((:123A-*)&$3FFF)+$4000
30AA 019E      6570:                    PRINTLIST
  30AC         6571: :123A              EQU     *
30AC 2C        6572:                    $2C
  30AD         6573: :1239              EQU     *
30AD 4006      6574:                    ((:1238-*)&$3FFF)+$4000
30AF 34        6575:                    $34
30B0 019F      6576:                    OPPCR
30B2 2F        6577:                    $2F
  30B3         6578: :1238              EQU     *
30B3 2C        6579:                    $2C
  30B4         6580: :1233              EQU     *
30B4 2A        6581:                    $2A
30B5 34        6582:                    $34
30B6 018A      6583:                    OPZCHN
30B8 2F        6584:                    $2F
30B9 0188      6585:                    SETPOSITION
30BB 8018      6586:                    ((:123B-*)&$3FFF)+$8000
30BD 21        6587:                    $21
               6588:                    FCC     ''
30BE AC        6589:                    ',+$80
30BF 8009      6590:                    ((:123C-*)&$3FFF)+$8000
30C1 019D      6591:                    USINGPART
30C3 4004      6592:                    ((:123D-*)&$3FFF)+$4000
30C5 019E      6593:                    PRINTLIST
  30C7         6594: :123D              EQU     *
30C7 2C        6595:                    $2C
  30C8         6596: :123C              EQU     *
30C8 400A      6597:                    ((:123E-*)&$3FFF)+$4000
30CA 21        6598:                    $21
               6599:                    FCC     ''
30CB BB        6600:                    ';+$80
30CC 4006      6601:                    ((:123E-*)&$3FFF)+$4000




ASM/6800 1.3H4: 30CE                    
08/16/82 00:00:00; Page 166; Form 1     
B2.ASM
30CE 34        6602:                    $34
30CF 019F      6603:                    OPPCR
30D1 2F        6604:                    $2F
  30D2         6605: :123E              EQU     *
30D2 2C        6606:                    $2C
  30D3         6607: :123B              EQU     *
30D3 400E      6608:                    ((:123F-*)&$3FFF)+$4000
30D5 019D      6609:                    USINGPART
30D7 400A      6610:                    ((:123F-*)&$3FFF)+$4000
30D9 019E      6611:                    PRINTLIST
30DB 4006      6612:                    ((:123F-*)&$3FFF)+$4000
30DD 34        6613:                    $34
30DE 019F      6614:                    OPPCR
30E0 2F        6615:                    $2F
  30E1         6616: :123F              EQU     *
30E1 2C        6617:                    $2C
30E2 29        6618:                    $29
  30E3         6619: .                  SET     *
  0E85         6620:                    ORG     PRINTLIST*2+.SA
0E85 30E3      6621:                    #.
  30E3         6622:                    ORG     .
30E3 3E127A    6623:                    $3E,#TAB
30E6 8008      6624:                    ((:1240-*)&$3FFF)+$8000
  01A0         6625: TERMGIVINGNUMERIC  EQU     .SC
  01A1         6626: .SC                SET     .SC+1
30E8 01A0      6627:                    TERMGIVINGNUMERIC
30EA 2C        6628:                    $2C
  01A1         6629: OPTAB              EQU     .SC
  01A2         6630: .SC                SET     .SC+1
30EB 01A1      6631:                    OPTAB
30ED 2F        6632:                    $2F
  30EE         6633: :1240              EQU     *
30EE 4004      6634:                    ((:1241-*)&$3FFF)+$4000
30F0 0188      6635:                    SETPOSITION
  30F2         6636: :1241              EQU     *
30F2 800B      6637:                    ((:1242-*)&$3FFF)+$8000
30F4 21        6638:                    $21
               6639:                    FCC     ''
30F5 BB        6640:                    ';+$80
30F6 2C        6641:                    $2C




ASM/6800 1.3H4: 30F7                    
08/16/82 00:00:00; Page 167; Form 1     
B2.ASM
30F7 019E      6642:                    PRINTLIST
30F9 4003      6643:                    ((:1243-*)&$3FFF)+$4000
30FB 34        6644:                    $34
  30FC         6645: :1243              EQU     *
30FC 2C        6646:                    $2C
  30FD         6647: :1242              EQU     *
30FD 2A        6648:                    $2A
30FE 016E      6649:                    NUMORSTREXP
3100 8015      6650:                    ((:1244-*)&$3FFF)+$8000
3102 3B0101    6651:                    $3B,RESULT,NUMERICTYPE
3105 8005      6652:                    ((:1245-*)&$3FFF)+$8000
  01A2         6653: PRINTV             EQU     .SC
  01A3         6654: .SC                SET     .SC+1
3107 01A2      6655:                    PRINTV
3109 2C        6656:                    $2C
  310A         6657: :1245              EQU     *
310A 400A      6658:                    ((:1246-*)&$3FFF)+$4000
310C 3B0105    6659:                    $3B,RESULT,STRINGTYPE
310F 8005      6660:                    ((:1247-*)&$3FFF)+$8000
  01A3         6661: PRINTSTRING        EQU     .SC
  01A4         6662: .SC                SET     .SC+1
3111 01A3      6663:                    PRINTSTRING
3113 2C        6664:                    $2C
  3114         6665: :1247              EQU     *
  3114         6666: :1246              EQU     *
3114 2C        6667:                    $2C
  3115         6668: :1244              EQU     *
3115 29        6669:                    $29
  3116         6670: .                  SET     *
  0E59         6671:                    ORG     SETPOSITION*2+.SA
0E59 3116      6672:                    #.
  3116         6673:                    ORG     .
3116 21        6674:                    $21
               6675:                    FCC     ''
3117 C0        6676:                    '@+$80
3118 8007      6677:                    ((:1248-*)&$3FFF)+$8000
311A DA        6678:                    NUMEXP
311B 2C        6679:                    $2C
311C 0189      6680:                    OPRESTR
311E 2F        6681:                    $2F




ASM/6800 1.3H4: 311E                    
08/16/82 00:00:00; Page 168; Form 1     
B2.ASM
  311F         6682: :1248              EQU     *
311F 29        6683:                    $29
  3120         6684: .                  SET     *
  0E8F         6685:                    ORG     PRINTSTRING*2+.SA
0E8F 3120      6686:                    #.
  3120         6687:                    ORG     .
3120 0195      6688:                    OPPS
3122 2F        6689:                    $2F
3123 21        6690:                    $21
               6691:                    FCC     ''
3124 AC        6692:                    ',+$80
3125 800B      6693:                    ((:1249-*)&$3FFF)+$8000
  01A4         6694: OPTABCOL           EQU     .SC
  01A5         6695: .SC                SET     .SC+1
3127 01A4      6696:                    OPTABCOL
3129 2F        6697:                    $2F
312A 019E      6698:                    PRINTLIST
312C 4003      6699:                    ((:124A-*)&$3FFF)+$4000
312E 34        6700:                    $34
  312F         6701: :124A              EQU     *
312F 2C        6702:                    $2C
  3130         6703: :1249              EQU     *
3130 4012      6704:                    ((:124B-*)&$3FFF)+$4000
3132 21        6705:                    $21
               6706:                    FCC     ''
3133 BB        6707:                    ';+$80
3134 8008      6708:                    ((:124C-*)&$3FFF)+$8000
3136 019E      6709:                    PRINTLIST
3138 4003      6710:                    ((:124D-*)&$3FFF)+$4000
313A 34        6711:                    $34
  313B         6712: :124D              EQU     *
313B 2C        6713:                    $2C
  313C         6714: :124C              EQU     *
313C 4006      6715:                    ((:124B-*)&$3FFF)+$4000
313E 34        6716:                    $34
313F 019F      6717:                    OPPCR
3141 2F        6718:                    $2F
  3142         6719: :124B              EQU     *
3142 2C        6720:                    $2C
3143 29        6721:                    $29




ASM/6800 1.3H4: 3143                    
08/16/82 00:00:00; Page 169; Form 1     
B2.ASM
  3144         6722: .                  SET     *
  0E8D         6723:                    ORG     PRINTV*2+.SA
0E8D 3144      6724:                    #.
  3144         6725:                    ORG     .
  01A5         6726: OPPV               EQU     .SC
  01A6         6727: .SC                SET     .SC+1
3144 01A5      6728:                    OPPV
3146 2F        6729:                    $2F
3147 21        6730:                    $21
               6731:                    FCC     ''
3148 AC        6732:                    ',+$80
3149 800B      6733:                    ((:124E-*)&$3FFF)+$8000
314B 01A4      6734:                    OPTABCOL
314D 2F        6735:                    $2F
314E 019E      6736:                    PRINTLIST
3150 4003      6737:                    ((:124F-*)&$3FFF)+$4000
3152 34        6738:                    $34
  3153         6739: :124F              EQU     *
3153 2C        6740:                    $2C
  3154         6741: :124E              EQU     *
3154 4015      6742:                    ((:1250-*)&$3FFF)+$4000
3156 21        6743:                    $21
               6744:                    FCC     ''
3157 BB        6745:                    ';+$80
3158 800B      6746:                    ((:1251-*)&$3FFF)+$8000
  01A6         6747: OPPSP              EQU     .SC
  01A7         6748: .SC                SET     .SC+1
315A 01A6      6749:                    OPPSP
315C 2F        6750:                    $2F
315D 019E      6751:                    PRINTLIST
315F 4003      6752:                    ((:1252-*)&$3FFF)+$4000
3161 34        6753:                    $34
  3162         6754: :1252              EQU     *
3162 2C        6755:                    $2C
  3163         6756: :1251              EQU     *
3163 4006      6757:                    ((:1250-*)&$3FFF)+$4000
3165 34        6758:                    $34
3166 019F      6759:                    OPPCR
3168 2F        6760:                    $2F
  3169         6761: :1250              EQU     *




ASM/6800 1.3H4: 3169                    
08/16/82 00:00:00; Page 170; Form 1     
B2.ASM
3169 2C        6762:                    $2C
316A 29        6763:                    $29
  316B         6764: .                  SET     *
  0E83         6765:                    ORG     USINGPART*2+.SA
0E83 316B      6766:                    #.
  316B         6767:                    ORG     .
316B 3E1263    6768:                    $3E,#USING
316E 8035      6769:                    ((:1253-*)&$3FFF)+$8000
3170 DC        6770:                    STREXP
3171 8005      6771:                    ((:1254-*)&$3FFF)+$8000
  01A7         6772: OPUSE              EQU     .SC
  01A8         6773: .SC                SET     .SC+1
3173 01A7      6774:                    OPUSE
3175 2F        6775:                    $2F
  3176         6776: :1254              EQU     *
3176 4009      6777:                    ((:1255-*)&$3FFF)+$4000
3178 34        6778:                    $34
  01A8         6779: OPUSL              EQU     .SC
  01A9         6780: .SC                SET     .SC+1
3179 01A8      6781:                    OPUSL
317B 2F        6782:                    $2F
317C 015D      6783:                    TARGET
317E 2C        6784:                    $2C
  317F         6785: :1255              EQU     *
317F 2C        6786:                    $2C
3180 21        6787:                    $21
               6788:                    FCC     ''
3181 AC        6789:                    ',+$80
3182 800F      6790:                    ((:1256-*)&$3FFF)+$8000
  01A9         6791: USINGOBJECT        EQU     .SC
  01AA         6792: .SC                SET     .SC+1
3184 01A9      6793:                    USINGOBJECT
3186 2C        6794:                    $2C
  3187         6795: :1257              EQU     *
3187 21        6796:                    $21
               6797:                    FCC     ''
3188 AC        6798:                    ',+$80
3189 8005      6799:                    ((:1258-*)&$3FFF)+$8000
318B 01A9      6800:                    USINGOBJECT
318D 2C        6801:                    $2C




ASM/6800 1.3H4: 318D                    
08/16/82 00:00:00; Page 171; Form 1     
B2.ASM
  318E         6802: :1258              EQU     *
318E 7FF9      6803:                    ((:1257-*)&$3FFF)+$4000
3190 34        6804:                    $34
  3191         6805: :1256              EQU     *
3191 4003      6806:                    ((:1259-*)&$3FFF)+$4000
3193 34        6807:                    $34
  3194         6808: :1259              EQU     *
3194 2C        6809:                    $2C
3195 21        6810:                    $21
               6811:                    FCC     ''
3196 BB        6812:                    ';+$80
3197 8005      6813:                    ((:125A-*)&$3FFF)+$8000
  01AA         6814: OPPRUS             EQU     .SC
  01AB         6815: .SC                SET     .SC+1
3199 01AA      6816:                    OPPRUS
319B 2F        6817:                    $2F
  319C         6818: :125A              EQU     *
319C 4006      6819:                    ((:125B-*)&$3FFF)+$4000
319E 34        6820:                    $34
319F 019F      6821:                    OPPCR
31A1 2F        6822:                    $2F
  31A2         6823: :125B              EQU     *
31A2 2C        6824:                    $2C
  31A3         6825: :1253              EQU     *
31A3 29        6826:                    $29
  31A4         6827: .                  SET     *
  0E9B         6828:                    ORG     USINGOBJECT*2+.SA
0E9B 31A4      6829:                    #.
  31A4         6830:                    ORG     .
31A4 016E      6831:                    NUMORSTREXP
31A6 8015      6832:                    ((:125C-*)&$3FFF)+$8000
31A8 3B0101    6833:                    $3B,RESULT,NUMERICTYPE
31AB 8005      6834:                    ((:125D-*)&$3FFF)+$8000
31AD 01A5      6835:                    OPPV
31AF 2F        6836:                    $2F
  31B0         6837: :125D              EQU     *
31B0 400A      6838:                    ((:125E-*)&$3FFF)+$4000
31B2 3B0105    6839:                    $3B,RESULT,STRINGTYPE
31B5 8005      6840:                    ((:125F-*)&$3FFF)+$8000
31B7 0195      6841:                    OPPS




ASM/6800 1.3H4: 31B9                    
08/16/82 00:00:00; Page 172; Form 1     
B2.ASM
31B9 2F        6842:                    $2F
  31BA         6843: :125F              EQU     *
  31BA         6844: :125E              EQU     *
31BA 2C        6845:                    $2C
  31BB         6846: :125C              EQU     *
31BB 29        6847:                    $29
  31BC         6848: .                  SET     *
  0D79         6849:                    ORG     READSTMT*2+.SA
0D79 31BC      6850:                    #.
  31BC         6851:                    ORG     .
31BC 0192      6852:                    CHNLWOPTPOS
31BE 800F      6853:                    ((:1260-*)&$3FFF)+$8000
  01AB         6854: RDVAR              EQU     .SC
  01AC         6855: .SC                SET     .SC+1
31C0 01AB      6856:                    RDVAR
31C2 2C        6857:                    $2C
  31C3         6858: :1261              EQU     *
31C3 21        6859:                    $21
               6860:                    FCC     ''
31C4 AC        6861:                    ',+$80
31C5 8005      6862:                    ((:1262-*)&$3FFF)+$8000
31C7 01AB      6863:                    RDVAR
31C9 2C        6864:                    $2C
  31CA         6865: :1262              EQU     *
31CA 7FF9      6866:                    ((:1261-*)&$3FFF)+$4000
31CC 34        6867:                    $34
  31CD         6868: :1260              EQU     *
31CD 29        6869:                    $29
  31CE         6870: .                  SET     *
  0E9F         6871:                    ORG     RDVAR*2+.SA
0E9F 31CE      6872:                    #.
  31CE         6873:                    ORG     .
31CE 06        6874:                    +NID
31CF 80F3      6875:                    ((:1263-*)&$3FFF)+$8000
31D1 2705      6876:                    $27,SCALAR
31D3 800E      6877:                    ((:1264-*)&$3FFF)+$8000
31D5 0140      6878:                    NOSUBSCRIPTS
31D7 2C        6879:                    $2C
  01AC         6880: OPRV               EQU     .SC
  01AD         6881: .SC                SET     .SC+1




ASM/6800 1.3H4: 31D8                    
08/16/82 00:00:00; Page 173; Form 1     
B2.ASM
31D8 01AC      6882:                    OPRV
31DA 2F        6883:                    $2F
31DB 0142      6884:                    OPSSCALAR
31DD 38        6885:                    $38
31DE 01        6886:                    +:1265-*-1
31DF 01        6887:                    +1
  31E0         6888: :1265              EQU     *
31E0 2C        6889:                    $2C
  31E1         6890: :1264              EQU     *
31E1 40E0      6891:                    ((:1266-*)&$3FFF)+$4000
31E3 2708      6892:                    $27,POTENTIALLABEL
31E5 8019      6893:                    ((:1267-*)&$3FFF)+$8000
31E7 2508      6894:                    $25,POTENTIALLABEL
31E9 2C        6895:                    $2C
31EA 0140      6896:                    NOSUBSCRIPTS
31EC 2C        6897:                    $2C
31ED 31        6898:                    $31
31EE FD        6899:                    EQUDATA
31EF 2F        6900:                    $2F
31F0 FE        6901:                    RESDATA
31F1 30        6902:                    $30
               6903:                    FCC     ''
31F2 B6        6904:                    '6+$80
31F3 2F        6905:                    $2F
31F4 01AC      6906:                    OPRV
31F6 2F        6907:                    $2F
31F7 012F      6908:                    OPSTORE
31F9 2F        6909:                    $2F
31FA D6        6910:                    DADDR
31FB 3201      6911:                    $32,1
31FD 2F        6912:                    $2F
  31FE         6913: :1267              EQU     *
31FE 40C3      6914:                    ((:1266-*)&$3FFF)+$4000
3200 2709      6915:                    $27,COMMONSCALAR
3202 8027      6916:                    ((:1268-*)&$3FFF)+$8000
3204 2508      6917:                    $25,POTENTIALLABEL
3206 2C        6918:                    $2C
3207 0140      6919:                    NOSUBSCRIPTS
3209 2C        6920:                    $2C
320A 270D      6921:                    $27,PARAMETER




ASM/6800 1.3H4: 320C                    
08/16/82 00:00:00; Page 174; Form 1     
B2.ASM
320C 800F      6922:                    ((:1269-*)&$3FFF)+$8000
320E 0143      6923:                    OPLOAD
3210 2F        6924:                    $2F
3211 D6        6925:                    DADDR
3212 3201      6926:                    $32,1
3214 2F        6927:                    $2F
3215 01AC      6928:                    OPRV
3217 2F        6929:                    $2F
3218 0144      6930:                    OPST
321A 2F        6931:                    $2F
  321B         6932: :1269              EQU     *
321B 400D      6933:                    ((:126A-*)&$3FFF)+$4000
321D 34        6934:                    $34
321E 01AC      6935:                    OPRV
3220 2F        6936:                    $2F
3221 012F      6937:                    OPSTORE
3223 2F        6938:                    $2F
3224 D6        6939:                    DADDR
3225 3201      6940:                    $32,1
3227 2F        6941:                    $2F
  3228         6942: :126A              EQU     *
3228 2C        6943:                    $2C
  3229         6944: :1268              EQU     *
3229 4098      6945:                    ((:1266-*)&$3FFF)+$4000
322B 2701      6946:                    $27,VECTOR
322D 8025      6947:                    ((:126B-*)&$3FFF)+$8000
322F 0145      6948:                    ONESUBSCRIPT
3231 2C        6949:                    $2C
3232 28010D    6950:                    $28,1,PARAMETER
3235 800F      6951:                    ((:126C-*)&$3FFF)+$8000
3237 0146      6952:                    OPVPA
3239 2F        6953:                    $2F
323A D6        6954:                    DADDR
323B 3201      6955:                    $32,1
323D 2F        6956:                    $2F
323E 01AC      6957:                    OPRV
3240 2F        6958:                    $2F
3241 0144      6959:                    OPST
3243 2F        6960:                    $2F
  3244         6961: :126C              EQU     *




ASM/6800 1.3H4: 3244                    
08/16/82 00:00:00; Page 175; Form 1     
B2.ASM
3244 400D      6962:                    ((:126D-*)&$3FFF)+$4000
3246 34        6963:                    $34
3247 01AC      6964:                    OPRV
3249 2F        6965:                    $2F
324A 0147      6966:                    OPVSS
324C 2F        6967:                    $2F
324D D6        6968:                    DADDR
324E 3201      6969:                    $32,1
3250 2F        6970:                    $2F
  3251         6971: :126D              EQU     *
3251 2C        6972:                    $2C
  3252         6973: :126B              EQU     *
3252 406F      6974:                    ((:1266-*)&$3FFF)+$4000
3254 2702      6975:                    $27,ARRAY
3256 8025      6976:                    ((:126E-*)&$3FFF)+$8000
3258 0148      6977:                    TWOSUBSCRIPTS
325A 2C        6978:                    $2C
325B 28010D    6979:                    $28,1,PARAMETER
325E 800F      6980:                    ((:126F-*)&$3FFF)+$8000
3260 0149      6981:                    OPAPA
3262 2F        6982:                    $2F
3263 D6        6983:                    DADDR
3264 3201      6984:                    $32,1
3266 2F        6985:                    $2F
3267 01AC      6986:                    OPRV
3269 2F        6987:                    $2F
326A 0144      6988:                    OPST
326C 2F        6989:                    $2F
  326D         6990: :126F              EQU     *
326D 400D      6991:                    ((:1270-*)&$3FFF)+$4000
326F 34        6992:                    $34
3270 01AC      6993:                    OPRV
3272 2F        6994:                    $2F
3273 014A      6995:                    OPASS
3275 2F        6996:                    $2F
3276 D6        6997:                    DADDR
3277 3201      6998:                    $32,1
3279 2F        6999:                    $2F
  327A         7000: :1270              EQU     *
327A 2C        7001:                    $2C




ASM/6800 1.3H4: 327A                    
08/16/82 00:00:00; Page 176; Form 1     
B2.ASM
  327B         7002: :126E              EQU     *
327B 4046      7003:                    ((:1266-*)&$3FFF)+$4000
327D 2707      7004:                    $27,ISLABEL
327F 4004      7005:                    ((:1271-*)&$3FFF)+$4000
3281 2706      7006:                    $27,FREFLABEL
  3283         7007: :1271              EQU     *
3283 8005      7008:                    ((:1272-*)&$3FFF)+$8000
3285 010A      7009:                    CANTSTORELABEL
3287 2C        7010:                    $2C
  3288         7011: :1272              EQU     *
3288 4039      7012:                    ((:1266-*)&$3FFF)+$4000
328A 2703      7013:                    $27,FUNCTION
328C 8020      7014:                    ((:1273-*)&$3FFF)+$8000
328E 014B      7015:                    ARGUMENTLIST
3290 38        7016:                    $38
3291 80        7017:                    +:1274-*-1+$80
  3292         7018: :1274              EQU     *
3292 2C        7019:                    $2C
3293 01AC      7020:                    OPRV
3295 2F        7021:                    $2F
3296 0179      7022:                    PUSHPARAMTEMPADDR
3298 2F        7023:                    $2F
3299 014D      7024:                    OPCALL
329B 2F        7025:                    $2F
329C D4        7026:                    ADDR
329D 30        7027:                    $30
329E 5345      7028:                    FCC     'SE'
32A0 D4        7029:                    'T+$80
32A1 3201      7030:                    $32,1
32A3 2F        7031:                    $2F
32A4 D3        7032:                    BYTE
32A5 F9        7033:                    GENLBL
32A6 3301      7034:                    $33,1
32A8 30        7035:                    $30
32A9 2B        7036:                    FCC     '+'
32AA B1        7037:                    '1+$80
32AB 2F        7038:                    $2F
  32AC         7039: :1273              EQU     *
32AC 4015      7040:                    ((:1266-*)&$3FFF)+$4000
32AE 0140      7041:                    NOSUBSCRIPTS




ASM/6800 1.3H4: 32B0                    
08/16/82 00:00:00; Page 177; Form 1     
B2.ASM
32B0 8011      7042:                    ((:1275-*)&$3FFF)+$8000
32B2 2305      7043:                    $23,SCALAR
32B4 31        7044:                    $31
32B5 0135      7045:                    ALLOCATESCALAR
32B7 2F        7046:                    $2F
32B8 01AC      7047:                    OPRV
32BA 2F        7048:                    $2F
32BB 0142      7049:                    OPSSCALAR
32BD 38        7050:                    $38
32BE 01        7051:                    +:1276-*-1
32BF 01        7052:                    +1
  32C0         7053: :1276              EQU     *
32C0 2C        7054:                    $2C
  32C1         7055: :1275              EQU     *
  32C1         7056: :1266              EQU     *
32C1 2C        7057:                    $2C
  32C2         7058: :1263              EQU     *
32C2 2A        7059:                    $2A
32C3 07        7060:                    +SID
32C4 8075      7061:                    ((:1277-*)&$3FFF)+$8000
32C6 0150      7062:                    STRVARREF
32C8 38        7063:                    $38
32C9 01        7064:                    +:1278-*-1
32CA 01        7065:                    +1
  32CB         7066: :1278              EQU     *
32CB 802B      7067:                    ((:1279-*)&$3FFF)+$8000
32CD C1        7068:                    LB
32CE 8021      7069:                    ((:127A-*)&$3FFF)+$8000
32D0 DA        7070:                    NUMEXP
32D1 2C        7071:                    $2C
32D2 21        7072:                    $21
               7073:                    FCC     ''
32D3 AC        7074:                    ',+$80
32D4 800C      7075:                    ((:127B-*)&$3FFF)+$8000
32D6 DA        7076:                    NUMEXP
32D7 2C        7077:                    $2C
32D8 C2        7078:                    RB
32D9 2C        7079:                    $2C
32DA 0151      7080:                    OPSS2
32DC 2F        7081:                    $2F




ASM/6800 1.3H4: 32DC                    
08/16/82 00:00:00; Page 178; Form 1     
B2.ASM
  01AD         7082: OPRS               EQU     .SC
  01AE         7083: .SC                SET     .SC+1
32DD 01AD      7084:                    OPRS
32DF 2F        7085:                    $2F
  32E0         7086: :127B              EQU     *
32E0 400E      7087:                    ((:127C-*)&$3FFF)+$4000
32E2 C2        7088:                    RB
32E3 800B      7089:                    ((:127D-*)&$3FFF)+$8000
32E5 0152      7090:                    OPSS1
32E7 2F        7091:                    $2F
32E8 01AC      7092:                    OPRV
32EA 2F        7093:                    $2F
32EB 0153      7094:                    OPSTB
32ED 2F        7095:                    $2F
  32EE         7096: :127D              EQU     *
  32EE         7097: :127C              EQU     *
32EE 2C        7098:                    $2C
  32EF         7099: :127A              EQU     *
32EF 4006      7100:                    ((:127E-*)&$3FFF)+$4000
32F1 34        7101:                    $34
32F2 01AD      7102:                    OPRS
32F4 2F        7103:                    $2F
  32F5         7104: :127E              EQU     *
32F5 2C        7105:                    $2C
  32F6         7106: :1279              EQU     *
32F6 4042      7107:                    ((:127F-*)&$3FFF)+$4000
32F8 2704      7108:                    $27,STRINGFUNCTION
32FA 803A      7109:                    ((:1280-*)&$3FFF)+$8000
32FC 014B      7110:                    ARGUMENTLIST
32FE 38        7111:                    $38
32FF 80        7112:                    +:1281-*-1+$80
  3300         7113: :1281              EQU     *
3300 2C        7114:                    $2C
3301 2D        7115:                    $2D
3302 484F5720  7116:                    FCC     "HOW MUCH STRING SHOULD I READ?"
3320 BF        7117:                    '?+$80
3321 014D      7118:                    OPCALL
3323 2F        7119:                    $2F
3324 D4        7120:                    ADDR
3325 30        7121:                    $30




ASM/6800 1.3H4: 3326                    
08/16/82 00:00:00; Page 179; Form 1     
B2.ASM
3326 5345      7122:                    FCC     'SE'
3328 D4        7123:                    'T+$80
3329 3201      7124:                    $32,1
332B 2F        7125:                    $2F
332C D3        7126:                    BYTE
332D F9        7127:                    GENLBL
332E 3301      7128:                    $33,1
3330 30        7129:                    $30
3331 2B        7130:                    FCC     '+'
3332 B1        7131:                    '1+$80
3333 2F        7132:                    $2F
  3334         7133: :1280              EQU     *
3334 4004      7134:                    ((:127F-*)&$3FFF)+$4000
3336 010B      7135:                    UDFSID
  3338         7136: :127F              EQU     *
3338 2C        7137:                    $2C
  3339         7138: :1277              EQU     *
3339 2A        7139:                    $2A
333A 014E      7140:                    OBVIOUSSTRINGTARGET
333C 8005      7141:                    ((:1282-*)&$3FFF)+$8000
333E 01AD      7142:                    OPRS
3340 2F        7143:                    $2F
  3341         7144: :1282              EQU     *
3341 2A        7145:                    $2A
3342 3E13E2    7146:                    $3E,#LEN
3345 8011      7147:                    ((:1283-*)&$3FFF)+$8000
3347 21        7148:                    $21
               7149:                    FCC     ''
3348 A8        7150:                    '(+$80
3349 2C        7151:                    $2C
334A 0155      7152:                    DEFSID
334C 2C        7153:                    $2C
334D 21        7154:                    $21
               7155:                    FCC     ''
334E A9        7156:                    ')+$80
334F 2C        7157:                    $2C
3350 01AC      7158:                    OPRV
3352 2F        7159:                    $2F
3353 0156      7160:                    OPSSL
3355 2F        7161:                    $2F




ASM/6800 1.3H4: 3355                    
08/16/82 00:00:00; Page 180; Form 1     
B2.ASM
  3356         7162: :1283              EQU     *
3356 2A        7163:                    $2A
3357 3E14B4    7164:                    $3E,#RND
335A 8008      7165:                    ((:1284-*)&$3FFF)+$8000
335C 01AC      7166:                    OPRV
335E 2F        7167:                    $2F
335F 0157      7168:                    OPSETSEED
3361 2F        7169:                    $2F
  3362         7170: :1284              EQU     *
3362 29        7171:                    $29
  3363         7172: .                  SET     *
  0D7B         7173:                    ORG     WRITESTMT*2+.SA
0D7B 3363      7174:                    #.
  3363         7175:                    ORG     .
3363 0192      7176:                    CHNLWOPTPOS
3365 800F      7177:                    ((:1285-*)&$3FFF)+$8000
  01AE         7178: WRVAR              EQU     .SC
  01AF         7179: .SC                SET     .SC+1
3367 01AE      7180:                    WRVAR
3369 2C        7181:                    $2C
  336A         7182: :1286              EQU     *
336A 21        7183:                    $21
               7184:                    FCC     ''
336B AC        7185:                    ',+$80
336C 8005      7186:                    ((:1287-*)&$3FFF)+$8000
336E 01AE      7187:                    WRVAR
3370 2C        7188:                    $2C
  3371         7189: :1287              EQU     *
3371 7FF9      7190:                    ((:1286-*)&$3FFF)+$4000
3373 34        7191:                    $34
  3374         7192: :1285              EQU     *
3374 29        7193:                    $29
  3375         7194: .                  SET     *
  0EA5         7195:                    ORG     WRVAR*2+.SA
0EA5 3375      7196:                    #.
  3375         7197:                    ORG     .
3375 016E      7198:                    NUMORSTREXP
3377 8015      7199:                    ((:1288-*)&$3FFF)+$8000
3379 3B0101    7200:                    $3B,RESULT,NUMERICTYPE
337C 8005      7201:                    ((:1289-*)&$3FFF)+$8000




ASM/6800 1.3H4: 337C                    
08/16/82 00:00:00; Page 181; Form 1     
B2.ASM
  01AF         7202: OPWV               EQU     .SC
  01B0         7203: .SC                SET     .SC+1
337E 01AF      7204:                    OPWV
3380 2F        7205:                    $2F
  3381         7206: :1289              EQU     *
3381 400A      7207:                    ((:128A-*)&$3FFF)+$4000
3383 3B0105    7208:                    $3B,RESULT,STRINGTYPE
3386 8005      7209:                    ((:128B-*)&$3FFF)+$8000
  01B0         7210: OPWS               EQU     .SC
  01B1         7211: .SC                SET     .SC+1
3388 01B0      7212:                    OPWS
338A 2F        7213:                    $2F
  338B         7214: :128B              EQU     *
  338B         7215: :128A              EQU     *
338B 2C        7216:                    $2C
  338C         7217: :1288              EQU     *
338C 29        7218:                    $29
  338D         7219: .                  SET     *
  0D2D         7220:                    ORG     WHILESTMT*2+.SA
0D2D 338D      7221:                    #.
  338D         7222:                    ORG     .
338D F9        7223:                    GENLBL
338E 3301      7224:                    $33,1
3390 D2        7225:                    EQUHERE
3391 2F        7226:                    $2F
3392 0163      7227:                    CONDITION
3394 2C        7228:                    $2C
3395 3E12CD    7229:                    $3E,#DO
3398 2C        7230:                    $2C
3399 0164      7231:                    OPBF
339B 2F        7232:                    $2F
339C D4        7233:                    ADDR
339D F9        7234:                    GENLBL
339E 3302      7235:                    $33,2
33A0 2F        7236:                    $2F
33A1 EA        7237:                    CLAUSE
33A2 8005      7238:                    ((:128C-*)&$3FFF)+$8000
  01B1         7239: OPTEND             EQU     .SC
  01B2         7240: .SC                SET     .SC+1
33A4 01B1      7241:                    OPTEND




ASM/6800 1.3H4: 33A6                    
08/16/82 00:00:00; Page 182; Form 1     
B2.ASM
33A6 2C        7242:                    $2C
  33A7         7243: :128C              EQU     *
33A7 4008      7244:                    ((:128D-*)&$3FFF)+$4000
33A9 E0        7245:                    ENDOFLINE
33AA 8005      7246:                    ((:128E-*)&$3FFF)+$8000
  01B2         7247: DOBLOCK            EQU     .SC
  01B3         7248: .SC                SET     .SC+1
33AC 01B2      7249:                    DOBLOCK
33AE 2C        7250:                    $2C
  33AF         7251: :128E              EQU     *
  33AF         7252: :128D              EQU     *
33AF 2C        7253:                    $2C
33B0 F8        7254:                    OPJMP
33B1 2F        7255:                    $2F
33B2 D4        7256:                    ADDR
33B3 F9        7257:                    GENLBL
33B4 3301      7258:                    $33,1
33B6 2F        7259:                    $2F
33B7 F9        7260:                    GENLBL
33B8 3302      7261:                    $33,2
33BA D2        7262:                    EQUHERE
33BB 2F        7263:                    $2F
33BC 29        7264:                    $29
  33BD         7265: .                  SET     *
  0D2F         7266:                    ORG     UNTILSTMT*2+.SA
0D2F 33BD      7267:                    #.
  33BD         7268:                    ORG     .
33BD F9        7269:                    GENLBL
33BE 3301      7270:                    $33,1
33C0 D2        7271:                    EQUHERE
33C1 2F        7272:                    $2F
33C2 0163      7273:                    CONDITION
33C4 2C        7274:                    $2C
33C5 3E12CD    7275:                    $3E,#DO
33C8 2C        7276:                    $2C
33C9 0165      7277:                    OPBT
33CB 2F        7278:                    $2F
33CC D4        7279:                    ADDR
33CD F9        7280:                    GENLBL
33CE 3302      7281:                    $33,2




ASM/6800 1.3H4: 33D0                    
08/16/82 00:00:00; Page 183; Form 1     
B2.ASM
33D0 2F        7282:                    $2F
33D1 EA        7283:                    CLAUSE
33D2 8005      7284:                    ((:128F-*)&$3FFF)+$8000
33D4 01B1      7285:                    OPTEND
33D6 2C        7286:                    $2C
  33D7         7287: :128F              EQU     *
33D7 4008      7288:                    ((:1290-*)&$3FFF)+$4000
33D9 E0        7289:                    ENDOFLINE
33DA 8005      7290:                    ((:1291-*)&$3FFF)+$8000
33DC 01B2      7291:                    DOBLOCK
33DE 2C        7292:                    $2C
  33DF         7293: :1291              EQU     *
  33DF         7294: :1290              EQU     *
33DF 2C        7295:                    $2C
33E0 F8        7296:                    OPJMP
33E1 2F        7297:                    $2F
33E2 D4        7298:                    ADDR
33E3 F9        7299:                    GENLBL
33E4 3301      7300:                    $33,1
33E6 2F        7301:                    $2F
33E7 F9        7302:                    GENLBL
33E8 3302      7303:                    $33,2
33EA D2        7304:                    EQUHERE
33EB 2F        7305:                    $2F
33EC 29        7306:                    $29
  33ED         7307: .                  SET     *
  0D31         7308:                    ORG     DOSTMT*2+.SA
0D31 33ED      7309:                    #.
  33ED         7310:                    ORG     .
33ED EA        7311:                    CLAUSE
33EE 8005      7312:                    ((:1292-*)&$3FFF)+$8000
33F0 01B1      7313:                    OPTEND
33F2 2C        7314:                    $2C
  33F3         7315: :1292              EQU     *
33F3 2A        7316:                    $2A
33F4 E0        7317:                    ENDOFLINE
33F5 8005      7318:                    ((:1293-*)&$3FFF)+$8000
33F7 01B2      7319:                    DOBLOCK
33F9 2C        7320:                    $2C
  33FA         7321: :1293              EQU     *




ASM/6800 1.3H4: 33FA                    
08/16/82 00:00:00; Page 184; Form 1     
B2.ASM
33FA 29        7322:                    $29
  33FB         7323: .                  SET     *
  0EAD         7324:                    ORG     DOBLOCK*2+.SA
0EAD 33FB      7325:                    #.
  33FB         7326:                    ORG     .
33FB E3        7327:                    LINELABEL
33FC 802C      7328:                    ((:1294-*)&$3FFF)+$8000
33FE E4        7329:                    LABELLEDBLOCK
33FF 38        7330:                    $38
3400 01        7331:                    +:1295-*-1
3401 01        7332:                    +1
  3402         7333: :1295              EQU     *
3402 8009      7334:                    ((:1296-*)&$3FFF)+$8000
3404 E5        7335:                    RESTOFCLAUSE
3405 2C        7336:                    $2C
3406 E0        7337:                    ENDOFLINE
3407 2C        7338:                    $2C
3408 01B2      7339:                    DOBLOCK
340A 2C        7340:                    $2C
  340B         7341: :1296              EQU     *
340B 401C      7342:                    ((:1297-*)&$3FFF)+$4000
340D EE        7343:                    EXECUTABLELINE
340E 8005      7344:                    ((:1298-*)&$3FFF)+$8000
3410 01B2      7345:                    DOBLOCK
3412 2C        7346:                    $2C
  3413         7347: :1298              EQU     *
3413 4014      7348:                    ((:1297-*)&$3FFF)+$4000
3415 E7        7349:                    FORMATLINE
3416 8005      7350:                    ((:1299-*)&$3FFF)+$8000
3418 01B2      7351:                    DOBLOCK
341A 2C        7352:                    $2C
  341B         7353: :1299              EQU     *
341B 400C      7354:                    ((:1297-*)&$3FFF)+$4000
341D E0        7355:                    ENDOFLINE
341E 8005      7356:                    ((:129A-*)&$3FFF)+$8000
3420 01B2      7357:                    DOBLOCK
3422 2C        7358:                    $2C
  3423         7359: :129A              EQU     *
3423 4004      7360:                    ((:1297-*)&$3FFF)+$4000
3425 0180      7361:                    MUSTBEEND




ASM/6800 1.3H4: 3425                    
08/16/82 00:00:00; Page 185; Form 1     
B2.ASM
  3427         7362: :1297              EQU     *
3427 2C        7363:                    $2C
  3428         7364: :1294              EQU     *
3428 2A        7365:                    $2A
3429 EE        7366:                    EXECUTABLELINE
342A 8005      7367:                    ((:129B-*)&$3FFF)+$8000
342C 01B2      7368:                    DOBLOCK
342E 2C        7369:                    $2C
  342F         7370: :129B              EQU     *
342F 2A        7371:                    $2A
3430 C6        7372:                    INCLUDESTMT
3431 8005      7373:                    ((:129C-*)&$3FFF)+$8000
3433 01B2      7374:                    DOBLOCK
3435 2C        7375:                    $2C
  3436         7376: :129C              EQU     *
3436 2A        7377:                    $2A
3437 0180      7378:                    MUSTBEEND
3439 29        7379:                    $29
  343A         7380: .                  SET     *
  0E49         7381:                    ORG     MUSTBEEND*2+.SA
0E49 343A      7382:                    #.
  343A         7383:                    ORG     .
343A 3E12D5    7384:                    $3E,#END
343D 2A        7385:                    $2A
343E 2D        7386:                    $2D
343F 4D697373  7387:                    FCC     "Missing Block EN"
344F C4        7388:                    'D+$80
3450 29        7389:                    $29
  3451         7390: .                  SET     *
  0D2B         7391:                    ORG     REPEATSTMT*2+.SA
0D2B 3451      7392:                    #.
  3451         7393:                    ORG     .
3451 F9        7394:                    GENLBL
3452 3301      7395:                    $33,1
3454 D2        7396:                    EQUHERE
3455 2F        7397:                    $2F
3456 EA        7398:                    CLAUSE
3457 4008      7399:                    ((:129D-*)&$3FFF)+$4000
3459 E0        7400:                    ENDOFLINE
345A 8005      7401:                    ((:129E-*)&$3FFF)+$8000




ASM/6800 1.3H4: 345A                    
08/16/82 00:00:00; Page 186; Form 1     
B2.ASM
  01B3         7402: REPEATBLOCK        EQU     .SC
  01B4         7403: .SC                SET     .SC+1
345C 01B3      7404:                    REPEATBLOCK
345E 2C        7405:                    $2C
  345F         7406: :129E              EQU     *
  345F         7407: :129D              EQU     *
345F 2C        7408:                    $2C
3460 3E12EA    7409:                    $3E,#UNLESS
3463 800B      7410:                    ((:129F-*)&$3FFF)+$8000
3465 0163      7411:                    CONDITION
3467 2C        7412:                    $2C
3468 0164      7413:                    OPBF
346A 2F        7414:                    $2F
346B 01B1      7415:                    OPTEND
346D 2C        7416:                    $2C
  346E         7417: :129F              EQU     *
346E 4018      7418:                    ((:12A0-*)&$3FFF)+$4000
3470 3E12F6    7419:                    $3E,#WHEN
3473 800B      7420:                    ((:12A1-*)&$3FFF)+$8000
3475 0163      7421:                    CONDITION
3477 2C        7422:                    $2C
3478 0165      7423:                    OPBT
347A 2F        7424:                    $2F
347B 01B1      7425:                    OPTEND
347D 2C        7426:                    $2C
  347E         7427: :12A1              EQU     *
347E 4008      7428:                    ((:12A0-*)&$3FFF)+$4000
3480 01B1      7429:                    OPTEND
3482 8004      7430:                    ((:12A2-*)&$3FFF)+$8000
3484 F8        7431:                    OPJMP
3485 2F        7432:                    $2F
  3486         7433: :12A2              EQU     *
  3486         7434: :12A0              EQU     *
3486 2C        7435:                    $2C
3487 D4        7436:                    ADDR
3488 F9        7437:                    GENLBL
3489 3301      7438:                    $33,1
348B 2F        7439:                    $2F
348C 29        7440:                    $29
  348D         7441: .                  SET     *




ASM/6800 1.3H4: 348C                    
08/16/82 00:00:00; Page 187; Form 1     
B2.ASM
  0EAF         7442:                    ORG     REPEATBLOCK*2+.SA
0EAF 348D      7443:                    #.
  348D         7444:                    ORG     .
348D E3        7445:                    LINELABEL
348E 802B      7446:                    ((:12A3-*)&$3FFF)+$8000
3490 E4        7447:                    LABELLEDBLOCK
3491 38        7448:                    $38
3492 01        7449:                    +:12A4-*-1
3493 01        7450:                    +1
  3494         7451: :12A4              EQU     *
3494 8009      7452:                    ((:12A5-*)&$3FFF)+$8000
3496 E5        7453:                    RESTOFCLAUSE
3497 2C        7454:                    $2C
3498 E0        7455:                    ENDOFLINE
3499 2C        7456:                    $2C
349A 01B3      7457:                    REPEATBLOCK
349C 2C        7458:                    $2C
  349D         7459: :12A5              EQU     *
349D 401B      7460:                    ((:12A6-*)&$3FFF)+$4000
349F EE        7461:                    EXECUTABLELINE
34A0 8005      7462:                    ((:12A7-*)&$3FFF)+$8000
34A2 01B3      7463:                    REPEATBLOCK
34A4 2C        7464:                    $2C
  34A5         7465: :12A7              EQU     *
34A5 4013      7466:                    ((:12A6-*)&$3FFF)+$4000
34A7 E7        7467:                    FORMATLINE
34A8 8005      7468:                    ((:12A8-*)&$3FFF)+$8000
34AA 01B3      7469:                    REPEATBLOCK
34AC 2C        7470:                    $2C
  34AD         7471: :12A8              EQU     *
34AD 400B      7472:                    ((:12A6-*)&$3FFF)+$4000
34AF E0        7473:                    ENDOFLINE
34B0 8005      7474:                    ((:12A9-*)&$3FFF)+$8000
34B2 01B3      7475:                    REPEATBLOCK
34B4 2C        7476:                    $2C
  34B5         7477: :12A9              EQU     *
34B5 4003      7478:                    ((:12A6-*)&$3FFF)+$4000
34B7 34        7479:                    $34
  34B8         7480: :12A6              EQU     *
34B8 2C        7481:                    $2C




ASM/6800 1.3H4: 34B8                    
08/16/82 00:00:00; Page 188; Form 1     
B2.ASM
  34B9         7482: :12A3              EQU     *
34B9 2A        7483:                    $2A
34BA EE        7484:                    EXECUTABLELINE
34BB 8005      7485:                    ((:12AA-*)&$3FFF)+$8000
34BD 01B3      7486:                    REPEATBLOCK
34BF 2C        7487:                    $2C
  34C0         7488: :12AA              EQU     *
34C0 2A        7489:                    $2A
34C1 C6        7490:                    INCLUDESTMT
34C2 8005      7491:                    ((:12AB-*)&$3FFF)+$8000
34C4 01B3      7492:                    REPEATBLOCK
34C6 2C        7493:                    $2C
  34C7         7494: :12AB              EQU     *
34C7 2A        7495:                    $2A
34C8 34        7496:                    $34
34C9 29        7497:                    $29
  34CA         7498: .                  SET     *
  0EAB         7499:                    ORG     OPTEND*2+.SA
0EAB 34CA      7500:                    #.
  34CA         7501:                    ORG     .
34CA 3E12D5    7502:                    $3E,#END
34CD 2A        7503:                    $2A
34CE 34        7504:                    $34
34CF 29        7505:                    $29
  34D0         7506: .                  SET     *
  0D27         7507:                    ORG     IFSTMT*2+.SA
0D27 34D0      7508:                    #.
  34D0         7509:                    ORG     .
34D0 3E11E1    7510:                    $3E,#ERROR
34D3 8070      7511:                    ((:12AC-*)&$3FFF)+$8000
34D5 3E12F6    7512:                    $3E,#WHEN
34D8 2C        7513:                    $2C
34D9 0171      7514:                    OPTRP
34DB 2F        7515:                    $2F
34DC D4        7516:                    ADDR
34DD F9        7517:                    GENLBL
34DE 3303      7518:                    $33,3
34E0 2F        7519:                    $2F
34E1 EA        7520:                    CLAUSE
34E2 8004      7521:                    ((:12AD-*)&$3FFF)+$8000




ASM/6800 1.3H4: 34E4                    
08/16/82 00:00:00; Page 189; Form 1     
B2.ASM
34E4 C3        7522:                    OPTENDOFLINE
34E5 2C        7523:                    $2C
  34E6         7524: :12AD              EQU     *
34E6 4008      7525:                    ((:12AE-*)&$3FFF)+$4000
34E8 E0        7526:                    ENDOFLINE
34E9 8005      7527:                    ((:12AF-*)&$3FFF)+$8000
34EB 01B3      7528:                    REPEATBLOCK
34ED 2C        7529:                    $2C
  34EE         7530: :12AF              EQU     *
  34EE         7531: :12AE              EQU     *
34EE 2C        7532:                    $2C
34EF 0171      7533:                    OPTRP
34F1 2F        7534:                    $2F
34F2 D4        7535:                    ADDR
34F3 30        7536:                    $30
               7537:                    FCC     ''
34F4 B0        7538:                    '0+$80
34F5 2F        7539:                    $2F
34F6 F8        7540:                    OPJMP
34F7 2F        7541:                    $2F
34F8 D4        7542:                    ADDR
34F9 F9        7543:                    GENLBL
34FA 3301      7544:                    $33,1
34FC 2F        7545:                    $2F
34FD 3E1308    7546:                    $3E,#THEN
3500 2C        7547:                    $2C
3501 F9        7548:                    GENLBL
3502 3303      7549:                    $33,3
3504 0171      7550:                    OPTRP
3506 2F        7551:                    $2F
3507 D4        7552:                    ADDR
3508 30        7553:                    $30
               7554:                    FCC     ''
3509 B0        7555:                    '0+$80
350A 2F        7556:                    $2F
350B F6        7557:                    LINENUM
350C 4004      7558:                    ((:12B0-*)&$3FFF)+$4000
  01B4         7559: THENELSELABELCHECK EQU     .SC
  01B5         7560: .SC                SET     .SC+1
350E 01B4      7561:                    THENELSELABELCHECK




ASM/6800 1.3H4: 350E                    
08/16/82 00:00:00; Page 190; Form 1     
B2.ASM
  3510         7562: :12B0              EQU     *
3510 8010      7563:                    ((:12B1-*)&$3FFF)+$8000
3512 F8        7564:                    OPJMP
3513 2F        7565:                    $2F
3514 D4        7566:                    ADDR
3515 FA        7567:                    LABEL
3516 31        7568:                    $31
3517 2F        7569:                    $2F
3518 F9        7570:                    GENLBL
3519 3301      7571:                    $33,1
351B D2        7572:                    EQUHERE
351C 2F        7573:                    $2F
  01B5         7574: UNCONDELSE         EQU     .SC
  01B6         7575: .SC                SET     .SC+1
351D 01B5      7576:                    UNCONDELSE
351F 2C        7577:                    $2C
  3520         7578: :12B1              EQU     *
3520 4022      7579:                    ((:12B2-*)&$3FFF)+$4000
3522 3E11F6    7580:                    $3E,#ELN
3525 800D      7581:                    ((:12B3-*)&$3FFF)+$8000
3527 015C      7582:                    OPGOELN
3529 2F        7583:                    $2F
352A F9        7584:                    GENLBL
352B 3301      7585:                    $33,1
352D D2        7586:                    EQUHERE
352E 2F        7587:                    $2F
352F 01B5      7588:                    UNCONDELSE
3531 2C        7589:                    $2C
  3532         7590: :12B3              EQU     *
3532 4010      7591:                    ((:12B2-*)&$3FFF)+$4000
3534 E0        7592:                    ENDOFLINE
3535 8007      7593:                    ((:12B4-*)&$3FFF)+$8000
  01B6         7594: IFBLOCK            EQU     .SC
  01B7         7595: .SC                SET     .SC+1
3537 01B6      7596:                    IFBLOCK
3539 38        7597:                    $38
353A 80        7598:                    +:12B5-*-1+$80
  353B         7599: :12B5              EQU     *
353B 2C        7600:                    $2C
  353C         7601: :12B4              EQU     *




ASM/6800 1.3H4: 353C                    
08/16/82 00:00:00; Page 191; Form 1     
B2.ASM
353C 4006      7602:                    ((:12B2-*)&$3FFF)+$4000
  01B7         7603: IFCLAUSE           EQU     .SC
  01B8         7604: .SC                SET     .SC+1
353E 01B7      7605:                    IFCLAUSE
3540 38        7606:                    $38
3541 80        7607:                    +:12B6-*-1+$80
  3542         7608: :12B6              EQU     *
  3542         7609: :12B2              EQU     *
3542 2C        7610:                    $2C
  3543         7611: :12AC              EQU     *
3543 2A        7612:                    $2A
3544 0163      7613:                    CONDITION
3546 8056      7614:                    ((:12B7-*)&$3FFF)+$8000
3548 C3        7615:                    OPTENDOFLINE
3549 2C        7616:                    $2C
354A 3E1308    7617:                    $3E,#THEN
354D 2C        7618:                    $2C
354E F6        7619:                    LINENUM
354F 4004      7620:                    ((:12B8-*)&$3FFF)+$4000
3551 01B4      7621:                    THENELSELABELCHECK
  3553         7622: :12B8              EQU     *
3553 800C      7623:                    ((:12B9-*)&$3FFF)+$8000
3555 0165      7624:                    OPBT
3557 2F        7625:                    $2F
3558 D4        7626:                    ADDR
3559 FA        7627:                    LABEL
355A 31        7628:                    $31
355B 2F        7629:                    $2F
355C 01B5      7630:                    UNCONDELSE
355E 2C        7631:                    $2C
  355F         7632: :12B9              EQU     *
355F 403C      7633:                    ((:12BA-*)&$3FFF)+$4000
3561 3E11F6    7634:                    $3E,#ELN
3564 8015      7635:                    ((:12BB-*)&$3FFF)+$8000
3566 0164      7636:                    OPBF
3568 2F        7637:                    $2F
3569 D4        7638:                    ADDR
356A F9        7639:                    GENLBL
356B 3301      7640:                    $33,1
356D 2F        7641:                    $2F




ASM/6800 1.3H4: 356E                    
08/16/82 00:00:00; Page 192; Form 1     
B2.ASM
356E 015C      7642:                    OPGOELN
3570 2F        7643:                    $2F
3571 F9        7644:                    GENLBL
3572 3301      7645:                    $33,1
3574 D2        7646:                    EQUHERE
3575 2F        7647:                    $2F
3576 01B5      7648:                    UNCONDELSE
3578 2C        7649:                    $2C
  3579         7650: :12BB              EQU     *
3579 4022      7651:                    ((:12BA-*)&$3FFF)+$4000
357B E0        7652:                    ENDOFLINE
357C 800F      7653:                    ((:12BC-*)&$3FFF)+$8000
357E 0164      7654:                    OPBF
3580 2F        7655:                    $2F
3581 D4        7656:                    ADDR
3582 F9        7657:                    GENLBL
3583 3301      7658:                    $33,1
3585 2F        7659:                    $2F
3586 01B6      7660:                    IFBLOCK
3588 38        7661:                    $38
3589 80        7662:                    +:12BD-*-1+$80
  358A         7663: :12BD              EQU     *
358A 2C        7664:                    $2C
  358B         7665: :12BC              EQU     *
358B 4010      7666:                    ((:12BA-*)&$3FFF)+$4000
358D 34        7667:                    $34
358E 0164      7668:                    OPBF
3590 2F        7669:                    $2F
3591 D4        7670:                    ADDR
3592 F9        7671:                    GENLBL
3593 3301      7672:                    $33,1
3595 2F        7673:                    $2F
3596 01B7      7674:                    IFCLAUSE
3598 38        7675:                    $38
3599 80        7676:                    +:12BE-*-1+$80
  359A         7677: :12BE              EQU     *
359A 2C        7678:                    $2C
  359B         7679: :12BA              EQU     *
359B 2C        7680:                    $2C
  359C         7681: :12B7              EQU     *




ASM/6800 1.3H4: 359C                    
08/16/82 00:00:00; Page 193; Form 1     
B2.ASM
359C 29        7682:                    $29
  359D         7683: .                  SET     *
  0EB1         7684:                    ORG     THENELSELABELCHECK*2+.SA
0EB1 359D      7685:                    #.
  359D         7686:                    ORG     .
359D 11        7687:                    +THENELSELABEL
359E 8071      7688:                    ((:12BF-*)&$3FFF)+$8000
35A0 2707      7689:                    $27,ISLABEL
35A2 406C      7690:                    ((:12C0-*)&$3FFF)+$4000
35A4 2706      7691:                    $27,FREFLABEL
35A6 4068      7692:                    ((:12C0-*)&$3FFF)+$4000
35A8 2708      7693:                    $27,POTENTIALLABEL
35AA 8005      7694:                    ((:12C1-*)&$3FFF)+$8000
35AC 2509      7695:                    $25,COMMONSCALAR
35AE 2C        7696:                    $2C
  35AF         7697: :12C1              EQU     *
35AF 405F      7698:                    ((:12C0-*)&$3FFF)+$4000
35B1 2705      7699:                    $27,SCALAR
35B3 4010      7700:                    ((:12C2-*)&$3FFF)+$4000
35B5 2709      7701:                    $27,COMMONSCALAR
35B7 400C      7702:                    ((:12C2-*)&$3FFF)+$4000
35B9 2701      7703:                    $27,VECTOR
35BB 4008      7704:                    ((:12C2-*)&$3FFF)+$4000
35BD 2702      7705:                    $27,ARRAY
35BF 4004      7706:                    ((:12C2-*)&$3FFF)+$4000
35C1 270F      7707:                    $27,STRARRAY
  35C3         7708: :12C2              EQU     *
35C3 8005      7709:                    ((:12C3-*)&$3FFF)+$8000
35C5 010D      7710:                    VARUSEDASLABEL
35C7 2C        7711:                    $2C
  35C8         7712: :12C3              EQU     *
35C8 4046      7713:                    ((:12C0-*)&$3FFF)+$4000
35CA 270C      7714:                    $27,TYPESUBROUTINE
35CC 400C      7715:                    ((:12C4-*)&$3FFF)+$4000
35CE 270E      7716:                    $27,FREFSUBROUTINE
35D0 4008      7717:                    ((:12C4-*)&$3FFF)+$4000
35D2 2703      7718:                    $27,FUNCTION
35D4 4004      7719:                    ((:12C4-*)&$3FFF)+$4000
35D6 2704      7720:                    $27,STRINGFUNCTION
  35D8         7721: :12C4              EQU     *




ASM/6800 1.3H4: 35D8                    
08/16/82 00:00:00; Page 194; Form 1     
B2.ASM
35D8 8031      7722:                    ((:12C5-*)&$3FFF)+$8000
35DA 2D        7723:                    $2D
35DB 43616E27  7724:                    FCC     "Can't use function or subroutine name as labe"
3608 EC        7725:                    'l+$80
  3609         7726: :12C5              EQU     *
3609 4005      7727:                    ((:12C0-*)&$3FFF)+$4000
360B 34        7728:                    $34
360C 2306      7729:                    $23,FREFLABEL
  360E         7730: :12C0              EQU     *
360E 2C        7731:                    $2C
  360F         7732: :12BF              EQU     *
360F 29        7733:                    $29
  3610         7734: .                  SET     *
  0EB5         7735:                    ORG     IFBLOCK*2+.SA
0EB5 3610      7736:                    #.
  3610         7737:                    ORG     .
3610 01B3      7738:                    REPEATBLOCK
3612 8033      7739:                    ((:12C6-*)&$3FFF)+$8000
3614 3E1312    7740:                    $3E,#ELSE
3617 800F      7741:                    ((:12C7-*)&$3FFF)+$8000
  01B8         7742: ELSEJMP            EQU     .SC
  01B9         7743: .SC                SET     .SC+1
3619 01B8      7744:                    ELSEJMP
361B 38        7745:                    $38
361C 80        7746:                    +:12C8-*-1+$80
  361D         7747: :12C8              EQU     *
361D 2F        7748:                    $2F
  01B9         7749: ELSEBODY           EQU     .SC
  01BA         7750: .SC                SET     .SC+1
361E 01B9      7751:                    ELSEBODY
3620 2C        7752:                    $2C
3621 F9        7753:                    GENLBL
3622 3302      7754:                    $33,2
3624 D2        7755:                    EQUHERE
3625 2F        7756:                    $2F
  3626         7757: :12C7              EQU     *
3626 401E      7758:                    ((:12C9-*)&$3FFF)+$4000
3628 3E131C    7759:                    $3E,#ELSEIF
362B 800E      7760:                    ((:12CA-*)&$3FFF)+$8000
362D 01B8      7761:                    ELSEJMP




ASM/6800 1.3H4: 362F                    
08/16/82 00:00:00; Page 195; Form 1     
B2.ASM
362F 38        7762:                    $38
3630 80        7763:                    +:12CB-*-1+$80
  3631         7764: :12CB              EQU     *
3631 2F        7765:                    $2F
3632 EF        7766:                    IFSTMT
3633 2C        7767:                    $2C
3634 F9        7768:                    GENLBL
3635 3302      7769:                    $33,2
3637 D2        7770:                    EQUHERE
3638 2F        7771:                    $2F
  3639         7772: :12CA              EQU     *
3639 400B      7773:                    ((:12C9-*)&$3FFF)+$4000
  01BA         7774: MUSTBEFI           EQU     .SC
  01BB         7775: .SC                SET     .SC+1
363B 01BA      7776:                    MUSTBEFI
363D 8007      7777:                    ((:12CC-*)&$3FFF)+$8000
363F F9        7778:                    GENLBL
3640 3301      7779:                    $33,1
3642 D2        7780:                    EQUHERE
3643 2F        7781:                    $2F
  3644         7782: :12CC              EQU     *
  3644         7783: :12C9              EQU     *
3644 2C        7784:                    $2C
  3645         7785: :12C6              EQU     *
3645 29        7786:                    $29
  3646         7787: .                  SET     *
  0EB7         7788:                    ORG     IFCLAUSE*2+.SA
0EB7 3646      7789:                    #.
  3646         7790:                    ORG     .
3646 EA        7791:                    CLAUSE
3647 8031      7792:                    ((:12CD-*)&$3FFF)+$8000
  01BB         7793: ELSEKEYWORD        EQU     .SC
  01BC         7794: .SC                SET     .SC+1
3649 01BB      7795:                    ELSEKEYWORD
364B 800F      7796:                    ((:12CE-*)&$3FFF)+$8000
364D 01B8      7797:                    ELSEJMP
364F 38        7798:                    $38
3650 80        7799:                    +:12CF-*-1+$80
  3651         7800: :12CF              EQU     *
3651 2F        7801:                    $2F




ASM/6800 1.3H4: 3652                    
08/16/82 00:00:00; Page 196; Form 1     
B2.ASM
3652 01B9      7802:                    ELSEBODY
3654 2C        7803:                    $2C
3655 F9        7804:                    GENLBL
3656 3302      7805:                    $33,2
3658 D2        7806:                    EQUHERE
3659 2F        7807:                    $2F
  365A         7808: :12CE              EQU     *
365A 401D      7809:                    ((:12D0-*)&$3FFF)+$4000
  01BC         7810: ELSEIFKEYWORD      EQU     .SC
  01BD         7811: .SC                SET     .SC+1
365C 01BC      7812:                    ELSEIFKEYWORD
365E 800E      7813:                    ((:12D1-*)&$3FFF)+$8000
3660 01B8      7814:                    ELSEJMP
3662 38        7815:                    $38
3663 80        7816:                    +:12D2-*-1+$80
  3664         7817: :12D2              EQU     *
3664 2F        7818:                    $2F
3665 EF        7819:                    IFSTMT
3666 2C        7820:                    $2C
3667 F9        7821:                    GENLBL
3668 3302      7822:                    $33,2
366A D2        7823:                    EQUHERE
366B 2F        7824:                    $2F
  366C         7825: :12D1              EQU     *
366C 400B      7826:                    ((:12D0-*)&$3FFF)+$4000
  01BD         7827: OPTIONALFI         EQU     .SC
  01BE         7828: .SC                SET     .SC+1
366E 01BD      7829:                    OPTIONALFI
3670 8007      7830:                    ((:12D3-*)&$3FFF)+$8000
3672 F9        7831:                    GENLBL
3673 3301      7832:                    $33,1
3675 D2        7833:                    EQUHERE
3676 2F        7834:                    $2F
  3677         7835: :12D3              EQU     *
  3677         7836: :12D0              EQU     *
3677 2C        7837:                    $2C
  3678         7838: :12CD              EQU     *
3678 29        7839:                    $29
  3679         7840: .                  SET     *
  0EB9         7841:                    ORG     ELSEJMP*2+.SA




ASM/6800 1.3H4: 0EB9                    
08/16/82 00:00:00; Page 197; Form 1     
B2.ASM
0EB9 3679      7842:                    #.
  3679         7843:                    ORG     .
3679 F8        7844:                    OPJMP
367A 2F        7845:                    $2F
367B D4        7846:                    ADDR
367C F9        7847:                    GENLBL
367D 3302      7848:                    $33,2
367F 2F        7849:                    $2F
3680 F9        7850:                    GENLBL
3681 3301      7851:                    $33,1
3683 D2        7852:                    EQUHERE
3684 29        7853:                    $29
  3685         7854: .                  SET     *
  0EB3         7855:                    ORG     UNCONDELSE*2+.SA
0EB3 3685      7856:                    #.
  3685         7857:                    ORG     .
3685 01BB      7858:                    ELSEKEYWORD
3687 8005      7859:                    ((:12D4-*)&$3FFF)+$8000
3689 01B9      7860:                    ELSEBODY
368B 2C        7861:                    $2C
  368C         7862: :12D4              EQU     *
368C 2A        7863:                    $2A
368D 01BC      7864:                    ELSEIFKEYWORD
368F 8004      7865:                    ((:12D5-*)&$3FFF)+$8000
3691 EF        7866:                    IFSTMT
3692 2C        7867:                    $2C
  3693         7868: :12D5              EQU     *
3693 2A        7869:                    $2A
3694 01BD      7870:                    OPTIONALFI
3696 29        7871:                    $29
  3697         7872: .                  SET     *
  0EBF         7873:                    ORG     ELSEKEYWORD*2+.SA
0EBF 3697      7874:                    #.
  3697         7875:                    ORG     .
3697 3E1312    7876:                    $3E,#ELSE
369A 2A        7877:                    $2A
369B 13        7878:                    +LOOKAHEADELSE
369C 8006      7879:                    ((:12D6-*)&$3FFF)+$8000
369E 3E1312    7880:                    $3E,#ELSE
36A1 2C        7881:                    $2C




ASM/6800 1.3H4: 36A1                    
08/16/82 00:00:00; Page 198; Form 1     
B2.ASM
  36A2         7882: :12D6              EQU     *
36A2 29        7883:                    $29
  36A3         7884: .                  SET     *
  0EC1         7885:                    ORG     ELSEIFKEYWORD*2+.SA
0EC1 36A3      7886:                    #.
  36A3         7887:                    ORG     .
36A3 3E131C    7888:                    $3E,#ELSEIF
36A6 2A        7889:                    $2A
36A7 14        7890:                    +LOOKAHEADELSEIF
36A8 8006      7891:                    ((:12D7-*)&$3FFF)+$8000
36AA 3E131C    7892:                    $3E,#ELSEIF
36AD 2C        7893:                    $2C
  36AE         7894: :12D7              EQU     *
36AE 29        7895:                    $29
  36AF         7896: .                  SET     *
  0EBB         7897:                    ORG     ELSEBODY*2+.SA
0EBB 36AF      7898:                    #.
  36AF         7899:                    ORG     .
36AF F6        7900:                    LINENUM
36B0 4004      7901:                    ((:12D8-*)&$3FFF)+$4000
36B2 01B4      7902:                    THENELSELABELCHECK
  36B4         7903: :12D8              EQU     *
36B4 800B      7904:                    ((:12D9-*)&$3FFF)+$8000
36B6 F8        7905:                    OPJMP
36B7 2F        7906:                    $2F
36B8 D4        7907:                    ADDR
36B9 FA        7908:                    LABEL
36BA 31        7909:                    $31
36BB 2F        7910:                    $2F
36BC 01BD      7911:                    OPTIONALFI
36BE 2C        7912:                    $2C
  36BF         7913: :12D9              EQU     *
36BF 2A        7914:                    $2A
36C0 3E11F6    7915:                    $3E,#ELN
36C3 8008      7916:                    ((:12DA-*)&$3FFF)+$8000
36C5 015C      7917:                    OPGOELN
36C7 2F        7918:                    $2F
36C8 01BD      7919:                    OPTIONALFI
36CA 2C        7920:                    $2C
  36CB         7921: :12DA              EQU     *




ASM/6800 1.3H4: 36CB                    
08/16/82 00:00:00; Page 199; Form 1     
B2.ASM
36CB 2A        7922:                    $2A
36CC E0        7923:                    ENDOFLINE
36CD 8008      7924:                    ((:12DB-*)&$3FFF)+$8000
36CF 01B3      7925:                    REPEATBLOCK
36D1 2C        7926:                    $2C
36D2 01BA      7927:                    MUSTBEFI
36D4 2C        7928:                    $2C
  36D5         7929: :12DB              EQU     *
36D5 2A        7930:                    $2A
36D6 EA        7931:                    CLAUSE
36D7 8005      7932:                    ((:12DC-*)&$3FFF)+$8000
36D9 01BD      7933:                    OPTIONALFI
36DB 2C        7934:                    $2C
  36DC         7935: :12DC              EQU     *
36DC 29        7936:                    $29
  36DD         7937: .                  SET     *
  0EC3         7938:                    ORG     OPTIONALFI*2+.SA
0EC3 36DD      7939:                    #.
  36DD         7940:                    ORG     .
36DD 3E1328    7941:                    $3E,#FI
36E0 2A        7942:                    $2A
36E1 34        7943:                    $34
36E2 29        7944:                    $29
  36E3         7945: .                  SET     *
  0EBD         7946:                    ORG     MUSTBEFI*2+.SA
0EBD 36E3      7947:                    #.
  36E3         7948:                    ORG     .
36E3 3E1328    7949:                    $3E,#FI
36E6 2A        7950:                    $2A
36E7 2D        7951:                    $2D
36E8 4D697373  7952:                    FCC     "Missing F"
36F1 C9        7953:                    'I+$80
36F2 29        7954:                    $29
  36F3         7955: .                  SET     *
  0E0F         7956:                    ORG     CONDITION*2+.SA
0E0F 36F3      7957:                    #.
  36F3         7958:                    ORG     .
36F3 3A0102    7959:                    $3A,RESULT,BOOLTYPE
  01BE         7960: EXPRESSION         EQU     .SC
  01BF         7961: .SC                SET     .SC+1




ASM/6800 1.3H4: 36F6                    
08/16/82 00:00:00; Page 200; Form 1     
B2.ASM
36F6 01BE      7962:                    EXPRESSION
36F8 2C        7963:                    $2C
36F9 29        7964:                    $29
  36FA         7965: .                  SET     *
  0CFD         7966:                    ORG     NUMEXP*2+.SA
0CFD 36FA      7967:                    #.
  36FA         7968:                    ORG     .
  01BF         7969: NOTENDOFSTMT       EQU     .SC
  01C0         7970: .SC                SET     .SC+1
36FA 01BF      7971:                    NOTENDOFSTMT
36FC 8008      7972:                    ((:12DD-*)&$3FFF)+$8000
36FE 3A0101    7973:                    $3A,RESULT,NUMERICTYPE
3701 01BE      7974:                    EXPRESSION
3703 2C        7975:                    $2C
  3704         7976: :12DD              EQU     *
3704 29        7977:                    $29
  3705         7978: .                  SET     *
  0EC7         7979:                    ORG     NOTENDOFSTMT*2+.SA
0EC7 3705      7980:                    #.
  3705         7981:                    ORG     .
3705 21        7982:                    $21
               7983:                    FCC     ''
3706 DC        7984:                    '\+$80
3707 22        7985:                    $22
3708 8020      7986:                    ((:12DE-*)&$3FFF)+$8000
370A 21        7987:                    $21
370B 8D        7988:                    +$80+$D
370C 22        7989:                    $22
370D 801B      7990:                    ((:12DE-*)&$3FFF)+$8000
370F 3E1312    7991:                    $3E,#ELSE
3712 22        7992:                    $22
3713 8015      7993:                    ((:12DE-*)&$3FFF)+$8000
3715 3E131C    7994:                    $3E,#ELSEIF
3718 22        7995:                    $22
3719 800F      7996:                    ((:12DE-*)&$3FFF)+$8000
371B 3E12D5    7997:                    $3E,#END
371E 22        7998:                    $22
371F 8009      7999:                    ((:12DE-*)&$3FFF)+$8000
3721 3E1328    8000:                    $3E,#FI
3724 22        8001:                    $22




ASM/6800 1.3H4: 3725                    
08/16/82 00:00:00; Page 201; Form 1     
B2.ASM
3725 8003      8002:                    ((:12DE-*)&$3FFF)+$8000
3727 34        8003:                    $34
  3728         8004: :12DE              EQU     *
3728 29        8005:                    $29
  3729         8006: .                  SET     *
  0D01         8007:                    ORG     STREXP*2+.SA
0D01 3729      8008:                    #.
  3729         8009:                    ORG     .
  01C0         8010: NOTENDOFSTMTORTARGET       EQU             .SC
  01C1         8011: .SC                SET     .SC+1
3729 01C0      8012:                    NOTENDOFSTMTORTARGET
372B 8008      8013:                    ((:12DF-*)&$3FFF)+$8000
372D 3A0105    8014:                    $3A,RESULT,STRINGTYPE
3730 01BE      8015:                    EXPRESSION
3732 2C        8016:                    $2C
  3733         8017: :12DF              EQU     *
3733 29        8018:                    $29
  3734         8019: .                  SET     *
  0EC9         8020:                    ORG     NOTENDOFSTMTORTARGET*2+.SA
0EC9 3734      8021:                    #.
  3734         8022:                    ORG     .
3734 06        8023:                    +NID
3735 22        8024:                    $22
3736 800A      8025:                    ((:12E0-*)&$3FFF)+$8000
3738 0A        8026:                    +NUM
3739 22        8027:                    $22
373A 8006      8028:                    ((:12E0-*)&$3FFF)+$8000
373C 01BF      8029:                    NOTENDOFSTMT
373E 8002      8030:                    ((:12E0-*)&$3FFF)+$8000
  3740         8031: :12E0              EQU     *
3740 29        8032:                    $29
  3741         8033: .                  SET     *
  0E25         8034:                    ORG     NUMORSTREXP*2+.SA
0E25 3741      8035:                    #.
  3741         8036:                    ORG     .
3741 01BF      8037:                    NOTENDOFSTMT
3743 8008      8038:                    ((:12E1-*)&$3FFF)+$8000
3745 3A0104    8039:                    $3A,RESULT,NUMORSTRTYPE
3748 01BE      8040:                    EXPRESSION
374A 2C        8041:                    $2C




ASM/6800 1.3H4: 374A                    
08/16/82 00:00:00; Page 202; Form 1     
B2.ASM
  374B         8042: :12E1              EQU     *
374B 29        8043:                    $29
  374C         8044: .                  SET     *
  0E37         8045:                    ORG     ARGUMENT*2+.SA
0E37 374C      8046:                    #.
  374C         8047:                    ORG     .
374C 3A0106    8048:                    $3A,RESULT,ADDRESSANYTYPE
374F 01BE      8049:                    EXPRESSION
3751 2C        8050:                    $2C
3752 29        8051:                    $29
  3753         8052: .                  SET     *
  0DE1         8053:                    ORG     NUMERICARGUMENT*2+.SA
0DE1 3753      8054:                    #.
  3753         8055:                    ORG     .
3753 3A0107    8056:                    $3A,RESULT,ADDRESSSCALARTYPE
3756 01BE      8057:                    EXPRESSION
3758 2C        8058:                    $2C
3759 29        8059:                    $29
  375A         8060: .                  SET     *
  0DF1         8061:                    ORG     STRINGARGUMENT*2+.SA
0DF1 375A      8062:                    #.
  375A         8063:                    ORG     .
375A 3A0105    8064:                    $3A,RESULT,STRINGTYPE
375D 01BE      8065:                    EXPRESSION
375F 2C        8066:                    $2C
3760 29        8067:                    $29
  3761         8068: .                  SET     *
  0EC5         8069:                    ORG     EXPRESSION*2+.SA
0EC5 3761      8070:                    #.
  3761         8071:                    ORG     .
3761 3B0100    8072:                    $3B,RESULT,NUMORBOOLTYPE
3764 8008      8073:                    ((:12E2-*)&$3FFF)+$8000
  01C1         8074: CONJUNCT           EQU     .SC
  01C2         8075: .SC                SET     .SC+1
3766 01C1      8076:                    CONJUNCT
3768 2C        8077:                    $2C
  01C2         8078: OPTDISJUNCT        EQU     .SC
  01C3         8079: .SC                SET     .SC+1
3769 01C2      8080:                    OPTDISJUNCT
376B 2C        8081:                    $2C




ASM/6800 1.3H4: 376B                    
08/16/82 00:00:00; Page 203; Form 1     
B2.ASM
  376C         8082: :12E2              EQU     *
376C 2A        8083:                    $2A
376D 3B0101    8084:                    $3B,RESULT,NUMERICTYPE
3770 800B      8085:                    ((:12E3-*)&$3FFF)+$8000
3772 3A0100    8086:                    $3A,RESULT,NUMORBOOLTYPE
3775 01C1      8087:                    CONJUNCT
3777 2C        8088:                    $2C
  01C3         8089: RESTOFDISJUNCTRETURNNUMERIC                EQU .SC
  01C4         8090: .SC                SET     .SC+1
3778 01C3      8091:                    RESTOFDISJUNCTRETURNNUMERIC
377A 2C        8092:                    $2C
  377B         8093: :12E3              EQU     *
377B 2A        8094:                    $2A
377C 3B0102    8095:                    $3B,RESULT,BOOLTYPE
377F 8008      8096:                    ((:12E4-*)&$3FFF)+$8000
3781 01C1      8097:                    CONJUNCT
3783 2C        8098:                    $2C
3784 01C2      8099:                    OPTDISJUNCT
3786 2C        8100:                    $2C
  3787         8101: :12E4              EQU     *
3787 2A        8102:                    $2A
3788 3B0103    8103:                    $3B,RESULT,NUMBOOLORSTRTYPE
378B 8008      8104:                    ((:12E5-*)&$3FFF)+$8000
378D 01C1      8105:                    CONJUNCT
378F 2C        8106:                    $2C
3790 01C2      8107:                    OPTDISJUNCT
3792 2C        8108:                    $2C
  3793         8109: :12E5              EQU     *
3793 2A        8110:                    $2A
3794 3B0104    8111:                    $3B,RESULT,NUMORSTRTYPE
3797 8010      8112:                    ((:12E6-*)&$3FFF)+$8000
3799 3A0103    8113:                    $3A,RESULT,NUMBOOLORSTRTYPE
379C 01C1      8114:                    CONJUNCT
379E 2C        8115:                    $2C
379F 3B0105    8116:                    $3B,RESULT,STRINGTYPE
37A2 4004      8117:                    ((:12E7-*)&$3FFF)+$4000
37A4 01C3      8118:                    RESTOFDISJUNCTRETURNNUMERIC
  37A6         8119: :12E7              EQU     *
37A6 2C        8120:                    $2C
  37A7         8121: :12E6              EQU     *




ASM/6800 1.3H4: 37A7                    
08/16/82 00:00:00; Page 204; Form 1     
B2.ASM
37A7 2A        8122:                    $2A
37A8 3B0105    8123:                    $3B,RESULT,STRINGTYPE
37AB 8005      8124:                    ((:12E8-*)&$3FFF)+$8000
37AD 01C1      8125:                    CONJUNCT
37AF 2C        8126:                    $2C
  37B0         8127: :12E8              EQU     *
37B0 2A        8128:                    $2A
37B1 3B0106    8129:                    $3B,RESULT,ADDRESSANYTYPE
37B4 801C      8130:                    ((:12E9-*)&$3FFF)+$8000
37B6 01C1      8131:                    CONJUNCT
37B8 2C        8132:                    $2C
37B9 3B0101    8133:                    $3B,RESULT,NUMERICTYPE
37BC 4005      8134:                    ((:12EA-*)&$3FFF)+$4000
37BE 3B0102    8135:                    $3B,RESULT,BOOLTYPE
  37C1         8136: :12EA              EQU     *
37C1 800B      8137:                    ((:12EB-*)&$3FFF)+$8000
37C3 01C3      8138:                    RESTOFDISJUNCTRETURNNUMERIC
37C5 2C        8139:                    $2C
37C6 0179      8140:                    PUSHPARAMTEMPADDR
37C8 2F        8141:                    $2F
37C9 3A0107    8142:                    $3A,RESULT,ADDRESSSCALARTYPE
  37CC         8143: :12EB              EQU     *
37CC 4003      8144:                    ((:12EC-*)&$3FFF)+$4000
37CE 34        8145:                    $34
  37CF         8146: :12EC              EQU     *
37CF 2C        8147:                    $2C
  37D0         8148: :12E9              EQU     *
37D0 2A        8149:                    $2A
37D1 3B0107    8150:                    $3B,RESULT,ADDRESSSCALARTYPE
37D4 8015      8151:                    ((:12ED-*)&$3FFF)+$8000
37D6 01C1      8152:                    CONJUNCT
37D8 2C        8153:                    $2C
37D9 3B0107    8154:                    $3B,RESULT,ADDRESSSCALARTYPE
37DC 400C      8155:                    ((:12EE-*)&$3FFF)+$4000
37DE 01C3      8156:                    RESTOFDISJUNCTRETURNNUMERIC
37E0 8008      8157:                    ((:12EF-*)&$3FFF)+$8000
37E2 0179      8158:                    PUSHPARAMTEMPADDR
37E4 2F        8159:                    $2F
37E5 3A0107    8160:                    $3A,RESULT,ADDRESSSCALARTYPE
  37E8         8161: :12EF              EQU     *




ASM/6800 1.3H4: 37E5                    
08/16/82 00:00:00; Page 205; Form 1     
B2.ASM
  37E8         8162: :12EE              EQU     *
37E8 2C        8163:                    $2C
  37E9         8164: :12ED              EQU     *
37E9 29        8165:                    $29
  37EA         8166: .                  SET     *
  0ECD         8167:                    ORG     OPTDISJUNCT*2+.SA
0ECD 37EA      8168:                    #.
  37EA         8169:                    ORG     .
  01C4         8170: RESTOFDISJUNCT     EQU     .SC
  01C5         8171: .SC                SET     .SC+1
37EA 01C4      8172:                    RESTOFDISJUNCT
37EC 2A        8173:                    $2A
37ED 34        8174:                    $34
37EE 29        8175:                    $29
  37EF         8176: .                  SET     *
  0ED1         8177:                    ORG     RESTOFDISJUNCT*2+.SA
0ED1 37EF      8178:                    #.
  37EF         8179:                    ORG     .
37EF 3E14D7    8180:                    $3E,#OR
37F2 8028      8181:                    ((:12F0-*)&$3FFF)+$8000
  01C5         8182: CONVERTNUMERICTOBOOL       EQU             .SC
  01C6         8183: .SC                SET     .SC+1
37F4 01C5      8184:                    CONVERTNUMERICTOBOOL
37F6 2C        8185:                    $2C
37F7 0165      8186:                    OPBT
37F9 2F        8187:                    $2F
37FA D4        8188:                    ADDR
37FB F9        8189:                    GENLBL
37FC 3301      8190:                    $33,1
37FE 2F        8191:                    $2F
37FF 01C1      8192:                    CONJUNCT
3801 2C        8193:                    $2C
  3802         8194: :12F1              EQU     *
3802 3E14D7    8195:                    $3E,#OR
3805 800D      8196:                    ((:12F2-*)&$3FFF)+$8000
3807 0165      8197:                    OPBT
3809 2F        8198:                    $2F
380A D4        8199:                    ADDR
380B F9        8200:                    GENLBL
380C 3301      8201:                    $33,1




ASM/6800 1.3H4: 380E                    
08/16/82 00:00:00; Page 206; Form 1     
B2.ASM
380E 2F        8202:                    $2F
380F 01C1      8203:                    CONJUNCT
3811 2C        8204:                    $2C
  3812         8205: :12F2              EQU     *
3812 7FF0      8206:                    ((:12F1-*)&$3FFF)+$4000
3814 34        8207:                    $34
3815 F9        8208:                    GENLBL
3816 3301      8209:                    $33,1
3818 D2        8210:                    EQUHERE
3819 2F        8211:                    $2F
  381A         8212: :12F0              EQU     *
381A 29        8213:                    $29
  381B         8214: .                  SET     *
  0ED3         8215:                    ORG     CONVERTNUMERICTOBOOL*2+.SA
0ED3 381B      8216:                    #.
  381B         8217:                    ORG     .
381B 3B0101    8218:                    $3B,RESULT,NUMERICTYPE
381E 800D      8219:                    ((:12F3-*)&$3FFF)+$8000
3820 0138      8220:                    OPLSMI
3822 30        8221:                    $30
               8222:                    FCC     ''
3823 B0        8223:                    '0+$80
3824 2F        8224:                    $2F
  01C6         8225: OPNE               EQU     .SC
  01C7         8226: .SC                SET     .SC+1
3825 01C6      8227:                    OPNE
3827 2F        8228:                    $2F
3828 3A0102    8229:                    $3A,RESULT,BOOLTYPE
  382B         8230: :12F3              EQU     *
382B 4005      8231:                    ((:12F4-*)&$3FFF)+$4000
382D 3B0102    8232:                    $3B,RESULT,BOOLTYPE
  3830         8233: :12F4              EQU     *
3830 29        8234:                    $29
  3831         8235: .                  SET     *
  0ECF         8236:                    ORG     RESTOFDISJUNCTRETURNNUMERIC*2+.SA
0ECF 3831      8237:                    #.
  3831         8238:                    ORG     .
3831 01C4      8239:                    RESTOFDISJUNCT
3833 8008      8240:                    ((:12F5-*)&$3FFF)+$8000
  01C7         8241: OPLBOOL            EQU     .SC




ASM/6800 1.3H4: 3833                    
08/16/82 00:00:00; Page 207; Form 1     
B2.ASM
  01C8         8242: .SC                SET     .SC+1
3835 01C7      8243:                    OPLBOOL
3837 2F        8244:                    $2F
3838 3A0101    8245:                    $3A,RESULT,NUMERICTYPE
  383B         8246: :12F5              EQU     *
383B 2A        8247:                    $2A
383C 3B0101    8248:                    $3B,RESULT,NUMERICTYPE
383F 2A        8249:                    $2A
3840 3B0102    8250:                    $3B,RESULT,BOOLTYPE
3843 8008      8251:                    ((:12F6-*)&$3FFF)+$8000
3845 01C7      8252:                    OPLBOOL
3847 2F        8253:                    $2F
3848 3A0101    8254:                    $3A,RESULT,NUMERICTYPE
  384B         8255: :12F6              EQU     *
384B 29        8256:                    $29
  384C         8257: .                  SET     *
  0ECB         8258:                    ORG     CONJUNCT*2+.SA
0ECB 384C      8259:                    #.
  384C         8260:                    ORG     .
  01C8         8261: RELATION           EQU     .SC
  01C9         8262: .SC                SET     .SC+1
384C 01C8      8263:                    RELATION
384E 8031      8264:                    ((:12F7-*)&$3FFF)+$8000
3850 3E14CE    8265:                    $3E,#AND
3853 8028      8266:                    ((:12F8-*)&$3FFF)+$8000
3855 01C5      8267:                    CONVERTNUMERICTOBOOL
3857 2C        8268:                    $2C
3858 0164      8269:                    OPBF
385A 2F        8270:                    $2F
385B D4        8271:                    ADDR
385C F9        8272:                    GENLBL
385D 3301      8273:                    $33,1
385F 2F        8274:                    $2F
3860 01C8      8275:                    RELATION
3862 2C        8276:                    $2C
  3863         8277: :12F9              EQU     *
3863 3E14CE    8278:                    $3E,#AND
3866 800D      8279:                    ((:12FA-*)&$3FFF)+$8000
3868 0164      8280:                    OPBF
386A 2F        8281:                    $2F




ASM/6800 1.3H4: 386B                    
08/16/82 00:00:00; Page 208; Form 1     
B2.ASM
386B D4        8282:                    ADDR
386C F9        8283:                    GENLBL
386D 3301      8284:                    $33,1
386F 2F        8285:                    $2F
3870 01C8      8286:                    RELATION
3872 2C        8287:                    $2C
  3873         8288: :12FA              EQU     *
3873 7FF0      8289:                    ((:12F9-*)&$3FFF)+$4000
3875 34        8290:                    $34
3876 F9        8291:                    GENLBL
3877 3301      8292:                    $33,1
3879 D2        8293:                    EQUHERE
387A 2F        8294:                    $2F
  387B         8295: :12F8              EQU     *
387B 4003      8296:                    ((:12FB-*)&$3FFF)+$4000
387D 34        8297:                    $34
  387E         8298: :12FB              EQU     *
387E 2C        8299:                    $2C
  387F         8300: :12F7              EQU     *
387F 29        8301:                    $29
  3880         8302: .                  SET     *
  0ED9         8303:                    ORG     RELATION*2+.SA
0ED9 3880      8304:                    #.
  3880         8305:                    ORG     .
3880 3B0100    8306:                    $3B,RESULT,NUMORBOOLTYPE
3883 8019      8307:                    ((:12FC-*)&$3FFF)+$8000
3885 3A0103    8308:                    $3A,RESULT,NUMBOOLORSTRTYPE
  01C9         8309: SUM                EQU     .SC
  01CA         8310: .SC                SET     .SC+1
3888 01C9      8311:                    SUM
388A 2C        8312:                    $2C
388B 3B0102    8313:                    $3B,RESULT,BOOLTYPE
388E 400D      8314:                    ((:12FD-*)&$3FFF)+$4000
  01CA         8315: RESTOFRELATION     EQU     .SC
  01CB         8316: .SC                SET     .SC+1
3890 01CA      8317:                    RESTOFRELATION
3892 4009      8318:                    ((:12FD-*)&$3FFF)+$4000
3894 3B0101    8319:                    $3B,RESULT,NUMERICTYPE
3897 4004      8320:                    ((:12FD-*)&$3FFF)+$4000
  01CB         8321: WRONGTYPE          EQU     .SC




ASM/6800 1.3H4: 3897                    
08/16/82 00:00:00; Page 209; Form 1     
B2.ASM
  01CC         8322: .SC                SET     .SC+1
3899 01CB      8323:                    WRONGTYPE
  389B         8324: :12FD              EQU     *
389B 2C        8325:                    $2C
  389C         8326: :12FC              EQU     *
389C 2A        8327:                    $2A
389D 3B0102    8328:                    $3B,RESULT,BOOLTYPE
38A0 8018      8329:                    ((:12FE-*)&$3FFF)+$8000
38A2 3A0103    8330:                    $3A,RESULT,NUMBOOLORSTRTYPE
38A5 01C9      8331:                    SUM
38A7 2C        8332:                    $2C
38A8 3B0102    8333:                    $3B,RESULT,BOOLTYPE
38AB 400C      8334:                    ((:12FF-*)&$3FFF)+$4000
38AD 01CA      8335:                    RESTOFRELATION
38AF 4008      8336:                    ((:12FF-*)&$3FFF)+$4000
38B1 01C5      8337:                    CONVERTNUMERICTOBOOL
38B3 4004      8338:                    ((:12FF-*)&$3FFF)+$4000
38B5 01CB      8339:                    WRONGTYPE
  38B7         8340: :12FF              EQU     *
38B7 2C        8341:                    $2C
  38B8         8342: :12FE              EQU     *
38B8 2A        8343:                    $2A
38B9 3B0103    8344:                    $3B,RESULT,NUMBOOLORSTRTYPE
38BC 8008      8345:                    ((:1300-*)&$3FFF)+$8000
38BE 01C9      8346:                    SUM
38C0 2C        8347:                    $2C
  01CC         8348: OPTRELATION        EQU     .SC
  01CD         8349: .SC                SET     .SC+1
38C1 01CC      8350:                    OPTRELATION
38C3 2C        8351:                    $2C
  38C4         8352: :1300              EQU     *
38C4 2A        8353:                    $2A
38C5 3B0105    8354:                    $3B,RESULT,STRINGTYPE
38C8 8005      8355:                    ((:1301-*)&$3FFF)+$8000
38CA 01C9      8356:                    SUM
38CC 2C        8357:                    $2C
  38CD         8358: :1301              EQU     *
38CD 2A        8359:                    $2A
38CE 3B0106    8360:                    $3B,RESULT,ADDRESSANYTYPE
38D1 8008      8361:                    ((:1302-*)&$3FFF)+$8000




ASM/6800 1.3H4: 38D3                    
08/16/82 00:00:00; Page 210; Form 1     
B2.ASM
38D3 01C9      8362:                    SUM
38D5 2C        8363:                    $2C
38D6 01CC      8364:                    OPTRELATION
38D8 2C        8365:                    $2C
  38D9         8366: :1302              EQU     *
38D9 2A        8367:                    $2A
38DA 3B0107    8368:                    $3B,RESULT,ADDRESSSCALARTYPE
38DD 8008      8369:                    ((:1303-*)&$3FFF)+$8000
38DF 01C9      8370:                    SUM
38E1 2C        8371:                    $2C
38E2 01CC      8372:                    OPTRELATION
38E4 2C        8373:                    $2C
  38E5         8374: :1303              EQU     *
38E5 29        8375:                    $29
  38E6         8376: .                  SET     *
  0EE1         8377:                    ORG     OPTRELATION*2+.SA
0EE1 38E6      8378:                    #.
  38E6         8379:                    ORG     .
38E6 01CA      8380:                    RESTOFRELATION
38E8 2A        8381:                    $2A
38E9 34        8382:                    $34
38EA 29        8383:                    $29
  38EB         8384: .                  SET     *
  0EDD         8385:                    ORG     RESTOFRELATION*2+.SA
0EDD 38EB      8386:                    #.
  38EB         8387:                    ORG     .
38EB 21        8388:                    $21
               8389:                    FCC     ''
38EC BD        8390:                    '=+$80
38ED 801B      8391:                    ((:1304-*)&$3FFF)+$8000
38EF 3B0101    8392:                    $3B,RESULT,NUMERICTYPE
38F2 8008      8393:                    ((:1305-*)&$3FFF)+$8000
38F4 01C9      8394:                    SUM
38F6 2C        8395:                    $2C
  01CD         8396: OPEQ               EQU     .SC
  01CE         8397: .SC                SET     .SC+1
38F7 01CD      8398:                    OPEQ
38F9 2F        8399:                    $2F
  38FA         8400: :1305              EQU     *
38FA 400D      8401:                    ((:1306-*)&$3FFF)+$4000




ASM/6800 1.3H4: 38FC                    
08/16/82 00:00:00; Page 211; Form 1     
B2.ASM
38FC 3B0105    8402:                    $3B,RESULT,STRINGTYPE
38FF 8008      8403:                    ((:1307-*)&$3FFF)+$8000
3901 01C9      8404:                    SUM
3903 2C        8405:                    $2C
  01CE         8406: OPSEQ              EQU     .SC
  01CF         8407: .SC                SET     .SC+1
3904 01CE      8408:                    OPSEQ
3906 2F        8409:                    $2F
  3907         8410: :1307              EQU     *
  3907         8411: :1306              EQU     *
3907 2C        8412:                    $2C
  3908         8413: :1304              EQU     *
3908 409E      8414:                    ((:1308-*)&$3FFF)+$4000
390A 21        8415:                    $21
390B 3C        8416:                    FCC     '<'
390C BE        8417:                    '>+$80
390D 801B      8418:                    ((:1309-*)&$3FFF)+$8000
390F 3B0101    8419:                    $3B,RESULT,NUMERICTYPE
3912 8008      8420:                    ((:130A-*)&$3FFF)+$8000
3914 01C9      8421:                    SUM
3916 2C        8422:                    $2C
3917 01C6      8423:                    OPNE
3919 2F        8424:                    $2F
  391A         8425: :130A              EQU     *
391A 400D      8426:                    ((:130B-*)&$3FFF)+$4000
391C 3B0105    8427:                    $3B,RESULT,STRINGTYPE
391F 8008      8428:                    ((:130C-*)&$3FFF)+$8000
3921 01C9      8429:                    SUM
3923 2C        8430:                    $2C
  01CF         8431: OPSNE              EQU     .SC
  01D0         8432: .SC                SET     .SC+1
3924 01CF      8433:                    OPSNE
3926 2F        8434:                    $2F
  3927         8435: :130C              EQU     *
  3927         8436: :130B              EQU     *
3927 2C        8437:                    $2C
  3928         8438: :1309              EQU     *
3928 407E      8439:                    ((:1308-*)&$3FFF)+$4000
392A 21        8440:                    $21
392B 3C        8441:                    FCC     '<'




ASM/6800 1.3H4: 392C                    
08/16/82 00:00:00; Page 212; Form 1     
B2.ASM
392C BD        8442:                    '=+$80
392D 801B      8443:                    ((:130D-*)&$3FFF)+$8000
392F 3B0101    8444:                    $3B,RESULT,NUMERICTYPE
3932 8008      8445:                    ((:130E-*)&$3FFF)+$8000
3934 01C9      8446:                    SUM
3936 2C        8447:                    $2C
  01D0         8448: OPLE               EQU     .SC
  01D1         8449: .SC                SET     .SC+1
3937 01D0      8450:                    OPLE
3939 2F        8451:                    $2F
  393A         8452: :130E              EQU     *
393A 400D      8453:                    ((:130F-*)&$3FFF)+$4000
393C 3B0105    8454:                    $3B,RESULT,STRINGTYPE
393F 8008      8455:                    ((:1310-*)&$3FFF)+$8000
3941 01C9      8456:                    SUM
3943 2C        8457:                    $2C
  01D1         8458: OPSLE              EQU     .SC
  01D2         8459: .SC                SET     .SC+1
3944 01D1      8460:                    OPSLE
3946 2F        8461:                    $2F
  3947         8462: :1310              EQU     *
  3947         8463: :130F              EQU     *
3947 2C        8464:                    $2C
  3948         8465: :130D              EQU     *
3948 405E      8466:                    ((:1308-*)&$3FFF)+$4000
394A 21        8467:                    $21
               8468:                    FCC     ''
394B BC        8469:                    '<+$80
394C 801B      8470:                    ((:1311-*)&$3FFF)+$8000
394E 3B0101    8471:                    $3B,RESULT,NUMERICTYPE
3951 8008      8472:                    ((:1312-*)&$3FFF)+$8000
3953 01C9      8473:                    SUM
3955 2C        8474:                    $2C
  01D2         8475: OPLT               EQU     .SC
  01D3         8476: .SC                SET     .SC+1
3956 01D2      8477:                    OPLT
3958 2F        8478:                    $2F
  3959         8479: :1312              EQU     *
3959 400D      8480:                    ((:1313-*)&$3FFF)+$4000
395B 3B0105    8481:                    $3B,RESULT,STRINGTYPE




ASM/6800 1.3H4: 395E                    
08/16/82 00:00:00; Page 213; Form 1     
B2.ASM
395E 8008      8482:                    ((:1314-*)&$3FFF)+$8000
3960 01C9      8483:                    SUM
3962 2C        8484:                    $2C
  01D3         8485: OPSLT              EQU     .SC
  01D4         8486: .SC                SET     .SC+1
3963 01D3      8487:                    OPSLT
3965 2F        8488:                    $2F
  3966         8489: :1314              EQU     *
  3966         8490: :1313              EQU     *
3966 2C        8491:                    $2C
  3967         8492: :1311              EQU     *
3967 403F      8493:                    ((:1308-*)&$3FFF)+$4000
3969 21        8494:                    $21
396A 3E        8495:                    FCC     '>'
396B BD        8496:                    '=+$80
396C 801B      8497:                    ((:1315-*)&$3FFF)+$8000
396E 3B0101    8498:                    $3B,RESULT,NUMERICTYPE
3971 8008      8499:                    ((:1316-*)&$3FFF)+$8000
3973 01C9      8500:                    SUM
3975 2C        8501:                    $2C
  01D4         8502: OPGE               EQU     .SC
  01D5         8503: .SC                SET     .SC+1
3976 01D4      8504:                    OPGE
3978 2F        8505:                    $2F
  3979         8506: :1316              EQU     *
3979 400D      8507:                    ((:1317-*)&$3FFF)+$4000
397B 3B0105    8508:                    $3B,RESULT,STRINGTYPE
397E 8008      8509:                    ((:1318-*)&$3FFF)+$8000
3980 01C9      8510:                    SUM
3982 2C        8511:                    $2C
  01D5         8512: OPSGE              EQU     .SC
  01D6         8513: .SC                SET     .SC+1
3983 01D5      8514:                    OPSGE
3985 2F        8515:                    $2F
  3986         8516: :1318              EQU     *
  3986         8517: :1317              EQU     *
3986 2C        8518:                    $2C
  3987         8519: :1315              EQU     *
3987 401F      8520:                    ((:1308-*)&$3FFF)+$4000
3989 21        8521:                    $21




ASM/6800 1.3H4: 3989                    
08/16/82 00:00:00; Page 214; Form 1     
B2.ASM
               8522:                    FCC     ''
398A BE        8523:                    '>+$80
398B 801B      8524:                    ((:1319-*)&$3FFF)+$8000
398D 3B0101    8525:                    $3B,RESULT,NUMERICTYPE
3990 8008      8526:                    ((:131A-*)&$3FFF)+$8000
3992 01C9      8527:                    SUM
3994 2C        8528:                    $2C
  01D6         8529: OPGT               EQU     .SC
  01D7         8530: .SC                SET     .SC+1
3995 01D6      8531:                    OPGT
3997 2F        8532:                    $2F
  3998         8533: :131A              EQU     *
3998 400D      8534:                    ((:131B-*)&$3FFF)+$4000
399A 3B0105    8535:                    $3B,RESULT,STRINGTYPE
399D 8008      8536:                    ((:131C-*)&$3FFF)+$8000
399F 01C9      8537:                    SUM
39A1 2C        8538:                    $2C
  01D7         8539: OPSGT              EQU     .SC
  01D8         8540: .SC                SET     .SC+1
39A2 01D7      8541:                    OPSGT
39A4 2F        8542:                    $2F
  39A5         8543: :131C              EQU     *
  39A5         8544: :131B              EQU     *
39A5 2C        8545:                    $2C
  39A6         8546: :1319              EQU     *
  39A6         8547: :1308              EQU     *
39A6 8005      8548:                    ((:131D-*)&$3FFF)+$8000
39A8 3A0102    8549:                    $3A,RESULT,BOOLTYPE
  39AB         8550: :131D              EQU     *
39AB 29        8551:                    $29
  01D8         8552: CONVERTBOOLTONUMERIC       EQU             .SC
  01D9         8553: .SC                SET     .SC+1
  39AC         8554: .                  SET     *
  0EF9         8555:                    ORG     CONVERTBOOLTONUMERIC*2+.SA
0EF9 39AC      8556:                    #.
  39AC         8557:                    ORG     .
39AC 3B0101    8558:                    $3B,RESULT,NUMERICTYPE
39AF 2A        8559:                    $2A
39B0 3B0102    8560:                    $3B,RESULT,BOOLTYPE
39B3 8008      8561:                    ((:131E-*)&$3FFF)+$8000




ASM/6800 1.3H4: 39B5                    
08/16/82 00:00:00; Page 215; Form 1     
B2.ASM
39B5 01C7      8562:                    OPLBOOL
39B7 2F        8563:                    $2F
39B8 3A0101    8564:                    $3A,RESULT,NUMERICTYPE
  39BB         8565: :131E              EQU     *
39BB 2A        8566:                    $2A
39BC 01CB      8567:                    WRONGTYPE
39BE 29        8568:                    $29
  39BF         8569: .                  SET     *
  0EDB         8570:                    ORG     SUM*2+.SA
0EDB 39BF      8571:                    #.
  39BF         8572:                    ORG     .
  01D9         8573: PRODUCT            EQU     .SC
  01DA         8574: .SC                SET     .SC+1
39BF 01D9      8575:                    PRODUCT
39C1 8038      8576:                    ((:131F-*)&$3FFF)+$8000
  01DA         8577: SUMOP              EQU     .SC
  01DB         8578: .SC                SET     .SC+1
39C3 01DA      8579:                    SUMOP
39C5 8007      8580:                    ((:1320-*)&$3FFF)+$8000
  39C7         8581: :1321              EQU     *
39C7 01DA      8582:                    SUMOP
39C9 7FFE      8583:                    ((:1321-*)&$3FFF)+$4000
39CB 34        8584:                    $34
  39CC         8585: :1320              EQU     *
39CC 402C      8586:                    ((:1322-*)&$3FFF)+$4000
39CE 3E1526    8587:                    $3E,#CAT
39D1 8024      8588:                    ((:1323-*)&$3FFF)+$8000
39D3 3B0105    8589:                    $3B,RESULT,STRINGTYPE
39D6 4004      8590:                    ((:1324-*)&$3FFF)+$4000
39D8 01CB      8591:                    WRONGTYPE
  39DA         8592: :1324              EQU     *
39DA 2C        8593:                    $2C
  01DB         8594: OPCIN              EQU     .SC
  01DC         8595: .SC                SET     .SC+1
39DB 01DB      8596:                    OPCIN
39DD 2F        8597:                    $2F
39DE 01D9      8598:                    PRODUCT
39E0 2C        8599:                    $2C
  01DC         8600: OPCAT              EQU     .SC
  01DD         8601: .SC                SET     .SC+1




ASM/6800 1.3H4: 39E1                    
08/16/82 00:00:00; Page 216; Form 1     
B2.ASM
39E1 01DC      8602:                    OPCAT
39E3 2F        8603:                    $2F
  39E4         8604: :1325              EQU     *
39E4 3E1526    8605:                    $3E,#CAT
39E7 8008      8606:                    ((:1326-*)&$3FFF)+$8000
39E9 01D9      8607:                    PRODUCT
39EB 2C        8608:                    $2C
39EC 01DC      8609:                    OPCAT
39EE 2F        8610:                    $2F
  39EF         8611: :1326              EQU     *
39EF 7FF5      8612:                    ((:1325-*)&$3FFF)+$4000
39F1 34        8613:                    $34
  01DD         8614: OPCND              EQU     .SC
  01DE         8615: .SC                SET     .SC+1
39F2 01DD      8616:                    OPCND
39F4 2F        8617:                    $2F
  39F5         8618: :1323              EQU     *
39F5 4003      8619:                    ((:1322-*)&$3FFF)+$4000
39F7 34        8620:                    $34
  39F8         8621: :1322              EQU     *
39F8 2C        8622:                    $2C
  39F9         8623: :131F              EQU     *
39F9 29        8624:                    $29
  39FA         8625: .                  SET     *
  0EFD         8626:                    ORG     SUMOP*2+.SA
0EFD 39FA      8627:                    #.
  39FA         8628:                    ORG     .
39FA 21        8629:                    $21
               8630:                    FCC     ''
39FB AB        8631:                    '++$80
39FC 800B      8632:                    ((:1327-*)&$3FFF)+$8000
39FE 01D8      8633:                    CONVERTBOOLTONUMERIC
3A00 2C        8634:                    $2C
3A01 01D9      8635:                    PRODUCT
3A03 2C        8636:                    $2C
  01DE         8637: OPADD              EQU     .SC
  01DF         8638: .SC                SET     .SC+1
3A04 01DE      8639:                    OPADD
3A06 2F        8640:                    $2F
  3A07         8641: :1327              EQU     *




ASM/6800 1.3H4: 3A07                    
08/16/82 00:00:00; Page 217; Form 1     
B2.ASM
3A07 2A        8642:                    $2A
3A08 21        8643:                    $21
               8644:                    FCC     ''
3A09 AD        8645:                    '-+$80
3A0A 800B      8646:                    ((:1328-*)&$3FFF)+$8000
3A0C 01D8      8647:                    CONVERTBOOLTONUMERIC
3A0E 2C        8648:                    $2C
3A0F 01D9      8649:                    PRODUCT
3A11 2C        8650:                    $2C
  01DF         8651: OPSUB              EQU     .SC
  01E0         8652: .SC                SET     .SC+1
3A12 01DF      8653:                    OPSUB
3A14 2F        8654:                    $2F
  3A15         8655: :1328              EQU     *
3A15 2A        8656:                    $2A
3A16 21        8657:                    $21
               8658:                    FCC     ''
3A17 A1        8659:                    '!+$80
3A18 800B      8660:                    ((:1329-*)&$3FFF)+$8000
3A1A 01D8      8661:                    CONVERTBOOLTONUMERIC
3A1C 2C        8662:                    $2C
3A1D 01D9      8663:                    PRODUCT
3A1F 2C        8664:                    $2C
  01E0         8665: OPIOR              EQU     .SC
  01E1         8666: .SC                SET     .SC+1
3A20 01E0      8667:                    OPIOR
3A22 2F        8668:                    $2F
  3A23         8669: :1329              EQU     *
3A23 2A        8670:                    $2A
3A24 3E151D    8671:                    $3E,#XOR
3A27 800B      8672:                    ((:132A-*)&$3FFF)+$8000
3A29 01D8      8673:                    CONVERTBOOLTONUMERIC
3A2B 2C        8674:                    $2C
3A2C 01D9      8675:                    PRODUCT
3A2E 2C        8676:                    $2C
  01E1         8677: OPXOR              EQU     .SC
  01E2         8678: .SC                SET     .SC+1
3A2F 01E1      8679:                    OPXOR
3A31 2F        8680:                    $2F
  3A32         8681: :132A              EQU     *




ASM/6800 1.3H4: 3A32                    
08/16/82 00:00:00; Page 218; Form 1     
B2.ASM
3A32 29        8682:                    $29
  3A33         8683: .                  SET     *
  0EFB         8684:                    ORG     PRODUCT*2+.SA
0EFB 3A33      8685:                    #.
  3A33         8686:                    ORG     .
  01E2         8687: POWER              EQU     .SC
  01E3         8688: .SC                SET     .SC+1
3A33 01E2      8689:                    POWER
3A35 8007      8690:                    ((:132B-*)&$3FFF)+$8000
  3A37         8691: :132C              EQU     *
  01E3         8692: PRODUCTOP          EQU     .SC
  01E4         8693: .SC                SET     .SC+1
3A37 01E3      8694:                    PRODUCTOP
3A39 7FFE      8695:                    ((:132C-*)&$3FFF)+$4000
3A3B 34        8696:                    $34
  3A3C         8697: :132B              EQU     *
3A3C 29        8698:                    $29
  3A3D         8699: .                  SET     *
  0F0F         8700:                    ORG     PRODUCTOP*2+.SA
0F0F 3A3D      8701:                    #.
  3A3D         8702:                    ORG     .
3A3D 21        8703:                    $21
3A3E 2A        8704:                    FCC     '*'
3A3F AA        8705:                    '*+$80
3A40 800B      8706:                    ((:132D-*)&$3FFF)+$8000
3A42 01D8      8707:                    CONVERTBOOLTONUMERIC
3A44 2C        8708:                    $2C
3A45 01E2      8709:                    POWER
3A47 2C        8710:                    $2C
  01E4         8711: OPSHF              EQU     .SC
  01E5         8712: .SC                SET     .SC+1
3A48 01E4      8713:                    OPSHF
3A4A 2F        8714:                    $2F
  3A4B         8715: :132D              EQU     *
3A4B 2A        8716:                    $2A
3A4C 21        8717:                    $21
               8718:                    FCC     ''
3A4D AA        8719:                    '*+$80
3A4E 800B      8720:                    ((:132E-*)&$3FFF)+$8000
3A50 01D8      8721:                    CONVERTBOOLTONUMERIC




ASM/6800 1.3H4: 3A52                    
08/16/82 00:00:00; Page 219; Form 1     
B2.ASM
3A52 2C        8722:                    $2C
3A53 01E2      8723:                    POWER
3A55 2C        8724:                    $2C
  01E5         8725: OPMUL              EQU     .SC
  01E6         8726: .SC                SET     .SC+1
3A56 01E5      8727:                    OPMUL
3A58 2F        8728:                    $2F
  3A59         8729: :132E              EQU     *
3A59 2A        8730:                    $2A
3A5A 21        8731:                    $21
               8732:                    FCC     ''
3A5B AF        8733:                    '/+$80
3A5C 800B      8734:                    ((:132F-*)&$3FFF)+$8000
3A5E 01D8      8735:                    CONVERTBOOLTONUMERIC
3A60 2C        8736:                    $2C
3A61 01E2      8737:                    POWER
3A63 2C        8738:                    $2C
  01E6         8739: OPDIV              EQU     .SC
  01E7         8740: .SC                SET     .SC+1
3A64 01E6      8741:                    OPDIV
3A66 2F        8742:                    $2F
  3A67         8743: :132F              EQU     *
3A67 2A        8744:                    $2A
3A68 21        8745:                    $21
               8746:                    FCC     ''
3A69 A6        8747:                    '&+$80
3A6A 800B      8748:                    ((:1330-*)&$3FFF)+$8000
3A6C 01D8      8749:                    CONVERTBOOLTONUMERIC
3A6E 2C        8750:                    $2C
3A6F 01E2      8751:                    POWER
3A71 2C        8752:                    $2C
  01E7         8753: OPAND              EQU     .SC
  01E8         8754: .SC                SET     .SC+1
3A72 01E7      8755:                    OPAND
3A74 2F        8756:                    $2F
  3A75         8757: :1330              EQU     *
3A75 29        8758:                    $29
  3A76         8759: .                  SET     *
  0F0D         8760:                    ORG     POWER*2+.SA
0F0D 3A76      8761:                    #.




ASM/6800 1.3H4: 0F0D                    
08/16/82 00:00:00; Page 220; Form 1     
B2.ASM
  3A76         8762:                    ORG     .
  01E8         8763: TERM               EQU     .SC
  01E9         8764: .SC                SET     .SC+1
3A76 01E8      8765:                    TERM
3A78 8013      8766:                    ((:1331-*)&$3FFF)+$8000
3A7A 21        8767:                    $21
               8768:                    FCC     ''
3A7B DE        8769:                    '^+$80
3A7C 800B      8770:                    ((:1332-*)&$3FFF)+$8000
3A7E 01D8      8771:                    CONVERTBOOLTONUMERIC
3A80 2C        8772:                    $2C
3A81 01E2      8773:                    POWER
3A83 2C        8774:                    $2C
  01E9         8775: OPOWER             EQU     .SC
  01EA         8776: .SC                SET     .SC+1
3A84 01E9      8777:                    OPOWER
3A86 2F        8778:                    $2F
  3A87         8779: :1332              EQU     *
3A87 4003      8780:                    ((:1333-*)&$3FFF)+$4000
3A89 34        8781:                    $34
  3A8A         8782: :1333              EQU     *
3A8A 2C        8783:                    $2C
  3A8B         8784: :1331              EQU     *
3A8B 29        8785:                    $29
  3A8C         8786: .                  SET     *
  0F19         8787:                    ORG     TERM*2+.SA
0F19 3A8C      8788:                    #.
  3A8C         8789:                    ORG     .
3A8C 3B0100    8790:                    $3B,RESULT,NUMORBOOLTYPE
3A8F 8012      8791:                    ((:1334-*)&$3FFF)+$8000
  01EA         8792: SYNTACTICTERM      EQU     .SC
  01EB         8793: .SC                SET     .SC+1
3A91 01EA      8794:                    SYNTACTICTERM
3A93 2C        8795:                    $2C
3A94 3B0101    8796:                    $3B,RESULT,NUMERICTYPE
3A97 4009      8797:                    ((:1335-*)&$3FFF)+$4000
3A99 3B0102    8798:                    $3B,RESULT,BOOLTYPE
3A9C 4004      8799:                    ((:1335-*)&$3FFF)+$4000
3A9E 01CB      8800:                    WRONGTYPE
  3AA0         8801: :1335              EQU     *




ASM/6800 1.3H4: 3AA0                    
08/16/82 00:00:00; Page 221; Form 1     
B2.ASM
3AA0 2C        8802:                    $2C
  3AA1         8803: :1334              EQU     *
3AA1 2A        8804:                    $2A
3AA2 3B0101    8805:                    $3B,RESULT,NUMERICTYPE
3AA5 8008      8806:                    ((:1336-*)&$3FFF)+$8000
3AA7 01EA      8807:                    SYNTACTICTERM
3AA9 2C        8808:                    $2C
3AAA 01D8      8809:                    CONVERTBOOLTONUMERIC
3AAC 2C        8810:                    $2C
  3AAD         8811: :1336              EQU     *
3AAD 2A        8812:                    $2A
3AAE 3B0102    8813:                    $3B,RESULT,BOOLTYPE
3AB1 800D      8814:                    ((:1337-*)&$3FFF)+$8000
3AB3 01EA      8815:                    SYNTACTICTERM
3AB5 2C        8816:                    $2C
3AB6 3B0102    8817:                    $3B,RESULT,BOOLTYPE
3AB9 4004      8818:                    ((:1338-*)&$3FFF)+$4000
3ABB 01CB      8819:                    WRONGTYPE
  3ABD         8820: :1338              EQU     *
3ABD 2C        8821:                    $2C
  3ABE         8822: :1337              EQU     *
3ABE 2A        8823:                    $2A
3ABF 3B0103    8824:                    $3B,RESULT,NUMBOOLORSTRTYPE
3AC2 8017      8825:                    ((:1339-*)&$3FFF)+$8000
3AC4 01EA      8826:                    SYNTACTICTERM
3AC6 2C        8827:                    $2C
3AC7 3B0101    8828:                    $3B,RESULT,NUMERICTYPE
3ACA 400E      8829:                    ((:133A-*)&$3FFF)+$4000
3ACC 3B0102    8830:                    $3B,RESULT,BOOLTYPE
3ACF 4009      8831:                    ((:133A-*)&$3FFF)+$4000
3AD1 3B0105    8832:                    $3B,RESULT,STRINGTYPE
3AD4 4004      8833:                    ((:133A-*)&$3FFF)+$4000
3AD6 01CB      8834:                    WRONGTYPE
  3AD8         8835: :133A              EQU     *
3AD8 2C        8836:                    $2C
  3AD9         8837: :1339              EQU     *
3AD9 2A        8838:                    $2A
3ADA 3B0104    8839:                    $3B,RESULT,NUMORSTRTYPE
3ADD 8010      8840:                    ((:133B-*)&$3FFF)+$8000
3ADF 3A0103    8841:                    $3A,RESULT,NUMBOOLORSTRTYPE




ASM/6800 1.3H4: 3AE2                    
08/16/82 00:00:00; Page 222; Form 1     
B2.ASM
3AE2 01EA      8842:                    SYNTACTICTERM
3AE4 2C        8843:                    $2C
3AE5 3B0105    8844:                    $3B,RESULT,STRINGTYPE
3AE8 4004      8845:                    ((:133C-*)&$3FFF)+$4000
3AEA 01D8      8846:                    CONVERTBOOLTONUMERIC
  3AEC         8847: :133C              EQU     *
3AEC 2C        8848:                    $2C
  3AED         8849: :133B              EQU     *
3AED 2A        8850:                    $2A
3AEE 3B0105    8851:                    $3B,RESULT,STRINGTYPE
3AF1 8008      8852:                    ((:133D-*)&$3FFF)+$8000
3AF3 01EA      8853:                    SYNTACTICTERM
3AF5 2C        8854:                    $2C
  01EB         8855: VERIFYSTRINGRESULT EQU     .SC
  01EC         8856: .SC                SET     .SC+1
3AF6 01EB      8857:                    VERIFYSTRINGRESULT
3AF8 2C        8858:                    $2C
  3AF9         8859: :133D              EQU     *
3AF9 2A        8860:                    $2A
3AFA 3B0106    8861:                    $3B,RESULT,ADDRESSANYTYPE
3AFD 4005      8862:                    ((:133E-*)&$3FFF)+$4000
3AFF 3B0107    8863:                    $3B,RESULT,ADDRESSSCALARTYPE
  3B02         8864: :133E              EQU     *
3B02 8005      8865:                    ((:133F-*)&$3FFF)+$8000
3B04 01EA      8866:                    SYNTACTICTERM
3B06 2C        8867:                    $2C
  3B07         8868: :133F              EQU     *
3B07 29        8869:                    $29
  01EC         8870: VERIFYNUMERICRESULT        EQU             .SC
  01ED         8871: .SC                SET     .SC+1
  3B08         8872: .                  SET     *
  0F21         8873:                    ORG     VERIFYNUMERICRESULT*2+.SA
0F21 3B08      8874:                    #.
  3B08         8875:                    ORG     .
3B08 3B0101    8876:                    $3B,RESULT,NUMERICTYPE
3B0B 2A        8877:                    $2A
3B0C 01CB      8878:                    WRONGTYPE
3B0E 29        8879:                    $29
  3B0F         8880: .                  SET     *
  0F1F         8881:                    ORG     VERIFYSTRINGRESULT*2+.SA




ASM/6800 1.3H4: 0F1F                    
08/16/82 00:00:00; Page 223; Form 1     
B2.ASM
0F1F 3B0F      8882:                    #.
  3B0F         8883:                    ORG     .
3B0F 3B0105    8884:                    $3B,RESULT,STRINGTYPE
3B12 2A        8885:                    $2A
3B13 01CB      8886:                    WRONGTYPE
3B15 29        8887:                    $29
  3B16         8888: .                  SET     *
  0EDF         8889:                    ORG     WRONGTYPE*2+.SA
0EDF 3B16      8890:                    #.
  3B16         8891:                    ORG     .
3B16 2D        8892:                    $2D
3B17 57726F6E  8893:                    FCC     "Wrong type of valu"
3B29 E5        8894:                    'e+$80
3B2A 29        8895:                    $29
  3B2B         8896: .                  SET     *
  0E89         8897:                    ORG     TERMGIVINGNUMERIC*2+.SA
0E89 3B2B      8898:                    #.
  3B2B         8899:                    ORG     .
3B2B 3A0101    8900:                    $3A,RESULT,NUMERICTYPE
3B2E 01EA      8901:                    SYNTACTICTERM
3B30 2C        8902:                    $2C
3B31 01D8      8903:                    CONVERTBOOLTONUMERIC
3B33 2C        8904:                    $2C
3B34 29        8905:                    $29
  01ED         8906: TERMGIVINGSTRING   EQU     .SC
  01EE         8907: .SC                SET     .SC+1
  3B35         8908: .                  SET     *
  0F23         8909:                    ORG     TERMGIVINGSTRING*2+.SA
0F23 3B35      8910:                    #.
  3B35         8911:                    ORG     .
3B35 3A0105    8912:                    $3A,RESULT,STRINGTYPE
3B38 01EA      8913:                    SYNTACTICTERM
3B3A 2C        8914:                    $2C
3B3B 01EB      8915:                    VERIFYSTRINGRESULT
3B3D 2C        8916:                    $2C
3B3E 29        8917:                    $29
  3B3F         8918: .                  SET     *
  0F1D         8919:                    ORG     SYNTACTICTERM*2+.SA
0F1D 3B3F      8920:                    #.
  3B3F         8921:                    ORG     .




ASM/6800 1.3H4: 0F1D                    
08/16/82 00:00:00; Page 224; Form 1     
B2.ASM
  01EE         8922: NUMVARIABLEORUSERFUNCTIONREF               EQU .SC
  01EF         8923: .SC                SET     .SC+1
3B3F 01EE      8924:                    NUMVARIABLEORUSERFUNCTIONREF
3B41 2A        8925:                    $2A
  01EF         8926: STRVARIABLEORUSERFUNCTIONREF               EQU .SC
  01F0         8927: .SC                SET     .SC+1
3B42 01EF      8928:                    STRVARIABLEORUSERFUNCTIONREF
3B44 2A        8929:                    $2A
  01F0         8930: OBVIOUSLYNUMERICTERM       EQU             .SC
  01F1         8931: .SC                SET     .SC+1
3B45 01F0      8932:                    OBVIOUSLYNUMERICTERM
3B47 2A        8933:                    $2A
  01F1         8934: OBVIOUSLYSTRINGTERM        EQU             .SC
  01F2         8935: .SC                SET     .SC+1
3B48 01F1      8936:                    OBVIOUSLYSTRINGTERM
3B4A 2A        8937:                    $2A
  01F2         8938: OBVIOUSLYBOOLEANTERM       EQU             .SC
  01F3         8939: .SC                SET     .SC+1
3B4B 01F2      8940:                    OBVIOUSLYBOOLEANTERM
3B4D 2A        8941:                    $2A
  01F3         8942: NOTSOCLEARTERM     EQU     .SC
  01F4         8943: .SC                SET     .SC+1
3B4E 01F3      8944:                    NOTSOCLEARTERM
3B50 29        8945:                    $29
  3B51         8946: .                  SET     *
  0F25         8947:                    ORG     NUMVARIABLEORUSERFUNCTIONREF*2+.SA
0F25 3B51      8948:                    #.
  3B51         8949:                    ORG     .
3B51 06        8950:                    +NID
3B52 8224      8951:                    ((:1340-*)&$3FFF)+$8000
3B54 2705      8952:                    $27,SCALAR
3B56 8038      8953:                    ((:1341-*)&$3FFF)+$8000
3B58 0140      8954:                    NOSUBSCRIPTS
3B5A 2C        8955:                    $2C
3B5B 3B0106    8956:                    $3B,RESULT,ADDRESSANYTYPE
3B5E 4005      8957:                    ((:1342-*)&$3FFF)+$4000
3B60 3B0107    8958:                    $3B,RESULT,ADDRESSSCALARTYPE
  3B63         8959: :1342              EQU     *
3B63 801E      8960:                    ((:1343-*)&$3FFF)+$8000
3B65 0178      8961:                    VARIABLEONLY




ASM/6800 1.3H4: 3B67                    
08/16/82 00:00:00; Page 225; Form 1     
B2.ASM
3B67 800D      8962:                    ((:1344-*)&$3FFF)+$8000
3B69 015A      8963:                    OPLADDR
3B6B 2F        8964:                    $2F
3B6C 0162      8965:                    SADDR
3B6E 3201      8966:                    $32,1
3B70 2F        8967:                    $2F
3B71 3A0107    8968:                    $3A,RESULT,ADDRESSSCALARTYPE
  3B74         8969: :1344              EQU     *
3B74 400C      8970:                    ((:1345-*)&$3FFF)+$4000
3B76 34        8971:                    $34
  01F4         8972: OPLSCALAR          EQU     .SC
  01F5         8973: .SC                SET     .SC+1
3B77 01F4      8974:                    OPLSCALAR
3B79 38        8975:                    $38
3B7A 01        8976:                    +:1346-*-1
3B7B 01        8977:                    +1
  3B7C         8978: :1346              EQU     *
3B7C 2C        8979:                    $2C
3B7D 3A0101    8980:                    $3A,RESULT,NUMERICTYPE
  3B80         8981: :1345              EQU     *
3B80 2C        8982:                    $2C
  3B81         8983: :1343              EQU     *
3B81 400C      8984:                    ((:1347-*)&$3FFF)+$4000
3B83 34        8985:                    $34
3B84 01F4      8986:                    OPLSCALAR
3B86 38        8987:                    $38
3B87 01        8988:                    +:1348-*-1
3B88 01        8989:                    +1
  3B89         8990: :1348              EQU     *
3B89 2C        8991:                    $2C
3B8A 3A0101    8992:                    $3A,RESULT,NUMERICTYPE
  3B8D         8993: :1347              EQU     *
3B8D 2C        8994:                    $2C
  3B8E         8995: :1341              EQU     *
3B8E 41E7      8996:                    ((:1349-*)&$3FFF)+$4000
3B90 2701      8997:                    $27,VECTOR
3B92 8094      8998:                    ((:134A-*)&$3FFF)+$8000
3B94 3B0106    8999:                    $3B,RESULT,ADDRESSANYTYPE
3B97 4005      9000:                    ((:134B-*)&$3FFF)+$4000
3B99 3B0107    9001:                    $3B,RESULT,ADDRESSSCALARTYPE




ASM/6800 1.3H4: 3B99                    
08/16/82 00:00:00; Page 226; Form 1     
B2.ASM
  3B9C         9002: :134B              EQU     *
3B9C 8066      9003:                    ((:134C-*)&$3FFF)+$8000
3B9E C1        9004:                    LB
3B9F 8042      9005:                    ((:134D-*)&$3FFF)+$8000
3BA1 DA        9006:                    NUMEXP
3BA2 2C        9007:                    $2C
  01F5         9008: ONESUB1            EQU     .SC
  01F6         9009: .SC                SET     .SC+1
3BA3 01F5      9010:                    ONESUB1
3BA5 2C        9011:                    $2C
3BA6 28010D    9012:                    $28,1,PARAMETER
3BA9 801A      9013:                    ((:134E-*)&$3FFF)+$8000
3BAB 0146      9014:                    OPVPA
3BAD 2F        9015:                    $2F
3BAE D6        9016:                    DADDR
3BAF 3201      9017:                    $32,1
3BB1 2F        9018:                    $2F
3BB2 0178      9019:                    VARIABLEONLY
3BB4 8005      9020:                    ((:134F-*)&$3FFF)+$8000
3BB6 3A0107    9021:                    $3A,RESULT,ADDRESSSCALARTYPE
  3BB9         9022: :134F              EQU     *
3BB9 4009      9023:                    ((:1350-*)&$3FFF)+$4000
3BBB 34        9024:                    $34
  01F6         9025: OPLV               EQU     .SC
  01F7         9026: .SC                SET     .SC+1
3BBC 01F6      9027:                    OPLV
3BBE 2F        9028:                    $2F
3BBF 3A0101    9029:                    $3A,RESULT,NUMERICTYPE
  3BC2         9030: :1350              EQU     *
3BC2 2C        9031:                    $2C
  3BC3         9032: :134E              EQU     *
3BC3 401D      9033:                    ((:1351-*)&$3FFF)+$4000
3BC5 0178      9034:                    VARIABLEONLY
3BC7 800C      9035:                    ((:1352-*)&$3FFF)+$8000
  01F7         9036: OPVSA              EQU     .SC
  01F8         9037: .SC                SET     .SC+1
3BC9 01F7      9038:                    OPVSA
3BCB 2F        9039:                    $2F
3BCC D6        9040:                    DADDR
3BCD 3201      9041:                    $32,1




ASM/6800 1.3H4: 3BCF                    
08/16/82 00:00:00; Page 227; Form 1     
B2.ASM
3BCF 2F        9042:                    $2F
3BD0 3A0107    9043:                    $3A,RESULT,ADDRESSSCALARTYPE
  3BD3         9044: :1352              EQU     *
3BD3 400D      9045:                    ((:1351-*)&$3FFF)+$4000
3BD5 34        9046:                    $34
  01F8         9047: OPVSV              EQU     .SC
  01F9         9048: .SC                SET     .SC+1
3BD6 01F8      9049:                    OPVSV
3BD8 2F        9050:                    $2F
3BD9 D6        9051:                    DADDR
3BDA 3201      9052:                    $32,1
3BDC 2F        9053:                    $2F
3BDD 3A0101    9054:                    $3A,RESULT,NUMERICTYPE
  3BE0         9055: :1351              EQU     *
3BE0 2C        9056:                    $2C
  3BE1         9057: :134D              EQU     *
3BE1 4020      9058:                    ((:1353-*)&$3FFF)+$4000
3BE3 0178      9059:                    VARIABLEONLY
3BE5 801C      9060:                    ((:1354-*)&$3FFF)+$8000
3BE7 28010D    9061:                    $28,1,PARAMETER
3BEA 8009      9062:                    ((:1355-*)&$3FFF)+$8000
3BEC 0143      9063:                    OPLOAD
3BEE 2F        9064:                    $2F
3BEF D6        9065:                    DADDR
3BF0 3201      9066:                    $32,1
3BF2 2F        9067:                    $2F
  3BF3         9068: :1355              EQU     *
3BF3 400A      9069:                    ((:1356-*)&$3FFF)+$4000
3BF5 34        9070:                    $34
3BF6 015A      9071:                    OPLADDR
3BF8 2F        9072:                    $2F
3BF9 D6        9073:                    DADDR
3BFA 3201      9074:                    $32,1
3BFC 2F        9075:                    $2F
  3BFD         9076: :1356              EQU     *
3BFD 2C        9077:                    $2C
3BFE 3A0108    9078:                    $3A,RESULT,ADDRESSARRAYTYPE
  3C01         9079: :1354              EQU     *
  3C01         9080: :1353              EQU     *
3C01 2C        9081:                    $2C




ASM/6800 1.3H4: 3C01                    
08/16/82 00:00:00; Page 228; Form 1     
B2.ASM
  3C02         9082: :134C              EQU     *
3C02 4023      9083:                    ((:1357-*)&$3FFF)+$4000
3C04 0145      9084:                    ONESUBSCRIPT
3C06 801F      9085:                    ((:1358-*)&$3FFF)+$8000
3C08 28010D    9086:                    $28,1,PARAMETER
3C0B 800C      9087:                    ((:1359-*)&$3FFF)+$8000
3C0D 0146      9088:                    OPVPA
3C0F 2F        9089:                    $2F
3C10 D6        9090:                    DADDR
3C11 3201      9091:                    $32,1
3C13 2F        9092:                    $2F
3C14 01F6      9093:                    OPLV
3C16 2F        9094:                    $2F
  3C17         9095: :1359              EQU     *
3C17 400A      9096:                    ((:135A-*)&$3FFF)+$4000
3C19 34        9097:                    $34
3C1A 01F8      9098:                    OPVSV
3C1C 2F        9099:                    $2F
3C1D D6        9100:                    DADDR
3C1E 3201      9101:                    $32,1
3C20 2F        9102:                    $2F
  3C21         9103: :135A              EQU     *
3C21 2C        9104:                    $2C
3C22 3A0101    9105:                    $3A,RESULT,NUMERICTYPE
  3C25         9106: :1358              EQU     *
  3C25         9107: :1357              EQU     *
3C25 2C        9108:                    $2C
  3C26         9109: :134A              EQU     *
3C26 414F      9110:                    ((:1349-*)&$3FFF)+$4000
3C28 2702      9111:                    $27,ARRAY
3C2A 8094      9112:                    ((:135B-*)&$3FFF)+$8000
3C2C 3B0106    9113:                    $3B,RESULT,ADDRESSANYTYPE
3C2F 4005      9114:                    ((:135C-*)&$3FFF)+$4000
3C31 3B0107    9115:                    $3B,RESULT,ADDRESSSCALARTYPE
  3C34         9116: :135C              EQU     *
3C34 8066      9117:                    ((:135D-*)&$3FFF)+$8000
3C36 C1        9118:                    LB
3C37 8042      9119:                    ((:135E-*)&$3FFF)+$8000
3C39 DA        9120:                    NUMEXP
3C3A 2C        9121:                    $2C




ASM/6800 1.3H4: 3C3A                    
08/16/82 00:00:00; Page 229; Form 1     
B2.ASM
  01F9         9122: TWOSUB1            EQU     .SC
  01FA         9123: .SC                SET     .SC+1
3C3B 01F9      9124:                    TWOSUB1
3C3D 2C        9125:                    $2C
3C3E 28010D    9126:                    $28,1,PARAMETER
3C41 801A      9127:                    ((:135F-*)&$3FFF)+$8000
3C43 0149      9128:                    OPAPA
3C45 2F        9129:                    $2F
3C46 D6        9130:                    DADDR
3C47 3201      9131:                    $32,1
3C49 2F        9132:                    $2F
3C4A 0178      9133:                    VARIABLEONLY
3C4C 8005      9134:                    ((:1360-*)&$3FFF)+$8000
3C4E 3A0107    9135:                    $3A,RESULT,ADDRESSSCALARTYPE
  3C51         9136: :1360              EQU     *
3C51 4009      9137:                    ((:1361-*)&$3FFF)+$4000
3C53 34        9138:                    $34
3C54 01F6      9139:                    OPLV
3C56 2F        9140:                    $2F
3C57 3A0101    9141:                    $3A,RESULT,NUMERICTYPE
  3C5A         9142: :1361              EQU     *
3C5A 2C        9143:                    $2C
  3C5B         9144: :135F              EQU     *
3C5B 401D      9145:                    ((:1362-*)&$3FFF)+$4000
3C5D 0178      9146:                    VARIABLEONLY
3C5F 800C      9147:                    ((:1363-*)&$3FFF)+$8000
  01FA         9148: OPASA              EQU     .SC
  01FB         9149: .SC                SET     .SC+1
3C61 01FA      9150:                    OPASA
3C63 2F        9151:                    $2F
3C64 D6        9152:                    DADDR
3C65 3201      9153:                    $32,1
3C67 2F        9154:                    $2F
3C68 3A0107    9155:                    $3A,RESULT,ADDRESSSCALARTYPE
  3C6B         9156: :1363              EQU     *
3C6B 400D      9157:                    ((:1362-*)&$3FFF)+$4000
3C6D 34        9158:                    $34
  01FB         9159: OPASV              EQU     .SC
  01FC         9160: .SC                SET     .SC+1
3C6E 01FB      9161:                    OPASV




ASM/6800 1.3H4: 3C70                    
08/16/82 00:00:00; Page 230; Form 1     
B2.ASM
3C70 2F        9162:                    $2F
3C71 D6        9163:                    DADDR
3C72 3201      9164:                    $32,1
3C74 2F        9165:                    $2F
3C75 3A0101    9166:                    $3A,RESULT,NUMERICTYPE
  3C78         9167: :1362              EQU     *
3C78 2C        9168:                    $2C
  3C79         9169: :135E              EQU     *
3C79 4020      9170:                    ((:1364-*)&$3FFF)+$4000
3C7B 0178      9171:                    VARIABLEONLY
3C7D 801C      9172:                    ((:1365-*)&$3FFF)+$8000
3C7F 28010D    9173:                    $28,1,PARAMETER
3C82 8009      9174:                    ((:1366-*)&$3FFF)+$8000
3C84 0143      9175:                    OPLOAD
3C86 2F        9176:                    $2F
3C87 D6        9177:                    DADDR
3C88 3201      9178:                    $32,1
3C8A 2F        9179:                    $2F
  3C8B         9180: :1366              EQU     *
3C8B 400A      9181:                    ((:1367-*)&$3FFF)+$4000
3C8D 34        9182:                    $34
3C8E 015A      9183:                    OPLADDR
3C90 2F        9184:                    $2F
3C91 D6        9185:                    DADDR
3C92 3201      9186:                    $32,1
3C94 2F        9187:                    $2F
  3C95         9188: :1367              EQU     *
3C95 2C        9189:                    $2C
3C96 3A0108    9190:                    $3A,RESULT,ADDRESSARRAYTYPE
  3C99         9191: :1365              EQU     *
  3C99         9192: :1364              EQU     *
3C99 2C        9193:                    $2C
  3C9A         9194: :135D              EQU     *
3C9A 4023      9195:                    ((:1368-*)&$3FFF)+$4000
3C9C 0148      9196:                    TWOSUBSCRIPTS
3C9E 801F      9197:                    ((:1369-*)&$3FFF)+$8000
3CA0 28010D    9198:                    $28,1,PARAMETER
3CA3 800C      9199:                    ((:136A-*)&$3FFF)+$8000
3CA5 0149      9200:                    OPAPA
3CA7 2F        9201:                    $2F




ASM/6800 1.3H4: 3CA8                    
08/16/82 00:00:00; Page 231; Form 1     
B2.ASM
3CA8 D6        9202:                    DADDR
3CA9 3201      9203:                    $32,1
3CAB 2F        9204:                    $2F
3CAC 01F6      9205:                    OPLV
3CAE 2F        9206:                    $2F
  3CAF         9207: :136A              EQU     *
3CAF 400A      9208:                    ((:136B-*)&$3FFF)+$4000
3CB1 34        9209:                    $34
3CB2 01FB      9210:                    OPASV
3CB4 2F        9211:                    $2F
3CB5 D6        9212:                    DADDR
3CB6 3201      9213:                    $32,1
3CB8 2F        9214:                    $2F
  3CB9         9215: :136B              EQU     *
3CB9 2C        9216:                    $2C
3CBA 3A0101    9217:                    $3A,RESULT,NUMERICTYPE
  3CBD         9218: :1369              EQU     *
  3CBD         9219: :1368              EQU     *
3CBD 2C        9220:                    $2C
  3CBE         9221: :135B              EQU     *
3CBE 40B7      9222:                    ((:1349-*)&$3FFF)+$4000
3CC0 2703      9223:                    $27,FUNCTION
3CC2 800B      9224:                    ((:136C-*)&$3FFF)+$8000
  01FC         9225: FUNCTIONCALL       EQU     .SC
  01FD         9226: .SC                SET     .SC+1
3CC4 01FC      9227:                    FUNCTIONCALL
3CC6 38        9228:                    $38
3CC7 01        9229:                    +:136D-*-1
3CC8 01        9230:                    +1
  3CC9         9231: :136D              EQU     *
3CC9 2C        9232:                    $2C
3CCA 3A0101    9233:                    $3A,RESULT,NUMERICTYPE
  3CCD         9234: :136C              EQU     *
3CCD 40A8      9235:                    ((:1349-*)&$3FFF)+$4000
3CCF 2707      9236:                    $27,ISLABEL
3CD1 4004      9237:                    ((:136E-*)&$3FFF)+$4000
3CD3 2706      9238:                    $27,FREFLABEL
  3CD5         9239: :136E              EQU     *
3CD5 800C      9240:                    ((:136F-*)&$3FFF)+$8000
3CD7 013A      9241:                    OPLINT




ASM/6800 1.3H4: 3CD9                    
08/16/82 00:00:00; Page 232; Form 1     
B2.ASM
3CD9 2F        9242:                    $2F
3CDA D4        9243:                    ADDR
3CDB FA        9244:                    LABEL
3CDC 31        9245:                    $31
3CDD 2F        9246:                    $2F
3CDE 3A0101    9247:                    $3A,RESULT,NUMERICTYPE
  3CE1         9248: :136F              EQU     *
3CE1 4094      9249:                    ((:1349-*)&$3FFF)+$4000
3CE3 270D      9250:                    $27,PARAMETER
3CE5 8031      9251:                    ((:1370-*)&$3FFF)+$8000
3CE7 0140      9252:                    NOSUBSCRIPTS
3CE9 2C        9253:                    $2C
3CEA 0143      9254:                    OPLOAD
3CEC 2F        9255:                    $2F
3CED D6        9256:                    DADDR
3CEE 3201      9257:                    $32,1
3CF0 2F        9258:                    $2F
3CF1 3B0106    9259:                    $3B,RESULT,ADDRESSANYTYPE
3CF4 4005      9260:                    ((:1371-*)&$3FFF)+$4000
3CF6 3B0107    9261:                    $3B,RESULT,ADDRESSSCALARTYPE
  3CF9         9262: :1371              EQU     *
3CF9 8013      9263:                    ((:1372-*)&$3FFF)+$8000
3CFB 0178      9264:                    VARIABLEONLY
3CFD 8005      9265:                    ((:1373-*)&$3FFF)+$8000
3CFF 3A0107    9266:                    $3A,RESULT,ADDRESSSCALARTYPE
  3D02         9267: :1373              EQU     *
3D02 4009      9268:                    ((:1374-*)&$3FFF)+$4000
3D04 34        9269:                    $34
3D05 01F6      9270:                    OPLV
3D07 2F        9271:                    $2F
3D08 3A0101    9272:                    $3A,RESULT,NUMERICTYPE
  3D0B         9273: :1374              EQU     *
3D0B 2C        9274:                    $2C
  3D0C         9275: :1372              EQU     *
3D0C 4009      9276:                    ((:1375-*)&$3FFF)+$4000
3D0E 34        9277:                    $34
3D0F 01F6      9278:                    OPLV
3D11 2F        9279:                    $2F
3D12 3A0101    9280:                    $3A,RESULT,NUMERICTYPE
  3D15         9281: :1375              EQU     *




ASM/6800 1.3H4: 3D15                    
08/16/82 00:00:00; Page 233; Form 1     
B2.ASM
3D15 2C        9282:                    $2C
  3D16         9283: :1370              EQU     *
3D16 405F      9284:                    ((:1349-*)&$3FFF)+$4000
3D18 2709      9285:                    $27,COMMONSCALAR
3D1A 4004      9286:                    ((:1376-*)&$3FFF)+$4000
3D1C 2708      9287:                    $27,POTENTIALLABEL
  3D1E         9288: :1376              EQU     *
3D1E 8005      9289:                    ((:1377-*)&$3FFF)+$8000
3D20 0140      9290:                    NOSUBSCRIPTS
3D22 2C        9291:                    $2C
  3D23         9292: :1377              EQU     *
3D23 400A      9293:                    ((:1378-*)&$3FFF)+$4000
3D25 0140      9294:                    NOSUBSCRIPTS
3D27 8006      9295:                    ((:1379-*)&$3FFF)+$8000
3D29 2309      9296:                    $23,COMMONSCALAR
3D2B 2308      9297:                    $23,POTENTIALLABEL
  3D2D         9298: :1379              EQU     *
  3D2D         9299: :1378              EQU     *
3D2D 8048      9300:                    ((:137A-*)&$3FFF)+$8000
3D2F 3B0106    9301:                    $3B,RESULT,ADDRESSANYTYPE
3D32 4005      9302:                    ((:137B-*)&$3FFF)+$4000
3D34 3B0107    9303:                    $3B,RESULT,ADDRESSSCALARTYPE
  3D37         9304: :137B              EQU     *
3D37 8031      9305:                    ((:137C-*)&$3FFF)+$8000
3D39 0178      9306:                    VARIABLEONLY
3D3B 801F      9307:                    ((:137D-*)&$3FFF)+$8000
3D3D 015A      9308:                    OPLADDR
3D3F 2F        9309:                    $2F
3D40 D6        9310:                    DADDR
3D41 3201      9311:                    $32,1
3D43 2F        9312:                    $2F
3D44 2708      9313:                    $27,POTENTIALLABEL
3D46 800D      9314:                    ((:137E-*)&$3FFF)+$8000
3D48 2508      9315:                    $25,POTENTIALLABEL
3D4A 2C        9316:                    $2C
3D4B 3201      9317:                    $32,1
3D4D FD        9318:                    EQUDATA
3D4E 2F        9319:                    $2F
3D4F FE        9320:                    RESDATA
3D50 30        9321:                    $30




ASM/6800 1.3H4: 3D50                    
08/16/82 00:00:00; Page 234; Form 1     
B2.ASM
               9322:                    FCC     ''
3D51 B6        9323:                    '6+$80
3D52 2F        9324:                    $2F
  3D53         9325: :137E              EQU     *
3D53 4003      9326:                    ((:137F-*)&$3FFF)+$4000
3D55 34        9327:                    $34
  3D56         9328: :137F              EQU     *
3D56 2C        9329:                    $2C
3D57 3A0107    9330:                    $3A,RESULT,ADDRESSSCALARTYPE
  3D5A         9331: :137D              EQU     *
3D5A 400D      9332:                    ((:1380-*)&$3FFF)+$4000
3D5C 34        9333:                    $34
3D5D 0143      9334:                    OPLOAD
3D5F 2F        9335:                    $2F
3D60 D6        9336:                    DADDR
3D61 3201      9337:                    $32,1
3D63 2F        9338:                    $2F
3D64 3A0101    9339:                    $3A,RESULT,NUMERICTYPE
  3D67         9340: :1380              EQU     *
3D67 2C        9341:                    $2C
  3D68         9342: :137C              EQU     *
3D68 400C      9343:                    ((:1381-*)&$3FFF)+$4000
3D6A 34        9344:                    $34
3D6B 0143      9345:                    OPLOAD
3D6D 2F        9346:                    $2F
3D6E D6        9347:                    DADDR
3D6F 31        9348:                    $31
3D70 2F        9349:                    $2F
3D71 3A0101    9350:                    $3A,RESULT,NUMERICTYPE
  3D74         9351: :1381              EQU     *
3D74 2C        9352:                    $2C
  3D75         9353: :137A              EQU     *
  3D75         9354: :1349              EQU     *
3D75 2C        9355:                    $2C
  3D76         9356: :1340              EQU     *
3D76 29        9357:                    $29
  3D77         9358: .                  SET     *
  0F27         9359:                    ORG     STRVARIABLEORUSERFUNCTIONREF*2+.SA
0F27 3D77      9360:                    #.
  3D77         9361:                    ORG     .




ASM/6800 1.3H4: 3D77                    
08/16/82 00:00:00; Page 235; Form 1     
B2.ASM
3D77 07        9362:                    +SID
3D78 8066      9363:                    ((:1382-*)&$3FFF)+$8000
3D7A 2700      9364:                    $27,STRVAR
3D7C 801B      9365:                    ((:1383-*)&$3FFF)+$8000
3D7E 270D      9366:                    $27,PARAMETER
3D80 8009      9367:                    ((:1384-*)&$3FFF)+$8000
3D82 0143      9368:                    OPLOAD
3D84 2F        9369:                    $2F
3D85 D6        9370:                    DADDR
3D86 3201      9371:                    $32,1
3D88 2F        9372:                    $2F
  3D89         9373: :1384              EQU     *
3D89 400A      9374:                    ((:1385-*)&$3FFF)+$4000
3D8B 34        9375:                    $34
3D8C 0159      9376:                    OPLSD
3D8E 2F        9377:                    $2F
3D8F D6        9378:                    DADDR
3D90 3201      9379:                    $32,1
3D92 2F        9380:                    $2F
  3D93         9381: :1385              EQU     *
3D93 2C        9382:                    $2C
  01FD         9383: SUBSTRING          EQU     .SC
  01FE         9384: .SC                SET     .SC+1
3D94 01FD      9385:                    SUBSTRING
3D96 2C        9386:                    $2C
  3D97         9387: :1383              EQU     *
3D97 4044      9388:                    ((:1386-*)&$3FFF)+$4000
3D99 270F      9389:                    $27,STRARRAY
3D9B 802D      9390:                    ((:1387-*)&$3FFF)+$8000
3D9D 270D      9391:                    $27,PARAMETER
3D9F 8009      9392:                    ((:1388-*)&$3FFF)+$8000
3DA1 0143      9393:                    OPLOAD
3DA3 2F        9394:                    $2F
3DA4 D6        9395:                    DADDR
3DA5 3201      9396:                    $32,1
3DA7 2F        9397:                    $2F
  3DA8         9398: :1388              EQU     *
3DA8 400A      9399:                    ((:1389-*)&$3FFF)+$4000
3DAA 34        9400:                    $34
3DAB 015A      9401:                    OPLADDR




ASM/6800 1.3H4: 3DAD                    
08/16/82 00:00:00; Page 236; Form 1     
B2.ASM
3DAD 2F        9402:                    $2F
3DAE D6        9403:                    DADDR
3DAF 3201      9404:                    $32,1
3DB1 2F        9405:                    $2F
  3DB2         9406: :1389              EQU     *
3DB2 2C        9407:                    $2C
3DB3 C1        9408:                    LB
3DB4 800D      9409:                    ((:138A-*)&$3FFF)+$8000
3DB6 DA        9410:                    NUMEXP
3DB7 2C        9411:                    $2C
3DB8 01F5      9412:                    ONESUB1
3DBA 2C        9413:                    $2C
3DBB 015B      9414:                    OPSSA
3DBD 2F        9415:                    $2F
3DBE 01FD      9416:                    SUBSTRING
3DC0 2C        9417:                    $2C
  3DC1         9418: :138A              EQU     *
3DC1 4006      9419:                    ((:138B-*)&$3FFF)+$4000
3DC3 34        9420:                    $34
3DC4 3A0108    9421:                    $3A,RESULT,ADDRESSARRAYTYPE
  3DC7         9422: :138B              EQU     *
3DC7 2C        9423:                    $2C
  3DC8         9424: :1387              EQU     *
3DC8 4013      9425:                    ((:1386-*)&$3FFF)+$4000
3DCA 2704      9426:                    $27,STRINGFUNCTION
3DCC 800B      9427:                    ((:138C-*)&$3FFF)+$8000
3DCE 01FC      9428:                    FUNCTIONCALL
3DD0 38        9429:                    $38
3DD1 01        9430:                    +:138D-*-1
3DD2 01        9431:                    +1
  3DD3         9432: :138D              EQU     *
3DD3 2C        9433:                    $2C
3DD4 01FD      9434:                    SUBSTRING
3DD6 2C        9435:                    $2C
  3DD7         9436: :138C              EQU     *
3DD7 4004      9437:                    ((:1386-*)&$3FFF)+$4000
3DD9 010B      9438:                    UDFSID
  3DDB         9439: :1386              EQU     *
3DDB 2C        9440:                    $2C
3DDC 3701      9441:                    $37,1




ASM/6800 1.3H4: 3DDC                    
08/16/82 00:00:00; Page 237; Form 1     
B2.ASM
  3DDE         9442: :1382              EQU     *
3DDE 29        9443:                    $29
  3DDF         9444: .                  SET     *
  0F41         9445:                    ORG     FUNCTIONCALL*2+.SA
0F41 3DDF      9446:                    #.
  3DDF         9447:                    ORG     .
3DDF 014B      9448:                    ARGUMENTLIST
3DE1 38        9449:                    $38
3DE2 80        9450:                    +:138E-*-1+$80
  3DE3         9451: :138E              EQU     *
3DE3 800E      9452:                    ((:138F-*)&$3FFF)+$8000
  01FE         9453: OPFNCALL           EQU     .SC
  01FF         9454: .SC                SET     .SC+1
3DE5 01FE      9455:                    OPFNCALL
3DE7 2F        9456:                    $2F
3DE8 D4        9457:                    ADDR
3DE9 3201      9458:                    $32,1
3DEB 2F        9459:                    $2F
3DEC D3        9460:                    BYTE
3DED F9        9461:                    GENLBL
3DEE 3301      9462:                    $33,1
3DF0 2F        9463:                    $2F
  3DF1         9464: :138F              EQU     *
3DF1 29        9465:                    $29
  3DF2         9466: .                  SET     *
  0F2F         9467:                    ORG     NOTSOCLEARTERM*2+.SA
0F2F 3DF2      9468:                    #.
  3DF2         9469:                    ORG     .
3DF2 21        9470:                    $21
               9471:                    FCC     ''
3DF3 A8        9472:                    '(+$80
3DF4 8037      9473:                    ((:1390-*)&$3FFF)+$8000
3DF6 3B0106    9474:                    $3B,RESULT,ADDRESSANYTYPE
3DF9 4005      9475:                    ((:1391-*)&$3FFF)+$4000
3DFB 3B0107    9476:                    $3B,RESULT,ADDRESSSCALARTYPE
  3DFE         9477: :1391              EQU     *
3DFE 8005      9478:                    ((:1392-*)&$3FFF)+$8000
3E00 3A0101    9479:                    $3A,RESULT,NUMERICTYPE
  3E03         9480: :1392              EQU     *
3E03 4003      9481:                    ((:1393-*)&$3FFF)+$4000




ASM/6800 1.3H4: 3E05                    
08/16/82 00:00:00; Page 238; Form 1     
B2.ASM
3E05 34        9482:                    $34
  3E06         9483: :1393              EQU     *
3E06 2C        9484:                    $2C
3E07 01BE      9485:                    EXPRESSION
3E09 2C        9486:                    $2C
3E0A 21        9487:                    $21
               9488:                    FCC     ''
3E0B AC        9489:                    ',+$80
3E0C 801A      9490:                    ((:1394-*)&$3FFF)+$8000
3E0E 013A      9491:                    OPLINT
3E10 2F        9492:                    $2F
3E11 D5        9493:                    INTEGER
3E12 30        9494:                    $30
3E13 3235      9495:                    FCC     '25'
3E15 B6        9496:                    '6+$80
3E16 2F        9497:                    $2F
3E17 01E5      9498:                    OPMUL
3E19 2F        9499:                    $2F
3E1A 01BE      9500:                    EXPRESSION
3E1C 2C        9501:                    $2C
3E1D 21        9502:                    $21
               9503:                    FCC     ''
3E1E A9        9504:                    ')+$80
3E1F 2C        9505:                    $2C
3E20 01DE      9506:                    OPADD
3E22 2F        9507:                    $2F
3E23 0178      9508:                    VARIABLEONLY
3E25 2C        9509:                    $2C
  3E26         9510: :1394              EQU     *
3E26 4004      9511:                    ((:1395-*)&$3FFF)+$4000
3E28 21        9512:                    $21
               9513:                    FCC     ''
3E29 A9        9514:                    ')+$80
  3E2A         9515: :1395              EQU     *
3E2A 2C        9516:                    $2C
  3E2B         9517: :1390              EQU     *
3E2B 2A        9518:                    $2A
  01FF         9519: BUILTINSTRFUN      EQU     .SC
  0200         9520: .SC                SET     .SC+1
3E2C 01FF      9521:                    BUILTINSTRFUN




ASM/6800 1.3H4: 3E2E                    
08/16/82 00:00:00; Page 239; Form 1     
B2.ASM
3E2E 2A        9522:                    $2A
3E2F 3E1300    9523:                    $3E,#IF
3E32 805D      9524:                    ((:1396-*)&$3FFF)+$8000
3E34 3B0100    9525:                    $3B,RESULT,NUMORBOOLTYPE
3E37 400A      9526:                    ((:1397-*)&$3FFF)+$4000
3E39 3B0101    9527:                    $3B,RESULT,NUMERICTYPE
3E3C 4005      9528:                    ((:1397-*)&$3FFF)+$4000
3E3E 3B0107    9529:                    $3B,RESULT,ADDRESSSCALARTYPE
  3E41         9530: :1397              EQU     *
3E41 8009      9531:                    ((:1398-*)&$3FFF)+$8000
  0200         9532: CONDITIONBF        EQU     .SC
  0201         9533: .SC                SET     .SC+1
3E43 0200      9534:                    CONDITIONBF
3E45 38        9535:                    $38
3E46 80        9536:                    +:1399-*-1+$80
  3E47         9537: :1399              EQU     *
3E47 2C        9538:                    $2C
3E48 DA        9539:                    NUMEXP
3E49 2C        9540:                    $2C
  3E4A         9541: :1398              EQU     *
3E4A 4026      9542:                    ((:139A-*)&$3FFF)+$4000
3E4C 3B0103    9543:                    $3B,RESULT,NUMBOOLORSTRTYPE
3E4F 4005      9544:                    ((:139B-*)&$3FFF)+$4000
3E51 3B0106    9545:                    $3B,RESULT,ADDRESSANYTYPE
  3E54         9546: :139B              EQU     *
3E54 800A      9547:                    ((:139C-*)&$3FFF)+$8000
3E56 0200      9548:                    CONDITIONBF
3E58 38        9549:                    $38
3E59 80        9550:                    +:139D-*-1+$80
  3E5A         9551: :139D              EQU     *
3E5A 2C        9552:                    $2C
3E5B 016E      9553:                    NUMORSTREXP
3E5D 2C        9554:                    $2C
  3E5E         9555: :139C              EQU     *
3E5E 4012      9556:                    ((:139A-*)&$3FFF)+$4000
3E60 3B0105    9557:                    $3B,RESULT,STRINGTYPE
3E63 8009      9558:                    ((:139E-*)&$3FFF)+$8000
3E65 0200      9559:                    CONDITIONBF
3E67 38        9560:                    $38
3E68 80        9561:                    +:139F-*-1+$80




ASM/6800 1.3H4: 3E68                    
08/16/82 00:00:00; Page 240; Form 1     
B2.ASM
  3E69         9562: :139F              EQU     *
3E69 2C        9563:                    $2C
3E6A DC        9564:                    STREXP
3E6B 2C        9565:                    $2C
  3E6C         9566: :139E              EQU     *
3E6C 4004      9567:                    ((:139A-*)&$3FFF)+$4000
3E6E 01CB      9568:                    WRONGTYPE
  3E70         9569: :139A              EQU     *
3E70 2C        9570:                    $2C
3E71 C3        9571:                    OPTENDOFLINE
3E72 2C        9572:                    $2C
3E73 F8        9573:                    OPJMP
3E74 2F        9574:                    $2F
3E75 D4        9575:                    ADDR
3E76 F9        9576:                    GENLBL
3E77 3302      9577:                    $33,2
3E79 2F        9578:                    $2F
3E7A F9        9579:                    GENLBL
3E7B 3301      9580:                    $33,1
3E7D D2        9581:                    EQUHERE
3E7E 2F        9582:                    $2F
3E7F 3E1312    9583:                    $3E,#ELSE
3E82 2C        9584:                    $2C
3E83 01BE      9585:                    EXPRESSION
3E85 2C        9586:                    $2C
3E86 3E1328    9587:                    $3E,#FI
3E89 2C        9588:                    $2C
3E8A F9        9589:                    GENLBL
3E8B 3302      9590:                    $33,2
3E8D D2        9591:                    EQUHERE
3E8E 2F        9592:                    $2F
  3E8F         9593: :1396              EQU     *
3E8F 29        9594:                    $29
  3E90         9595: .                  SET     *
  0F49         9596:                    ORG     CONDITIONBF*2+.SA
0F49 3E90      9597:                    #.
  3E90         9598:                    ORG     .
3E90 0163      9599:                    CONDITION
3E92 8010      9600:                    ((:13A0-*)&$3FFF)+$8000
3E94 C3        9601:                    OPTENDOFLINE




ASM/6800 1.3H4: 3E95                    
08/16/82 00:00:00; Page 241; Form 1     
B2.ASM
3E95 2C        9602:                    $2C
3E96 0164      9603:                    OPBF
3E98 2F        9604:                    $2F
3E99 D4        9605:                    ADDR
3E9A F9        9606:                    GENLBL
3E9B 3301      9607:                    $33,1
3E9D 2F        9608:                    $2F
3E9E 3E1308    9609:                    $3E,#THEN
3EA1 2C        9610:                    $2C
  3EA2         9611: :13A0              EQU     *
3EA2 29        9612:                    $29
  0201         9613: NOTARITHOP         EQU     .SC
  0202         9614: .SC                SET     .SC+1
  3EA3         9615: .                  SET     *
  0F4B         9616:                    ORG     NOTARITHOP*2+.SA
0F4B 3EA3      9617:                    #.
  3EA3         9618:                    ORG     .
3EA3 21        9619:                    $21
               9620:                    FCC     ''
3EA4 AB        9621:                    '++$80
3EA5 22        9622:                    $22
3EA6 802D      9623:                    ((:13A1-*)&$3FFF)+$8000
3EA8 21        9624:                    $21
               9625:                    FCC     ''
3EA9 AD        9626:                    '-+$80
3EAA 22        9627:                    $22
3EAB 8028      9628:                    ((:13A1-*)&$3FFF)+$8000
3EAD 21        9629:                    $21
               9630:                    FCC     ''
3EAE A1        9631:                    '!+$80
3EAF 22        9632:                    $22
3EB0 8023      9633:                    ((:13A1-*)&$3FFF)+$8000
3EB2 3E151D    9634:                    $3E,#XOR
3EB5 22        9635:                    $22
3EB6 801D      9636:                    ((:13A1-*)&$3FFF)+$8000
3EB8 21        9637:                    $21
3EB9 2A        9638:                    FCC     '*'
3EBA AA        9639:                    '*+$80
3EBB 22        9640:                    $22
3EBC 8017      9641:                    ((:13A1-*)&$3FFF)+$8000




ASM/6800 1.3H4: 3EBE                    
08/16/82 00:00:00; Page 242; Form 1     
B2.ASM
3EBE 21        9642:                    $21
               9643:                    FCC     ''
3EBF AA        9644:                    '*+$80
3EC0 22        9645:                    $22
3EC1 8012      9646:                    ((:13A1-*)&$3FFF)+$8000
3EC3 21        9647:                    $21
               9648:                    FCC     ''
3EC4 AF        9649:                    '/+$80
3EC5 22        9650:                    $22
3EC6 800D      9651:                    ((:13A1-*)&$3FFF)+$8000
3EC8 21        9652:                    $21
               9653:                    FCC     ''
3EC9 A6        9654:                    '&+$80
3ECA 22        9655:                    $22
3ECB 8008      9656:                    ((:13A1-*)&$3FFF)+$8000
3ECD 21        9657:                    $21
               9658:                    FCC     ''
3ECE DE        9659:                    '^+$80
3ECF 22        9660:                    $22
3ED0 8003      9661:                    ((:13A1-*)&$3FFF)+$8000
3ED2 34        9662:                    $34
  3ED3         9663: :13A1              EQU     *
3ED3 29        9664:                    $29
  3ED4         9665: .                  SET     *
  0F2D         9666:                    ORG     OBVIOUSLYBOOLEANTERM*2+.SA
0F2D 3ED4      9667:                    #.
  3ED4         9668:                    ORG     .
3ED4 3E14DF    9669:                    $3E,#NOT
3ED7 800B      9670:                    ((:13A2-*)&$3FFF)+$8000
3ED9 3A0102    9671:                    $3A,RESULT,BOOLTYPE
3EDC 01C8      9672:                    RELATION
3EDE 2C        9673:                    $2C
  0202         9674: OPINV              EQU     .SC
  0203         9675: .SC                SET     .SC+1
3EDF 0202      9676:                    OPINV
3EE1 2F        9677:                    $2F
  3EE2         9678: :13A2              EQU     *
3EE2 400D      9679:                    ((:13A3-*)&$3FFF)+$4000
3EE4 3E14E8    9680:                    $3E,#EOF
3EE7 8008      9681:                    ((:13A4-*)&$3FFF)+$8000




ASM/6800 1.3H4: 3EE9                    
08/16/82 00:00:00; Page 243; Form 1     
B2.ASM
3EE9 01A0      9682:                    TERMGIVINGNUMERIC
3EEB 2C        9683:                    $2C
  0203         9684: OPEOF              EQU     .SC
  0204         9685: .SC                SET     .SC+1
3EEC 0203      9686:                    OPEOF
3EEE 2F        9687:                    $2F
  3EEF         9688: :13A4              EQU     *
  3EEF         9689: :13A3              EQU     *
3EEF 8005      9690:                    ((:13A5-*)&$3FFF)+$8000
3EF1 3A0102    9691:                    $3A,RESULT,BOOLTYPE
  3EF4         9692: :13A5              EQU     *
3EF4 29        9693:                    $29
  0204         9694: ARRAYREF           EQU     .SC
  0205         9695: .SC                SET     .SC+1
  3EF5         9696: .                  SET     *
  0F51         9697:                    ORG     ARRAYREF*2+.SA
0F51 3EF5      9698:                    #.
  3EF5         9699:                    ORG     .
  0205         9700: ARRAYREF1          EQU     .SC
  0206         9701: .SC                SET     .SC+1
3EF5 0205      9702:                    ARRAYREF1
3EF7 400C      9703:                    ((:13A6-*)&$3FFF)+$4000
3EF9 21        9704:                    $21
               9705:                    FCC     ''
3EFA A8        9706:                    '(+$80
3EFB 8008      9707:                    ((:13A7-*)&$3FFF)+$8000
3EFD 0205      9708:                    ARRAYREF1
3EFF 2C        9709:                    $2C
3F00 21        9710:                    $21
               9711:                    FCC     ''
3F01 A9        9712:                    ')+$80
3F02 2C        9713:                    $2C
  3F03         9714: :13A7              EQU     *
  3F03         9715: :13A6              EQU     *
3F03 8004      9716:                    ((:13A8-*)&$3FFF)+$8000
3F05 3701      9717:                    $37,1
  3F07         9718: :13A8              EQU     *
3F07 29        9719:                    $29
  3F08         9720: .                  SET     *
  0F53         9721:                    ORG     ARRAYREF1*2+.SA




ASM/6800 1.3H4: 0F53                    
08/16/82 00:00:00; Page 244; Form 1     
B2.ASM
0F53 3F08      9722:                    #.
  3F08         9723:                    ORG     .
3F08 06        9724:                    +NID
3F09 8024      9725:                    ((:13A9-*)&$3FFF)+$8000
3F0B 2701      9726:                    $27,VECTOR
3F0D 4008      9727:                    ((:13AA-*)&$3FFF)+$4000
3F0F 2702      9728:                    $27,ARRAY
3F11 4004      9729:                    ((:13AA-*)&$3FFF)+$4000
3F13 01CB      9730:                    WRONGTYPE
  3F15         9731: :13AA              EQU     *
3F15 2C        9732:                    $2C
3F16 270D      9733:                    $27,PARAMETER
3F18 8008      9734:                    ((:13AB-*)&$3FFF)+$8000
3F1A 0143      9735:                    OPLOAD
3F1C 2F        9736:                    $2F
3F1D D6        9737:                    DADDR
3F1E 31        9738:                    $31
3F1F 2F        9739:                    $2F
  3F20         9740: :13AB              EQU     *
3F20 4009      9741:                    ((:13AC-*)&$3FFF)+$4000
3F22 34        9742:                    $34
3F23 015A      9743:                    OPLADDR
3F25 2F        9744:                    $2F
3F26 D6        9745:                    DADDR
3F27 31        9746:                    $31
3F28 2F        9747:                    $2F
  3F29         9748: :13AC              EQU     *
3F29 2C        9749:                    $2C
3F2A 3A0108    9750:                    $3A,RESULT,ADDRESSARRAYTYPE
  3F2D         9751: :13A9              EQU     *
3F2D 4013      9752:                    ((:13AD-*)&$3FFF)+$4000
3F2F 01EF      9753:                    STRVARIABLEORUSERFUNCTIONREF
3F31 800F      9754:                    ((:13AE-*)&$3FFF)+$8000
3F33 3B0105    9755:                    $3B,RESULT,STRINGTYPE
3F36 4009      9756:                    ((:13AF-*)&$3FFF)+$4000
3F38 3B0108    9757:                    $3B,RESULT,ADDRESSARRAYTYPE
3F3B 4004      9758:                    ((:13AF-*)&$3FFF)+$4000
3F3D 01CB      9759:                    WRONGTYPE
  3F3F         9760: :13AF              EQU     *
3F3F 2C        9761:                    $2C




ASM/6800 1.3H4: 3F3F                    
08/16/82 00:00:00; Page 245; Form 1     
B2.ASM
  3F40         9762: :13AE              EQU     *
  3F40         9763: :13AD              EQU     *
3F40 8004      9764:                    ((:13B0-*)&$3FFF)+$8000
3F42 3701      9765:                    $37,1
  3F44         9766: :13B0              EQU     *
3F44 29        9767:                    $29
  3F45         9768: .                  SET     *
  0F29         9769:                    ORG     OBVIOUSLYNUMERICTERM*2+.SA
0F29 3F45      9770:                    #.
  3F45         9771:                    ORG     .
3F45 08        9772:                    +ONEDIGITNUM
3F46 8006      9773:                    ((:13B1-*)&$3FFF)+$8000
3F48 0138      9774:                    OPLSMI
3F4A 31        9775:                    $31
3F4B 2F        9776:                    $2F
  3F4C         9777: :13B1              EQU     *
3F4C 41EE      9778:                    ((:13B2-*)&$3FFF)+$4000
3F4E 09        9779:                    +TENTO255
3F4F 8008      9780:                    ((:13B3-*)&$3FFF)+$8000
3F51 0139      9781:                    OPLBINT
3F53 2F        9782:                    $2F
3F54 D3        9783:                    BYTE
3F55 31        9784:                    $31
3F56 2F        9785:                    $2F
  3F57         9786: :13B3              EQU     *
3F57 41E3      9787:                    ((:13B2-*)&$3FFF)+$4000
3F59 0A        9788:                    +NUM
3F5A 8008      9789:                    ((:13B4-*)&$3FFF)+$8000
3F5C 013A      9790:                    OPLINT
3F5E 2F        9791:                    $2F
3F5F D5        9792:                    INTEGER
3F60 31        9793:                    $31
3F61 2F        9794:                    $2F
  3F62         9795: :13B4              EQU     *
3F62 41D8      9796:                    ((:13B2-*)&$3FFF)+$4000
3F64 12        9797:                    +FNUM
3F65 800B      9798:                    ((:13B5-*)&$3FFF)+$8000
3F67 013B      9799:                    OPLFI
3F69 2F        9800:                    $2F
3F6A 0136      9801:                    SIXBYTEFNUM




ASM/6800 1.3H4: 3F6C                    
08/16/82 00:00:00; Page 246; Form 1     
B2.ASM
3F6C 38        9802:                    $38
3F6D 01        9803:                    +:13B6-*-1
3F6E 01        9804:                    +1
  3F6F         9805: :13B6              EQU     *
3F6F 2F        9806:                    $2F
  3F70         9807: :13B5              EQU     *
3F70 41CA      9808:                    ((:13B2-*)&$3FFF)+$4000
3F72 21        9809:                    $21
               9810:                    FCC     ''
3F73 BA        9811:                    ':+$80
3F74 800C      9812:                    ((:13B7-*)&$3FFF)+$8000
3F76 0B        9813:                    +HEXNUM
3F77 2C        9814:                    $2C
3F78 013A      9815:                    OPLINT
3F7A 2F        9816:                    $2F
3F7B D5        9817:                    INTEGER
3F7C 30        9818:                    $30
               9819:                    FCC     ''
3F7D A4        9820:                    '$+$80
3F7E 31        9821:                    $31
3F7F 2F        9822:                    $2F
  3F80         9823: :13B7              EQU     *
3F80 41BA      9824:                    ((:13B2-*)&$3FFF)+$4000
3F82 21        9825:                    $21
               9826:                    FCC     ''
3F83 AD        9827:                    '-+$80
3F84 8008      9828:                    ((:13B8-*)&$3FFF)+$8000
3F86 01A0      9829:                    TERMGIVINGNUMERIC
3F88 2C        9830:                    $2C
  0206         9831: OPNEG              EQU     .SC
  0207         9832: .SC                SET     .SC+1
3F89 0206      9833:                    OPNEG
3F8B 2F        9834:                    $2F
  3F8C         9835: :13B8              EQU     *
3F8C 41AE      9836:                    ((:13B2-*)&$3FFF)+$4000
3F8E 3E13E2    9837:                    $3E,#LEN
3F91 802E      9838:                    ((:13B9-*)&$3FFF)+$8000
3F93 0204      9839:                    ARRAYREF
3F95 2C        9840:                    $2C
3F96 280101    9841:                    $28,1,VECTOR




ASM/6800 1.3H4: 3F99                    
08/16/82 00:00:00; Page 247; Form 1     
B2.ASM
3F99 8005      9842:                    ((:13BA-*)&$3FFF)+$8000
  0207         9843: OPLENVECTOR        EQU     .SC
  0208         9844: .SC                SET     .SC+1
3F9B 0207      9845:                    OPLENVECTOR
3F9D 2F        9846:                    $2F
  3F9E         9847: :13BA              EQU     *
3F9E 4020      9848:                    ((:13BB-*)&$3FFF)+$4000
3FA0 3B0105    9849:                    $3B,RESULT,STRINGTYPE
3FA3 8005      9850:                    ((:13BC-*)&$3FFF)+$8000
  0208         9851: OPLEN              EQU     .SC
  0209         9852: .SC                SET     .SC+1
3FA5 0208      9853:                    OPLEN
3FA7 2F        9854:                    $2F
  3FA8         9855: :13BC              EQU     *
3FA8 4016      9856:                    ((:13BB-*)&$3FFF)+$4000
3FAA 3B0108    9857:                    $3B,RESULT,ADDRESSARRAYTYPE
3FAD 800D      9858:                    ((:13BD-*)&$3FFF)+$8000
3FAF 28010F    9859:                    $28,1,STRARRAY
3FB2 4004      9860:                    ((:13BE-*)&$3FFF)+$4000
3FB4 01CB      9861:                    WRONGTYPE
  3FB6         9862: :13BE              EQU     *
3FB6 2C        9863:                    $2C
3FB7 0207      9864:                    OPLENVECTOR
3FB9 2F        9865:                    $2F
  3FBA         9866: :13BD              EQU     *
3FBA 4004      9867:                    ((:13BB-*)&$3FFF)+$4000
3FBC 01CB      9868:                    WRONGTYPE
  3FBE         9869: :13BB              EQU     *
3FBE 2C        9870:                    $2C
  3FBF         9871: :13B9              EQU     *
3FBF 417B      9872:                    ((:13B2-*)&$3FFF)+$4000
3FC1 3E13EB    9873:                    $3E,#MAXLEN
3FC4 8027      9874:                    ((:13BF-*)&$3FFF)+$8000
3FC6 0204      9875:                    ARRAYREF
3FC8 2C        9876:                    $2C
3FC9 3B0105    9877:                    $3B,RESULT,STRINGTYPE
3FCC 401B      9878:                    ((:13C0-*)&$3FFF)+$4000
3FCE 28010F    9879:                    $28,1,STRARRAY
3FD1 8012      9880:                    ((:13C1-*)&$3FFF)+$8000
3FD3 3B0108    9881:                    $3B,RESULT,ADDRESSARRAYTYPE




ASM/6800 1.3H4: 3FD6                    
08/16/82 00:00:00; Page 248; Form 1     
B2.ASM
3FD6 4004      9882:                    ((:13C2-*)&$3FFF)+$4000
3FD8 01CB      9883:                    WRONGTYPE
  3FDA         9884: :13C2              EQU     *
3FDA 2C        9885:                    $2C
3FDB 0138      9886:                    OPLSMI
3FDD 30        9887:                    $30
               9888:                    FCC     ''
3FDE B1        9889:                    '1+$80
3FDF 2F        9890:                    $2F
3FE0 015B      9891:                    OPSSA
3FE2 2F        9892:                    $2F
  3FE3         9893: :13C1              EQU     *
3FE3 4004      9894:                    ((:13C0-*)&$3FFF)+$4000
3FE5 01CB      9895:                    WRONGTYPE
  3FE7         9896: :13C0              EQU     *
3FE7 2C        9897:                    $2C
  0209         9898: OPMAXLEN           EQU     .SC
  020A         9899: .SC                SET     .SC+1
3FE8 0209      9900:                    OPMAXLEN
3FEA 2F        9901:                    $2F
  3FEB         9902: :13BF              EQU     *
3FEB 414F      9903:                    ((:13B2-*)&$3FFF)+$4000
3FED 3E14F1    9904:                    $3E,#ROWS
3FF0 8012      9905:                    ((:13C3-*)&$3FFF)+$8000
3FF2 0204      9906:                    ARRAYREF
3FF4 2C        9907:                    $2C
3FF5 280102    9908:                    $28,1,ARRAY
3FF8 8005      9909:                    ((:13C4-*)&$3FFF)+$8000
  020A         9910: OPROWSARRAY        EQU     .SC
  020B         9911: .SC                SET     .SC+1
3FFA 020A      9912:                    OPROWSARRAY
3FFC 2F        9913:                    $2F
  3FFD         9914: :13C4              EQU     *
3FFD 4004      9915:                    ((:13C5-*)&$3FFF)+$4000
3FFF 01CB      9916:                    WRONGTYPE
  4001         9917: :13C5              EQU     *
4001 2C        9918:                    $2C
  4002         9919: :13C3              EQU     *
4002 4138      9920:                    ((:13B2-*)&$3FFF)+$4000
4004 3E14FB    9921:                    $3E,#COLUMNS




ASM/6800 1.3H4: 4007                    
08/16/82 00:00:00; Page 249; Form 1     
B2.ASM
4007 8010      9922:                    ((:13C6-*)&$3FFF)+$8000
4009 0204      9923:                    ARRAYREF
400B 2C        9924:                    $2C
400C 280102    9925:                    $28,1,ARRAY
400F 4004      9926:                    ((:13C7-*)&$3FFF)+$4000
4011 01CB      9927:                    WRONGTYPE
  4013         9928: :13C7              EQU     *
4013 2C        9929:                    $2C
  020B         9930: OPCOLSARRAY        EQU     .SC
  020C         9931: .SC                SET     .SC+1
4014 020B      9932:                    OPCOLSARRAY
4016 2F        9933:                    $2F
  4017         9934: :13C6              EQU     *
4017 4123      9935:                    ((:13B2-*)&$3FFF)+$4000
4019 3E142B    9936:                    $3E,#COM
401C 8008      9937:                    ((:13C8-*)&$3FFF)+$8000
401E 01A0      9938:                    TERMGIVINGNUMERIC
4020 2C        9939:                    $2C
  020C         9940: OPCOM              EQU     .SC
  020D         9941: .SC                SET     .SC+1
4021 020C      9942:                    OPCOM
4023 2F        9943:                    $2F
  4024         9944: :13C8              EQU     *
4024 4116      9945:                    ((:13B2-*)&$3FFF)+$4000
4026 3E1434    9946:                    $3E,#ATN
4029 8008      9947:                    ((:13C9-*)&$3FFF)+$8000
402B 01A0      9948:                    TERMGIVINGNUMERIC
402D 2C        9949:                    $2C
  020D         9950: OPATN              EQU     .SC
  020E         9951: .SC                SET     .SC+1
402E 020D      9952:                    OPATN
4030 2F        9953:                    $2F
  4031         9954: :13C9              EQU     *
4031 4109      9955:                    ((:13B2-*)&$3FFF)+$4000
4033 3E143D    9956:                    $3E,#SIN
4036 8008      9957:                    ((:13CA-*)&$3FFF)+$8000
4038 01A0      9958:                    TERMGIVINGNUMERIC
403A 2C        9959:                    $2C
  020E         9960: OPSIN              EQU     .SC
  020F         9961: .SC                SET     .SC+1




ASM/6800 1.3H4: 403B                    
08/16/82 00:00:00; Page 250; Form 1     
B2.ASM
403B 020E      9962:                    OPSIN
403D 2F        9963:                    $2F
  403E         9964: :13CA              EQU     *
403E 40FC      9965:                    ((:13B2-*)&$3FFF)+$4000
4040 3E1446    9966:                    $3E,#COS
4043 8008      9967:                    ((:13CB-*)&$3FFF)+$8000
4045 01A0      9968:                    TERMGIVINGNUMERIC
4047 2C        9969:                    $2C
  020F         9970: OPCOS              EQU     .SC
  0210         9971: .SC                SET     .SC+1
4048 020F      9972:                    OPCOS
404A 2F        9973:                    $2F
  404B         9974: :13CB              EQU     *
404B 40EF      9975:                    ((:13B2-*)&$3FFF)+$4000
404D 3E144F    9976:                    $3E,#TAN
4050 8008      9977:                    ((:13CC-*)&$3FFF)+$8000
4052 01A0      9978:                    TERMGIVINGNUMERIC
4054 2C        9979:                    $2C
  0210         9980: OPTAN              EQU     .SC
  0211         9981: .SC                SET     .SC+1
4055 0210      9982:                    OPTAN
4057 2F        9983:                    $2F
  4058         9984: :13CC              EQU     *
4058 40E2      9985:                    ((:13B2-*)&$3FFF)+$4000
405A 3E1458    9986:                    $3E,#LOG
405D 8008      9987:                    ((:13CD-*)&$3FFF)+$8000
405F 01A0      9988:                    TERMGIVINGNUMERIC
4061 2C        9989:                    $2C
  0211         9990: OPLOG              EQU     .SC
  0212         9991: .SC                SET     .SC+1
4062 0211      9992:                    OPLOG
4064 2F        9993:                    $2F
  4065         9994: :13CD              EQU     *
4065 40D5      9995:                    ((:13B2-*)&$3FFF)+$4000
4067 3E1461    9996:                    $3E,#EXP
406A 8008      9997:                    ((:13CE-*)&$3FFF)+$8000
406C 01A0      9998:                    TERMGIVINGNUMERIC
406E 2C        9999:                    $2C
  0212            0: OPEXP              EQU     .SC
  0213            1: .SC                SET     .SC+1




ASM/6800 1.3H4: 406F                    
08/16/82 00:00:00; Page 251; Form 1     
B2.ASM
406F 0212         2:                    OPEXP
4071 2F           3:                    $2F
  4072            4: :13CE              EQU     *
4072 40C8         5:                    ((:13B2-*)&$3FFF)+$4000
4074 3E146A       6:                    $3E,#SQR
4077 8008         7:                    ((:13CF-*)&$3FFF)+$8000
4079 01A0         8:                    TERMGIVINGNUMERIC
407B 2C           9:                    $2C
  0213           10: OPSQR              EQU     .SC
  0214           11: .SC                SET     .SC+1
407C 0213        12:                    OPSQR
407E 2F          13:                    $2F
  407F           14: :13CF              EQU     *
407F 40BB        15:                    ((:13B2-*)&$3FFF)+$4000
4081 3E1473      16:                    $3E,#INT
4084 8008        17:                    ((:13D0-*)&$3FFF)+$8000
4086 01A0        18:                    TERMGIVINGNUMERIC
4088 2C          19:                    $2C
  0214           20: OPINT              EQU     .SC
  0215           21: .SC                SET     .SC+1
4089 0214        22:                    OPINT
408B 2F          23:                    $2F
  408C           24: :13D0              EQU     *
408C 40AE        25:                    ((:13B2-*)&$3FFF)+$4000
408E 3E147C      26:                    $3E,#ABS
4091 8008        27:                    ((:13D1-*)&$3FFF)+$8000
4093 01A0        28:                    TERMGIVINGNUMERIC
4095 2C          29:                    $2C
  0215           30: OPABS              EQU     .SC
  0216           31: .SC                SET     .SC+1
4096 0215        32:                    OPABS
4098 2F          33:                    $2F
  4099           34: :13D1              EQU     *
4099 40A1        35:                    ((:13B2-*)&$3FFF)+$4000
409B 3E1485      36:                    $3E,#SGN
409E 8008        37:                    ((:13D2-*)&$3FFF)+$8000
40A0 01A0        38:                    TERMGIVINGNUMERIC
40A2 2C          39:                    $2C
  0216           40: OPSGN              EQU     .SC
  0217           41: .SC                SET     .SC+1




ASM/6800 1.3H4: 40A3                    
08/16/82 00:00:00; Page 252; Form 1     
B2.ASM
40A3 0216        42:                    OPSGN
40A5 2F          43:                    $2F
  40A6           44: :13D2              EQU     *
40A6 4094        45:                    ((:13B2-*)&$3FFF)+$4000
40A8 3E148E      46:                    $3E,#COL
40AB 8008        47:                    ((:13D3-*)&$3FFF)+$8000
40AD 01A0        48:                    TERMGIVINGNUMERIC
40AF 2C          49:                    $2C
  0217           50: OPCOL              EQU     .SC
  0218           51: .SC                SET     .SC+1
40B0 0217        52:                    OPCOL
40B2 2F          53:                    $2F
  40B3           54: :13D3              EQU     *
40B3 4087        55:                    ((:13B2-*)&$3FFF)+$4000
40B5 3E1497      56:                    $3E,#VAL
40B8 8008        57:                    ((:13D4-*)&$3FFF)+$8000
40BA 01ED        58:                    TERMGIVINGSTRING
40BC 2C          59:                    $2C
  0218           60: OPVAL              EQU     .SC
  0219           61: .SC                SET     .SC+1
40BD 0218        62:                    OPVAL
40BF 2F          63:                    $2F
  40C0           64: :13D4              EQU     *
40C0 407A        65:                    ((:13B2-*)&$3FFF)+$4000
40C2 3E14A0      66:                    $3E,#PEEK
40C5 8008        67:                    ((:13D5-*)&$3FFF)+$8000
40C7 01A0        68:                    TERMGIVINGNUMERIC
40C9 2C          69:                    $2C
  0219           70: OPEEK              EQU     .SC
  021A           71: .SC                SET     .SC+1
40CA 0219        72:                    OPEEK
40CC 2F          73:                    $2F
  40CD           74: :13D5              EQU     *
40CD 406D        75:                    ((:13B2-*)&$3FFF)+$4000
40CF 3E1418      76:                    $3E,#ASC
40D2 8008        77:                    ((:13D6-*)&$3FFF)+$8000
40D4 01ED        78:                    TERMGIVINGSTRING
40D6 2C          79:                    $2C
  021A           80: OPLDB              EQU     .SC
  021B           81: .SC                SET     .SC+1




ASM/6800 1.3H4: 40D7                    
08/16/82 00:00:00; Page 253; Form 1     
B2.ASM
40D7 021A        82:                    OPLDB
40D9 2F          83:                    $2F
  40DA           84: :13D6              EQU     *
40DA 4060        85:                    ((:13B2-*)&$3FFF)+$4000
40DC 3E14AA      86:                    $3E,#FIND
40DF 8012        87:                    ((:13D7-*)&$3FFF)+$8000
40E1 21          88:                    $21
                 89:                    FCC     ''
40E2 A8          90:                    '(+$80
40E3 2C          91:                    $2C
40E4 DC          92:                    STREXP
40E5 2C          93:                    $2C
40E6 21          94:                    $21
                 95:                    FCC     ''
40E7 AC          96:                    ',+$80
40E8 2C          97:                    $2C
40E9 DC          98:                    STREXP
40EA 2C          99:                    $2C
40EB 21         100:                    $21
                101:                    FCC     ''
40EC A9         102:                    ')+$80
40ED 2C         103:                    $2C
  021B          104: OPFIND             EQU     .SC
  021C          105: .SC                SET     .SC+1
40EE 021B       106:                    OPFIND
40F0 2F         107:                    $2F
  40F1          108: :13D7              EQU     *
40F1 4049       109:                    ((:13B2-*)&$3FFF)+$4000
40F3 3E14B4     110:                    $3E,#RND
40F6 8005       111:                    ((:13D8-*)&$3FFF)+$8000
  021C          112: OPRND              EQU     .SC
  021D          113: .SC                SET     .SC+1
40F8 021C       114:                    OPRND
40FA 2F         115:                    $2F
  40FB          116: :13D8              EQU     *
40FB 403F       117:                    ((:13B2-*)&$3FFF)+$4000
40FD 3E14BD     118:                    $3E,#ERR
4100 8005       119:                    ((:13D9-*)&$3FFF)+$8000
  021D          120: OPERR              EQU     .SC
  021E          121: .SC                SET     .SC+1




ASM/6800 1.3H4: 4102                    
08/16/82 00:00:00; Page 254; Form 1     
B2.ASM
4102 021D       122:                    OPERR
4104 2F         123:                    $2F
  4105          124: :13D9              EQU     *
4105 4035       125:                    ((:13B2-*)&$3FFF)+$4000
4107 3E11F6     126:                    $3E,#ELN
410A 8005       127:                    ((:13DA-*)&$3FFF)+$8000
  021E          128: OPELN              EQU     .SC
  021F          129: .SC                SET     .SC+1
410C 021E       130:                    OPELN
410E 2F         131:                    $2F
  410F          132: :13DA              EQU     *
410F 402B       133:                    ((:13B2-*)&$3FFF)+$4000
4111 3E14C6     134:                    $3E,#PI
4114 8005       135:                    ((:13DB-*)&$3FFF)+$8000
  021F          136: OPPI               EQU     .SC
  0220          137: .SC                SET     .SC+1
4116 021F       138:                    OPPI
4118 2F         139:                    $2F
  4119          140: :13DB              EQU     *
4119 4021       141:                    ((:13B2-*)&$3FFF)+$4000
411B 3E1508     142:                    $3E,#TRUE
411E 8007       143:                    ((:13DC-*)&$3FFF)+$8000
4120 0138       144:                    OPLSMI
4122 30         145:                    $30
                146:                    FCC     ''
4123 B1         147:                    '1+$80
4124 2F         148:                    $2F
  4125          149: :13DC              EQU     *
4125 4015       150:                    ((:13B2-*)&$3FFF)+$4000
4127 3E1512     151:                    $3E,#FALSE
412A 8007       152:                    ((:13DD-*)&$3FFF)+$8000
412C 0138       153:                    OPLSMI
412E 30         154:                    $30
                155:                    FCC     ''
412F B0         156:                    '0+$80
4130 2F         157:                    $2F
  4131          158: :13DD              EQU     *
4131 4009       159:                    ((:13B2-*)&$3FFF)+$4000
4133 21         160:                    $21
                161:                    FCC     ''




ASM/6800 1.3H4: 4134                    
08/16/82 00:00:00; Page 255; Form 1     
B2.ASM
4134 AB         162:                    '++$80
4135 8005       163:                    ((:13DE-*)&$3FFF)+$8000
4137 01A0       164:                    TERMGIVINGNUMERIC
4139 2C         165:                    $2C
  413A          166: :13DE              EQU     *
  413A          167: :13B2              EQU     *
413A 8005       168:                    ((:13DF-*)&$3FFF)+$8000
413C 3A0101     169:                    $3A,RESULT,NUMERICTYPE
  413F          170: :13DF              EQU     *
413F 29         171:                    $29
  4140          172: .                  SET     *
  0E07          173:                    ORG     DEFSCALAR*2+.SA
0E07 4140       174:                    #.
  4140          175:                    ORG     .
4140 06         176:                    +NID
4141 805D       177:                    ((:13E0-*)&$3FFF)+$8000
4143 3701       178:                    $37,1
4145 2705       179:                    $27,SCALAR
4147 8005       180:                    ((:13E1-*)&$3FFF)+$8000
4149 0140       181:                    NOSUBSCRIPTS
414B 2C         182:                    $2C
  414C          183: :13E1              EQU     *
414C 4051       184:                    ((:13E2-*)&$3FFF)+$4000
414E 270D       185:                    $27,PARAMETER
4150 8005       186:                    ((:13E3-*)&$3FFF)+$8000
4152 010E       187:                    NOPARAMETERSHERE
4154 2C         188:                    $2C
  4155          189: :13E3              EQU     *
4155 4048       190:                    ((:13E2-*)&$3FFF)+$4000
4157 2701       191:                    $27,VECTOR
4159 4004       192:                    ((:13E4-*)&$3FFF)+$4000
415B 2702       193:                    $27,ARRAY
  415D          194: :13E4              EQU     *
415D 8005       195:                    ((:13E5-*)&$3FFF)+$8000
415F 0109       196:                    NOSUBVARS
4161 2C         197:                    $2C
  4162          198: :13E5              EQU     *
4162 403B       199:                    ((:13E2-*)&$3FFF)+$4000
4164 2707       200:                    $27,ISLABEL
4166 4004       201:                    ((:13E6-*)&$3FFF)+$4000




ASM/6800 1.3H4: 4168                    
08/16/82 00:00:00; Page 256; Form 1     
B2.ASM
4168 2706       202:                    $27,FREFLABEL
  416A          203: :13E6              EQU     *
416A 8005       204:                    ((:13E7-*)&$3FFF)+$8000
416C 010A       205:                    CANTSTORELABEL
416E 2C         206:                    $2C
  416F          207: :13E7              EQU     *
416F 402E       208:                    ((:13E2-*)&$3FFF)+$4000
4171 2708       209:                    $27,POTENTIALLABEL
4173 800C       210:                    ((:13E8-*)&$3FFF)+$8000
4175 2508       211:                    $25,POTENTIALLABEL
4177 2C         212:                    $2C
4178 31         213:                    $31
4179 FD         214:                    EQUDATA
417A 2F         215:                    $2F
417B FE         216:                    RESDATA
417C 30         217:                    $30
                218:                    FCC     ''
417D B6         219:                    '6+$80
417E 2F         220:                    $2F
  417F          221: :13E8              EQU     *
417F 4004       222:                    ((:13E9-*)&$3FFF)+$4000
4181 2709       223:                    $27,COMMONSCALAR
  4183          224: :13E9              EQU     *
4183 8005       225:                    ((:13EA-*)&$3FFF)+$8000
4185 0140       226:                    NOSUBSCRIPTS
4187 2C         227:                    $2C
  4188          228: :13EA              EQU     *
4188 4015       229:                    ((:13E2-*)&$3FFF)+$4000
418A 2703       230:                    $27,FUNCTION
418C 8005       231:                    ((:13EB-*)&$3FFF)+$8000
418E 0106       232:                    NOFUNCTSHERE
4190 2C         233:                    $2C
  4191          234: :13EB              EQU     *
4191 400C       235:                    ((:13E2-*)&$3FFF)+$4000
4193 0140       236:                    NOSUBSCRIPTS
4195 8008       237:                    ((:13EC-*)&$3FFF)+$8000
4197 2305       238:                    $23,SCALAR
4199 31         239:                    $31
419A 0135       240:                    ALLOCATESCALAR
419C 2F         241:                    $2F




ASM/6800 1.3H4: 419C                    
08/16/82 00:00:00; Page 257; Form 1     
B2.ASM
  419D          242: :13EC              EQU     *
  419D          243: :13E2              EQU     *
419D 2C         244:                    $2C
  419E          245: :13E0              EQU     *
419E 29         246:                    $29
  419F          247: .                  SET     *
  0DF3          248:                    ORG     DEFSID*2+.SA
0DF3 419F       249:                    #.
  419F          250:                    ORG     .
419F 07         251:                    +SID
41A0 800C       252:                    ((:13ED-*)&$3FFF)+$8000
41A2 0150       253:                    STRVARREF
41A4 38         254:                    $38
41A5 01         255:                    +:13EE-*-1
41A6 01         256:                    +1
  41A7          257: :13EE              EQU     *
41A7 4004       258:                    ((:13EF-*)&$3FFF)+$4000
41A9 010B       259:                    UDFSID
  41AB          260: :13EF              EQU     *
41AB 2C         261:                    $2C
  41AC          262: :13ED              EQU     *
41AC 29         263:                    $29
  41AD          264: .                  SET     *
  0DC9          265:                    ORG     NOSUBSCRIPTS*2+.SA
0DC9 41AD       266:                    #.
  41AD          267:                    ORG     .
41AD C1         268:                    LB
41AE 8029       269:                    ((:13F0-*)&$3FFF)+$8000
41B0 2D         270:                    $2D
41B1 56617269   271:                    FCC     "Variable not DIM'ed as vector or arra"
41D6 F9         272:                    'y+$80
  41D7          273: :13F0              EQU     *
41D7 2A         274:                    $2A
41D8 34         275:                    $34
41D9 29         276:                    $29
  41DA          277: .                  SET     *
  0DD3          278:                    ORG     ONESUBSCRIPT*2+.SA
0DD3 41DA       279:                    #.
  41DA          280:                    ORG     .
41DA C1         281:                    LB




ASM/6800 1.3H4: 41DB                    
08/16/82 00:00:00; Page 258; Form 1     
B2.ASM
41DB 8007       282:                    ((:13F1-*)&$3FFF)+$8000
41DD DA         283:                    NUMEXP
41DE 2C         284:                    $2C
41DF 01F5       285:                    ONESUB1
41E1 2C         286:                    $2C
  41E2          287: :13F1              EQU     *
41E2 2A         288:                    $2A
41E3 0104       289:                    SINGLESUBREQ
41E5 29         290:                    $29
  41E6          291: .                  SET     *
  0F33          292:                    ORG     ONESUB1*2+.SA
0F33 41E6       293:                    #.
  41E6          294:                    ORG     .
41E6 C2         295:                    RB
41E7 2A         296:                    $2A
41E8 0104       297:                    SINGLESUBREQ
41EA 29         298:                    $29
  41EB          299: .                  SET     *
  0DD9          300:                    ORG     TWOSUBSCRIPTS*2+.SA
0DD9 41EB       301:                    #.
  41EB          302:                    ORG     .
41EB C1         303:                    LB
41EC 8007       304:                    ((:13F2-*)&$3FFF)+$8000
41EE DA         305:                    NUMEXP
41EF 2C         306:                    $2C
41F0 01F9       307:                    TWOSUB1
41F2 2C         308:                    $2C
  41F3          309: :13F2              EQU     *
41F3 2A         310:                    $2A
41F4 0105       311:                    DOUBLESUBREQ
41F6 29         312:                    $29
  41F7          313: .                  SET     *
  0F3B          314:                    ORG     TWOSUB1*2+.SA
0F3B 41F7       315:                    #.
  41F7          316:                    ORG     .
41F7 21         317:                    $21
                318:                    FCC     ''
41F8 AC         319:                    ',+$80
41F9 8007       320:                    ((:13F3-*)&$3FFF)+$8000
41FB DA         321:                    NUMEXP




ASM/6800 1.3H4: 41FC                    
08/16/82 00:00:00; Page 259; Form 1     
B2.ASM
41FC 2C         322:                    $2C
  0220          323: TWOSUB2            EQU     .SC
  0221          324: .SC                SET     .SC+1
41FD 0220       325:                    TWOSUB2
41FF 2C         326:                    $2C
  4200          327: :13F3              EQU     *
4200 2A         328:                    $2A
4201 0105       329:                    DOUBLESUBREQ
4203 29         330:                    $29
  4204          331: .                  SET     *
  0F89          332:                    ORG     TWOSUB2*2+.SA
0F89 4204       333:                    #.
  4204          334:                    ORG     .
4204 C2         335:                    RB
4205 2A         336:                    $2A
4206 0105       337:                    DOUBLESUBREQ
4208 29         338:                    $29
  4209          339: .                  SET     *
  0F47          340:                    ORG     BUILTINSTRFUN*2+.SA
0F47 4209       341:                    #.
  4209          342:                    ORG     .
4209 3E152F     343:                    $3E,#DATE$
420C 8005       344:                    ((:13F4-*)&$3FFF)+$8000
  0221          345: OPDAT              EQU     .SC
  0222          346: .SC                SET     .SC+1
420E 0221       347:                    OPDAT
4210 2F         348:                    $2F
  4211          349: :13F4              EQU     *
4211 4076       350:                    ((:13F5-*)&$3FFF)+$4000
4213 3E153A     351:                    $3E,#TIME$
4216 8005       352:                    ((:13F6-*)&$3FFF)+$8000
  0222          353: OPTIM              EQU     .SC
  0223          354: .SC                SET     .SC+1
4218 0222       355:                    OPTIM
421A 2F         356:                    $2F
  421B          357: :13F6              EQU     *
421B 406C       358:                    ((:13F5-*)&$3FFF)+$4000
421D 3E1545     359:                    $3E,#COPYRIGHT$
4220 8005       360:                    ((:13F7-*)&$3FFF)+$8000
  0223          361: OPCOPYRIGHT        EQU     .SC




ASM/6800 1.3H4: 4220                    
08/16/82 00:00:00; Page 260; Form 1     
B2.ASM
  0224          362: .SC                SET     .SC+1
4222 0223       363:                    OPCOPYRIGHT
4224 2F         364:                    $2F
  4225          365: :13F7              EQU     *
4225 4062       366:                    ((:13F5-*)&$3FFF)+$4000
4227 3E1555     367:                    $3E,#NUM$
422A 8008       368:                    ((:13F8-*)&$3FFF)+$8000
422C 01A0       369:                    TERMGIVINGNUMERIC
422E 2C         370:                    $2C
  0224          371: OPNUM              EQU     .SC
  0225          372: .SC                SET     .SC+1
422F 0224       373:                    OPNUM
4231 2F         374:                    $2F
  4232          375: :13F8              EQU     *
4232 4055       376:                    ((:13F5-*)&$3FFF)+$4000
4234 3E155F     377:                    $3E,#NUMF$
4237 8012       378:                    ((:13F9-*)&$3FFF)+$8000
4239 21         379:                    $21
                380:                    FCC     ''
423A A8         381:                    '(+$80
423B 2C         382:                    $2C
423C DC         383:                    STREXP
423D 2C         384:                    $2C
423E 21         385:                    $21
                386:                    FCC     ''
423F AC         387:                    ',+$80
4240 2C         388:                    $2C
4241 DA         389:                    NUMEXP
4242 2C         390:                    $2C
4243 21         391:                    $21
                392:                    FCC     ''
4244 A9         393:                    ')+$80
4245 2C         394:                    $2C
  0225          395: OPNUMF             EQU     .SC
  0226          396: .SC                SET     .SC+1
4246 0225       397:                    OPNUMF
4248 2F         398:                    $2F
  4249          399: :13F9              EQU     *
4249 403E       400:                    ((:13F5-*)&$3FFF)+$4000
424B 3E156A     401:                    $3E,#HEX$




ASM/6800 1.3H4: 424E                    
08/16/82 00:00:00; Page 261; Form 1     
B2.ASM
424E 8008       402:                    ((:13FA-*)&$3FFF)+$8000
4250 01A0       403:                    TERMGIVINGNUMERIC
4252 2C         404:                    $2C
  0226          405: OPHEX              EQU     .SC
  0227          406: .SC                SET     .SC+1
4253 0226       407:                    OPHEX
4255 2F         408:                    $2F
  4256          409: :13FA              EQU     *
4256 4031       410:                    ((:13F5-*)&$3FFF)+$4000
4258 3E1574     411:                    $3E,#UPPERCASE$
425B 800D       412:                    ((:13FB-*)&$3FFF)+$8000
425D 21         413:                    $21
                414:                    FCC     ''
425E A8         415:                    '(+$80
425F 2C         416:                    $2C
4260 DC         417:                    STREXP
4261 2C         418:                    $2C
4262 21         419:                    $21
                420:                    FCC     ''
4263 A9         421:                    ')+$80
4264 2C         422:                    $2C
  0227          423: OPUPPERC           EQU     .SC
  0228          424: .SC                SET     .SC+1
4265 0227       425:                    OPUPPERC
4267 2F         426:                    $2F
  4268          427: :13FB              EQU     *
4268 401F       428:                    ((:13F5-*)&$3FFF)+$4000
426A 3E1584     429:                    $3E,#LOWERCASE$
426D 800D       430:                    ((:13FC-*)&$3FFF)+$8000
426F 21         431:                    $21
                432:                    FCC     ''
4270 A8         433:                    '(+$80
4271 2C         434:                    $2C
4272 DC         435:                    STREXP
4273 2C         436:                    $2C
4274 21         437:                    $21
                438:                    FCC     ''
4275 A9         439:                    ')+$80
4276 2C         440:                    $2C
  0228          441: OPLOWERC           EQU     .SC




ASM/6800 1.3H4: 4276                    
08/16/82 00:00:00; Page 262; Form 1     
B2.ASM
  0229          442: .SC                SET     .SC+1
4277 0228       443:                    OPLOWERC
4279 2F         444:                    $2F
  427A          445: :13FC              EQU     *
427A 400D       446:                    ((:13F5-*)&$3FFF)+$4000
427C 3E1421     447:                    $3E,#CHR$
427F 8008       448:                    ((:13FD-*)&$3FFF)+$8000
4281 01A0       449:                    TERMGIVINGNUMERIC
4283 2C         450:                    $2C
  0229          451: OPCHR              EQU     .SC
  022A          452: .SC                SET     .SC+1
4284 0229       453:                    OPCHR
4286 2F         454:                    $2F
  4287          455: :13FD              EQU     *
  4287          456: :13F5              EQU     *
4287 8005       457:                    ((:13FE-*)&$3FFF)+$8000
4289 01FD       458:                    SUBSTRING
428B 2C         459:                    $2C
  428C          460: :13FE              EQU     *
428C 29         461:                    $29
  428D          462: .                  SET     *
  0F2B          463:                    ORG     OBVIOUSLYSTRINGTERM*2+.SA
0F2B 428D       464:                    #.
  428D          465:                    ORG     .
428D 0D         466:                    +STRING
428E 8018       467:                    ((:13FF-*)&$3FFF)+$8000
  022A          468: OPLSC              EQU     .SC
  022B          469: .SC                SET     .SC+1
4290 022A       470:                    OPLSC
4292 2F         471:                    $2F
4293 D3         472:                    BYTE
4294 F9         473:                    GENLBL
4295 3301       474:                    $33,1
4297 30         475:                    $30
4298 2D2A2D     476:                    FCC     '-*-'
429B B1         477:                    '1+$80
429C 2F         478:                    $2F
429D 013D       479:                    TEXT
429F 31         480:                    $31
42A0 2F         481:                    $2F




ASM/6800 1.3H4: 42A1                    
08/16/82 00:00:00; Page 263; Form 1     
B2.ASM
42A1 F9         482:                    GENLBL
42A2 3301       483:                    $33,1
42A4 D2         484:                    EQUHERE
42A5 2F         485:                    $2F
  42A6          486: :13FF              EQU     *
42A6 4050       487:                    ((:1400-*)&$3FFF)+$4000
42A8 3E1402     488:                    $3E,#MID$
42AB 8017       489:                    ((:1401-*)&$3FFF)+$8000
42AD 21         490:                    $21
                491:                    FCC     ''
42AE A8         492:                    '(+$80
42AF 2C         493:                    $2C
42B0 DC         494:                    STREXP
42B1 2C         495:                    $2C
42B2 21         496:                    $21
                497:                    FCC     ''
42B3 AC         498:                    ',+$80
42B4 2C         499:                    $2C
42B5 DA         500:                    NUMEXP
42B6 2C         501:                    $2C
42B7 21         502:                    $21
                503:                    FCC     ''
42B8 AC         504:                    ',+$80
42B9 2C         505:                    $2C
42BA DA         506:                    NUMEXP
42BB 2C         507:                    $2C
42BC 21         508:                    $21
                509:                    FCC     ''
42BD A9         510:                    ')+$80
42BE 2C         511:                    $2C
42BF 0151       512:                    OPSS2
42C1 2F         513:                    $2F
  42C2          514: :1401              EQU     *
42C2 4034       515:                    ((:1400-*)&$3FFF)+$4000
42C4 3E13F7     516:                    $3E,#LEFT$
42C7 8018       517:                    ((:1402-*)&$3FFF)+$8000
42C9 21         518:                    $21
                519:                    FCC     ''
42CA A8         520:                    '(+$80
42CB 2C         521:                    $2C




ASM/6800 1.3H4: 42CC                    
08/16/82 00:00:00; Page 264; Form 1     
B2.ASM
42CC DC         522:                    STREXP
42CD 2C         523:                    $2C
42CE 21         524:                    $21
                525:                    FCC     ''
42CF AC         526:                    ',+$80
42D0 2C         527:                    $2C
42D1 0138       528:                    OPLSMI
42D3 30         529:                    $30
42D4 2B         530:                    FCC     '+'
42D5 B1         531:                    '1+$80
42D6 2F         532:                    $2F
42D7 DA         533:                    NUMEXP
42D8 2C         534:                    $2C
42D9 21         535:                    $21
                536:                    FCC     ''
42DA A9         537:                    ')+$80
42DB 2C         538:                    $2C
42DC 0151       539:                    OPSS2
42DE 2F         540:                    $2F
  42DF          541: :1402              EQU     *
42DF 4017       542:                    ((:1400-*)&$3FFF)+$4000
42E1 3E140C     543:                    $3E,#RIGHT$
42E4 8012       544:                    ((:1403-*)&$3FFF)+$8000
42E6 21         545:                    $21
                546:                    FCC     ''
42E7 A8         547:                    '(+$80
42E8 2C         548:                    $2C
42E9 DC         549:                    STREXP
42EA 2C         550:                    $2C
42EB 21         551:                    $21
                552:                    FCC     ''
42EC AC         553:                    ',+$80
42ED 2C         554:                    $2C
42EE DA         555:                    NUMEXP
42EF 2C         556:                    $2C
42F0 21         557:                    $21
                558:                    FCC     ''
42F1 A9         559:                    ')+$80
42F2 2C         560:                    $2C
42F3 0158       561:                    OPRIGHT




ASM/6800 1.3H4: 42F5                    
08/16/82 00:00:00; Page 265; Form 1     
B2.ASM
42F5 2F         562:                    $2F
  42F6          563: :1403              EQU     *
  42F6          564: :1400              EQU     *
42F6 8005       565:                    ((:1404-*)&$3FFF)+$8000
42F8 3A0105     566:                    $3A,RESULT,STRINGTYPE
  42FB          567: :1404              EQU     *
42FB 29         568:                    $29
  42FC          569: .                  SET     *
  0E71          570:                    ORG     STRCON*2+.SA
0E71 42FC       571:                    #.
  42FC          572:                    ORG     .
42FC 0D         573:                    +STRING
42FD 8018       574:                    ((:1405-*)&$3FFF)+$8000
42FF 022A       575:                    OPLSC
4301 2F         576:                    $2F
4302 D3         577:                    BYTE
4303 F9         578:                    GENLBL
4304 3301       579:                    $33,1
4306 30         580:                    $30
4307 2D2A2D     581:                    FCC     '-*-'
430A B1         582:                    '1+$80
430B 2F         583:                    $2F
430C 013D       584:                    TEXT
430E 31         585:                    $31
430F 2F         586:                    $2F
4310 F9         587:                    GENLBL
4311 3301       588:                    $33,1
4313 D2         589:                    EQUHERE
4314 2F         590:                    $2F
  4315          591: :1405              EQU     *
4315 29         592:                    $29
  4316          593: .                  SET     *
  0F43          594:                    ORG     SUBSTRING*2+.SA
0F43 4316       595:                    #.
  4316          596:                    ORG     .
4316 C1         597:                    LB
4317 8021       598:                    ((:1406-*)&$3FFF)+$8000
4319 DA         599:                    NUMEXP
431A 2C         600:                    $2C
431B 21         601:                    $21




ASM/6800 1.3H4: 431B                    
08/16/82 00:00:00; Page 266; Form 1     
B2.ASM
                602:                    FCC     ''
431C AC         603:                    ',+$80
431D 800C       604:                    ((:1407-*)&$3FFF)+$8000
431F DA         605:                    NUMEXP
4320 2C         606:                    $2C
4321 C2         607:                    RB
4322 2C         608:                    $2C
4323 0151       609:                    OPSS2
4325 2F         610:                    $2F
4326 3A0105     611:                    $3A,RESULT,STRINGTYPE
  4329          612: :1407              EQU     *
4329 400E       613:                    ((:1408-*)&$3FFF)+$4000
432B C2         614:                    RB
432C 800B       615:                    ((:1409-*)&$3FFF)+$8000
432E 0152       616:                    OPSS1
4330 2F         617:                    $2F
4331 021A       618:                    OPLDB
4333 2F         619:                    $2F
4334 3A0101     620:                    $3A,RESULT,NUMERICTYPE
  4337          621: :1409              EQU     *
  4337          622: :1408              EQU     *
4337 2C         623:                    $2C
  4338          624: :1406              EQU     *
4338 2A         625:                    $2A
4339 34         626:                    $34
433A 3A0105     627:                    $3A,RESULT,STRINGTYPE
433D 29         628:                    $29
  433E          629: .                  SET     *
  0DB9          630:                    ORG     OPLSMI*2+.SA
0DB9 433E       631:                    #.
  433E          632:                    ORG     .
433E 30         633:                    $30
433F 0930       634:                    FCC     ' 0'
4341 AB         635:                    '++$80
4342 29         636:                    $29
  4343          637: .                  SET     *
  0DCF          638:                    ORG     OPLOAD*2+.SA
0DCF 4343       639:                    #.
  4343          640:                    ORG     .
4343 30         641:                    $30




ASM/6800 1.3H4: 4344                    
08/16/82 00:00:00; Page 267; Form 1     
B2.ASM
4344 093031     642:                    FCC     ' 01'
4347 B0         643:                    '0+$80
4348 29         644:                    $29
  4349          645: .                  SET     *
  0F35          646:                    ORG     OPLV*2+.SA
0F35 4349       647:                    #.
  4349          648:                    ORG     .
4349 30         649:                    $30
434A 093031     650:                    FCC     '  01'
434D B1         651:                    '1+$80
434E 29         652:                    $29
  434F          653: .                  SET     *
  0DFD          654:                    ORG     OPLADDR*2+.SA
0DFD 434F       655:                    #.
  434F          656:                    ORG     .
434F 013A       657:                    OPLINT
4351 29         658:                    $29
  4352          659: .                  SET     *
  0DBD          660:                    ORG     OPLINT*2+.SA
0DBD 4352       661:                    #.
  4352          662:                    ORG     .
4352 30         663:                    $30
4353 093031     664:                    FCC     ' 01'
4356 B3         665:                    '3+$80
4357 29         666:                    $29
  4358          667: .                  SET     *
  0DBF          668:                    ORG     OPLFI*2+.SA
0DBF 4358       669:                    #.
  4358          670:                    ORG     .
4358 30         671:                    $30
4359 093031     672:                    FCC     ' 01'
435C B5         673:                    '5+$80
435D 29         674:                    $29
  435E          675: .                  SET     *
  0F7D          676:                    ORG     OPLDB*2+.SA
0F7D 435E       677:                    #.
  435E          678:                    ORG     .
435E 30         679:                    $30
435F 093031     680:                    FCC     ' 01'
4362 B6         681:                    '6+$80




ASM/6800 1.3H4: 4363                    
08/16/82 00:00:00; Page 268; Form 1     
B2.ASM
4363 29         682:                    $29
  022B          683: OPDUP              EQU     .SC
  022C          684: .SC                SET     .SC+1
  4364          685: .                  SET     *
  0F9F          686:                    ORG     OPDUP*2+.SA
0F9F 4364       687:                    #.
  4364          688:                    ORG     .
4364 30         689:                    $30
4365 093031     690:                    FCC     ' 01'
4368 B7         691:                    '7+$80
4369 29         692:                    $29
  436A          693: .                  SET     *
  0DFB          694:                    ORG     OPLSD*2+.SA
0DFB 436A       695:                    #.
  436A          696:                    ORG     .
436A 30         697:                    $30
436B 093031     698:                    FCC     '  01'
436E B8         699:                    '8+$80
436F 29         700:                    $29
  4370          701: .                  SET     *
  0F9D          702:                    ORG     OPLSC*2+.SA
0F9D 4370       703:                    #.
  4370          704:                    ORG     .
4370 30         705:                    $30
4371 093031     706:                    FCC     ' 01'
4374 B9         707:                    '9+$80
4375 29         708:                    $29
  4376          709: .                  SET     *
  0F59          710:                    ORG     OPLEN*2+.SA
0F59 4376       711:                    #.
  4376          712:                    ORG     .
4376 30         713:                    $30
4377 093032     714:                    FCC     ' 02'
437A B0         715:                    '0+$80
437B 29         716:                    $29
  437C          717: .                  SET     *
  0DED          718:                    ORG     OPSS1*2+.SA
0DED 437C       719:                    #.
  437C          720:                    ORG     .
437C 30         721:                    $30




ASM/6800 1.3H4: 437D                    
08/16/82 00:00:00; Page 269; Form 1     
B2.ASM
437D 093032     722:                    FCC     ' 02'
4380 B1         723:                    '1+$80
4381 29         724:                    $29
  4382          725: .                  SET     *
  0DEB          726:                    ORG     OPSS2*2+.SA
0DEB 4382       727:                    #.
  4382          728:                    ORG     .
4382 30         729:                    $30
4383 093032     730:                    FCC     ' 02'
4386 B2         731:                    '2+$80
4387 29         732:                    $29
  4388          733: .                  SET     *
  0F37          734:                    ORG     OPVSA*2+.SA
0F37 4388       735:                    #.
  4388          736:                    ORG     .
4388 30         737:                    $30
4389 093032     738:                    FCC     ' 02'
438C B3         739:                    '3+$80
438D 29         740:                    $29
  438E          741: .                  SET     *
  0F39          742:                    ORG     OPVSV*2+.SA
0F39 438E       743:                    #.
  438E          744:                    ORG     .
438E 30         745:                    $30
438F 093032     746:                    FCC     ' 02'
4392 B4         747:                    '4+$80
4393 29         748:                    $29
  4394          749: .                  SET     *
  0DD7          750:                    ORG     OPVSS*2+.SA
0DD7 4394       751:                    #.
  4394          752:                    ORG     .
4394 30         753:                    $30
4395 093032     754:                    FCC     ' 02'
4398 B5         755:                    '5+$80
4399 29         756:                    $29
  439A          757: .                  SET     *
  0DD5          758:                    ORG     OPVPA*2+.SA
0DD5 439A       759:                    #.
  439A          760:                    ORG     .
439A 30         761:                    $30




ASM/6800 1.3H4: 439B                    
08/16/82 00:00:00; Page 270; Form 1     
B2.ASM
439B 093032     762:                    FCC     '  02'
439E B6         763:                    '6+$80
439F 29         764:                    $29
  43A0          765: .                  SET     *
  0F3D          766:                    ORG     OPASA*2+.SA
0F3D 43A0       767:                    #.
  43A0          768:                    ORG     .
43A0 30         769:                    $30
43A1 093032     770:                    FCC     '  02'
43A4 B7         771:                    '7+$80
43A5 29         772:                    $29
  43A6          773: .                  SET     *
  0F3F          774:                    ORG     OPASV*2+.SA
0F3F 43A6       775:                    #.
  43A6          776:                    ORG     .
43A6 30         777:                    $30
43A7 093032     778:                    FCC     '  02'
43AA B8         779:                    '8+$80
43AB 29         780:                    $29
  43AC          781: .                  SET     *
  0DDD          782:                    ORG     OPASS*2+.SA
0DDD 43AC       783:                    #.
  43AC          784:                    ORG     .
43AC 30         785:                    $30
43AD 093032     786:                    FCC     '  02'
43B0 B9         787:                    '9+$80
43B1 29         788:                    $29
  43B2          789: .                  SET     *
  0DDB          790:                    ORG     OPAPA*2+.SA
0DDB 43B2       791:                    #.
  43B2          792:                    ORG     .
43B2 30         793:                    $30
43B3 093033     794:                    FCC     '  03'
43B6 B0         795:                    '0+$80
43B7 29         796:                    $29
  43B8          797: .                  SET     *
  0DD1          798:                    ORG     OPST*2+.SA
0DD1 43B8       799:                    #.
  43B8          800:                    ORG     .
43B8 30         801:                    $30




ASM/6800 1.3H4: 43B9                    
08/16/82 00:00:00; Page 271; Form 1     
B2.ASM
43B9 093033     802:                    FCC     '  03'
43BC B1         803:                    '1+$80
43BD 29         804:                    $29
  43BE          805: .                  SET     *
  0DE7          806:                    ORG     OPSTS*2+.SA
0DE7 43BE       807:                    #.
  43BE          808:                    ORG     .
43BE 30         809:                    $30
43BF 093033     810:                    FCC     '  03'
43C2 B2         811:                    '2+$80
43C3 29         812:                    $29
  43C4          813: .                  SET     *
  0DEF          814:                    ORG     OPSTB*2+.SA
0DEF 43C4       815:                    #.
  43C4          816:                    ORG     .
43C4 30         817:                    $30
43C5 093033     818:                    FCC     '  03'
43C8 B3         819:                    '3+$80
43C9 29         820:                    $29
  43CA          821: .                  SET     *
  0F05          822:                    ORG     OPADD*2+.SA
0F05 43CA       823:                    #.
  43CA          824:                    ORG     .
43CA 30         825:                    $30
43CB 093033     826:                    FCC     '   03'
43CE B4         827:                    '4+$80
43CF 29         828:                    $29
  43D0          829: .                  SET     *
  0F07          830:                    ORG     OPSUB*2+.SA
0F07 43D0       831:                    #.
  43D0          832:                    ORG     .
43D0 30         833:                    $30
43D1 093033     834:                    FCC     ' 03'
43D4 B5         835:                    '5+$80
43D5 29         836:                    $29
  43D6          837: .                  SET     *
  0F55          838:                    ORG     OPNEG*2+.SA
0F55 43D6       839:                    #.
  43D6          840:                    ORG     .
43D6 30         841:                    $30




ASM/6800 1.3H4: 43D7                    
08/16/82 00:00:00; Page 272; Form 1     
B2.ASM
43D7 093033     842:                    FCC     ' 03'
43DA B6         843:                    '6+$80
43DB 29         844:                    $29
  43DC          845: .                  SET     *
  0F13          846:                    ORG     OPMUL*2+.SA
0F13 43DC       847:                    #.
  43DC          848:                    ORG     .
43DC 30         849:                    $30
43DD 093033     850:                    FCC     ' 03'
43E0 B7         851:                    '7+$80
43E1 29         852:                    $29
  43E2          853: .                  SET     *
  0F15          854:                    ORG     OPDIV*2+.SA
0F15 43E2       855:                    #.
  43E2          856:                    ORG     .
43E2 30         857:                    $30
43E3 093033     858:                    FCC     ' 03'
43E6 B8         859:                    '8+$80
43E7 29         860:                    $29
  43E8          861: .                  SET     *
  0F17          862:                    ORG     OPAND*2+.SA
0F17 43E8       863:                    #.
  43E8          864:                    ORG     .
43E8 30         865:                    $30
43E9 093033     866:                    FCC     ' 03'
43EC B9         867:                    '9+$80
43ED 29         868:                    $29
  43EE          869: .                  SET     *
  0F09          870:                    ORG     OPIOR*2+.SA
0F09 43EE       871:                    #.
  43EE          872:                    ORG     .
43EE 30         873:                    $30
43EF 093034     874:                    FCC     ' 04'
43F2 B0         875:                    '0+$80
43F3 29         876:                    $29
  43F4          877: .                  SET     *
  0F11          878:                    ORG     OPSHF*2+.SA
0F11 43F4       879:                    #.
  43F4          880:                    ORG     .
43F4 30         881:                    $30




ASM/6800 1.3H4: 43F5                    
08/16/82 00:00:00; Page 273; Form 1     
B2.ASM
43F5 093034     882:                    FCC     ' 04'
43F8 B1         883:                    '1+$80
43F9 29         884:                    $29
  43FA          885: .                  SET     *
  0F61          886:                    ORG     OPCOM*2+.SA
0F61 43FA       887:                    #.
  43FA          888:                    ORG     .
43FA 30         889:                    $30
43FB 093034     890:                    FCC     '  04'
43FE B2         891:                    '2+$80
43FF 29         892:                    $29
  4400          893: .                  SET     *
  0EE3          894:                    ORG     OPEQ*2+.SA
0EE3 4400       895:                    #.
  4400          896:                    ORG     .
4400 30         897:                    $30
4401 093034     898:                    FCC     ' 04'
4404 B3         899:                    '3+$80
4405 29         900:                    $29
  4406          901: .                  SET     *
  0ED5          902:                    ORG     OPNE*2+.SA
0ED5 4406       903:                    #.
  4406          904:                    ORG     .
4406 30         905:                    $30
4407 093034     906:                    FCC     ' 04'
440A B4         907:                    '4+$80
440B 29         908:                    $29
  440C          909: .                  SET     *
  0EED          910:                    ORG     OPLT*2+.SA
0EED 440C       911:                    #.
  440C          912:                    ORG     .
440C 30         913:                    $30
440D 093034     914:                    FCC     ' 04'
4410 B5         915:                    '5+$80
4411 29         916:                    $29
  4412          917: .                  SET     *
  0EE9          918:                    ORG     OPLE*2+.SA
0EE9 4412       919:                    #.
  4412          920:                    ORG     .
4412 30         921:                    $30




ASM/6800 1.3H4: 4413                    
08/16/82 00:00:00; Page 274; Form 1     
B2.ASM
4413 093034     922:                    FCC     ' 04'
4416 B6         923:                    '6+$80
4417 29         924:                    $29
  4418          925: .                  SET     *
  0EF1          926:                    ORG     OPGE*2+.SA
0EF1 4418       927:                    #.
  4418          928:                    ORG     .
4418 30         929:                    $30
4419 093034     930:                    FCC     ' 04'
441C B7         931:                    '7+$80
441D 29         932:                    $29
  441E          933: .                  SET     *
  0EF5          934:                    ORG     OPGT*2+.SA
0EF5 441E       935:                    #.
  441E          936:                    ORG     .
441E 30         937:                    $30
441F 093034     938:                    FCC     ' 04'
4422 B8         939:                    '8+$80
4423 29         940:                    $29
  4424          941: .                  SET     *
  0E11          942:                    ORG     OPBF*2+.SA
0E11 4424       943:                    #.
  4424          944:                    ORG     .
4424 30         945:                    $30
4425 093034     946:                    FCC     ' 04'
4428 B9         947:                    '9+$80
4429 29         948:                    $29
  442A          949: .                  SET     *
  0E13          950:                    ORG     OPBT*2+.SA
0E13 442A       951:                    #.
  442A          952:                    ORG     .
442A 30         953:                    $30
442B 093035     954:                    FCC     '  05'
442E B0         955:                    '0+$80
442F 29         956:                    $29
  4430          957: .                  SET     *
  0F4D          958:                    ORG     OPINV*2+.SA
0F4D 4430       959:                    #.
  4430          960:                    ORG     .
4430 30         961:                    $30




ASM/6800 1.3H4: 4431                    
08/16/82 00:00:00; Page 275; Form 1     
B2.ASM
4431 093035     962:                    FCC     ' 05'
4434 B1         963:                    '1+$80
4435 29         964:                    $29
  4436          965: .                  SET     *
  0D39          966:                    ORG     OPJMP*2+.SA
0D39 4436       967:                    #.
  4436          968:                    ORG     .
4436 30         969:                    $30
4437 093035     970:                    FCC     ' 05'
443A B2         971:                    '2+$80
443B 29         972:                    $29
  443C          973: .                  SET     *
  0E21          974:                    ORG     OPGSB*2+.SA
0E21 443C       975:                    #.
  443C          976:                    ORG     .
443C 30         977:                    $30
443D 093035     978:                    FCC     ' 05'
4440 B3         979:                    '3+$80
4441 29         980:                    $29
  4442          981: .                  SET     *
  0E27          982:                    ORG     OPRET*2+.SA
0E27 4442       983:                    #.
  4442          984:                    ORG     .
4442 30         985:                    $30
4443 093035     986:                    FCC     ' 05'
4446 B4         987:                    '4+$80
4447 29         988:                    $29
  4448          989: .                  SET     *
  0E29          990:                    ORG     OPSTP*2+.SA
0E29 4448       991:                    #.
  4448          992:                    ORG     .
4448 30         993:                    $30
4449 093035     994:                    FCC     ' 05'
444C B5         995:                    '5+$80
444D 29         996:                    $29
  444E          997: .                  SET     *
  0D3F          998:                    ORG     OPLINE*2+.SA
0D3F 444E       999:                    #.
  444E         1000:                    ORG     .
444E 30        1001:                    $30




ASM/6800 1.3H4: 444F                    
08/16/82 00:00:00; Page 276; Form 1     
B2.ASM
444F 093035    1002:                    FCC     ' 05'
4452 B6        1003:                    '6+$80
4453 29        1004:                    $29
  4454         1005: .                  SET     *
  0DE3         1006:                    ORG     OPCALL*2+.SA
0DE3 4454      1007:                    #.
  4454         1008:                    ORG     .
4454 30        1009:                    $30
4455 093035    1010:                    FCC     ' 05'
4458 B7        1011:                    '7+$80
4459 29        1012:                    $29
  445A         1013: .                  SET     *
  0E93         1014:                    ORG     OPPV*2+.SA
0E93 445A      1015:                    #.
  445A         1016:                    ORG     .
445A 30        1017:                    $30
445B 093035    1018:                    FCC     '  05'
445E B8        1019:                    '8+$80
445F 29        1020:                    $29
  4460         1021: .                  SET     *
  0E87         1022:                    ORG     OPPCR*2+.SA
0E87 4460      1023:                    #.
  4460         1024:                    ORG     .
4460 30        1025:                    $30
4461 093035    1026:                    FCC     ' 05'
4464 B9        1027:                    '9+$80
4465 29        1028:                    $29
  4466         1029: .                  SET     *
  0E73         1030:                    ORG     OPPS*2+.SA
0E73 4466      1031:                    #.
  4466         1032:                    ORG     .
4466 30        1033:                    $30
4467 093036    1034:                    FCC     ' 06'
446A B0        1035:                    '0+$80
446B 29        1036:                    $29
  446C         1037: .                  SET     *
  0E95         1038:                    ORG     OPPSP*2+.SA
0E95 446C      1039:                    #.
  446C         1040:                    ORG     .
446C 30        1041:                    $30




ASM/6800 1.3H4: 446D                    
08/16/82 00:00:00; Page 277; Form 1     
B2.ASM
446D 093036    1042:                    FCC     ' 06'
4470 B1        1043:                    '1+$80
4471 29        1044:                    $29
  4472         1045: .                  SET     *
  0E7F         1046:                    ORG     OPINS*2+.SA
0E7F 4472      1047:                    #.
  4472         1048:                    ORG     .
4472 30        1049:                    $30
4473 093036    1050:                    FCC     ' 06'
4476 B2        1051:                    '2+$80
4477 29        1052:                    $29
  4478         1053: .                  SET     *
  0E6B         1054:                    ORG     OPCHNL*2+.SA
0E6B 4478      1055:                    #.
  4478         1056:                    ORG     .
4478 30        1057:                    $30
4479 093036    1058:                    FCC     ' 06'
447C B3        1059:                    '3+$80
447D 29        1060:                    $29
  447E         1061: .                  SET     *
  0EFF         1062:                    ORG     OPCIN*2+.SA
0EFF 447E      1063:                    #.
  447E         1064:                    ORG     .
447E 30        1065:                    $30
447F 093036    1066:                    FCC     ' 06'
4482 B4        1067:                    '4+$80
4483 29        1068:                    $29
  4484         1069: .                  SET     *
  0F01         1070:                    ORG     OPCAT*2+.SA
0F01 4484      1071:                    #.
  4484         1072:                    ORG     .
4484 30        1073:                    $30
4485 093036    1074:                    FCC     ' 06'
4488 B5        1075:                    '5+$80
4489 29        1076:                    $29
  448A         1077: .                  SET     *
  0F03         1078:                    ORG     OPCND*2+.SA
0F03 448A      1079:                    #.
  448A         1080:                    ORG     .
448A 30        1081:                    $30




ASM/6800 1.3H4: 448B                    
08/16/82 00:00:00; Page 278; Form 1     
B2.ASM
448B 093036    1082:                    FCC     '  06'
448E B6        1083:                    '6+$80
448F 29        1084:                    $29
  4490         1085: .                  SET     *
  0DF9         1086:                    ORG     OPRIGHT*2+.SA
0DF9 4490      1087:                    #.
  4490         1088:                    ORG     .
4490 30        1089:                    $30
4491 093036    1090:                    FCC     ' 06'
4494 B7        1091:                    '7+$80
4495 29        1092:                    $29
  4496         1093: .                  SET     *
  0E5B         1094:                    ORG     OPRESTR*2+.SA
0E5B 4496      1095:                    #.
  4496         1096:                    ORG     .
4496 30        1097:                    $30
4497 093036    1098:                    FCC     ' 06'
449A B8        1099:                    '8+$80
449B 29        1100:                    $29
  449C         1101: .                  SET     *
  0EA7         1102:                    ORG     OPWV*2+.SA
0EA7 449C      1103:                    #.
  449C         1104:                    ORG     .
449C 30        1105:                    $30
449D 093036    1106:                    FCC     ' 06'
44A0 B9        1107:                    '9+$80
44A1 29        1108:                    $29
  44A2         1109: .                  SET     *
  0EA9         1110:                    ORG     OPWS*2+.SA
0EA9 44A2      1111:                    #.
  44A2         1112:                    ORG     .
44A2 30        1113:                    $30
44A3 093037    1114:                    FCC     '  07'
44A6 B0        1115:                    '0+$80
44A7 29        1116:                    $29
  44A8         1117: .                  SET     *
  0EA1         1118:                    ORG     OPRV*2+.SA
0EA1 44A8      1119:                    #.
  44A8         1120:                    ORG     .
44A8 30        1121:                    $30




ASM/6800 1.3H4: 44A9                    
08/16/82 00:00:00; Page 279; Form 1     
B2.ASM
44A9 093037    1122:                    FCC     '  07'
44AC B1        1123:                    '1+$80
44AD 29        1124:                    $29
  44AE         1125: .                  SET     *
  0EA3         1126:                    ORG     OPRS*2+.SA
0EA3 44AE      1127:                    #.
  44AE         1128:                    ORG     .
44AE 30        1129:                    $30
44AF 093037    1130:                    FCC     '  07'
44B2 B2        1131:                    '2+$80
44B3 29        1132:                    $29
  44B4         1133: .                  SET     *
  0E0B         1134:                    ORG     OPFOR*2+.SA
0E0B 44B4      1135:                    #.
  44B4         1136:                    ORG     .
44B4 30        1137:                    $30
44B5 093037    1138:                    FCC     '  07'
44B8 B3        1139:                    '3+$80
44B9 29        1140:                    $29
  44BA         1141: .                  SET     *
  0E1B         1142:                    ORG     OPNEXT*2+.SA
0E1B 44BA      1143:                    #.
  44BA         1144:                    ORG     .
44BA 30        1145:                    $30
44BB 093037    1146:                    FCC     '   07'
44BE B4        1147:                    '4+$80
44BF 29        1148:                    $29
  44C0         1149: .                  SET     *
  0E91         1150:                    ORG     OPTABCOL*2+.SA
0E91 44C0      1151:                    #.
  44C0         1152:                    ORG     .
44C0 30        1153:                    $30
44C1 093037    1154:                    FCC     '  07'
44C4 B5        1155:                    '5+$80
44C5 29        1156:                    $29
  44C6         1157: .                  SET     *
  0E81         1158:                    ORG     OPINP*2+.SA
0E81 44C6      1159:                    #.
  44C6         1160:                    ORG     .
44C6 30        1161:                    $30




ASM/6800 1.3H4: 44C7                    
08/16/82 00:00:00; Page 280; Form 1     
B2.ASM
44C7 093037    1162:                    FCC     '  07'
44CA B6        1163:                    '6+$80
44CB 29        1164:                    $29
  44CC         1165: .                  SET     *
  0F4F         1166:                    ORG     OPEOF*2+.SA
0F4F 44CC      1167:                    #.
  44CC         1168:                    ORG     .
44CC 30        1169:                    $30
44CD 093037    1170:                    FCC     '  07'
44D0 B7        1171:                    '7+$80
44D1 29        1172:                    $29
  44D2         1173: .                  SET     *
  0E77         1174:                    ORG     OPINL*2+.SA
0E77 44D2      1175:                    #.
  44D2         1176:                    ORG     .
44D2 30        1177:                    $30
44D3 093037    1178:                    FCC     ' 07'
44D6 B8        1179:                    '8+$80
44D7 29        1180:                    $29
  44D8         1181: .                  SET     *
  0E8B         1182:                    ORG     OPTAB*2+.SA
0E8B 44D8      1183:                    #.
  44D8         1184:                    ORG     .
44D8 30        1185:                    $30
44D9 093037    1186:                    FCC     ' 07'
44DC B9        1187:                    '9+$80
44DD 29        1188:                    $29
  44DE         1189: .                  SET     *
  0EE5         1190:                    ORG     OPSEQ*2+.SA
0EE5 44DE      1191:                    #.
  44DE         1192:                    ORG     .
44DE 30        1193:                    $30
44DF 093038    1194:                    FCC     ' 08'
44E2 B0        1195:                    '0+$80
44E3 29        1196:                    $29
  44E4         1197: .                  SET     *
  0EE7         1198:                    ORG     OPSNE*2+.SA
0EE7 44E4      1199:                    #.
  44E4         1200:                    ORG     .
44E4 30        1201:                    $30




ASM/6800 1.3H4: 44E5                    
08/16/82 00:00:00; Page 281; Form 1     
B2.ASM
44E5 093038    1202:                    FCC     ' 08'
44E8 B1        1203:                    '1+$80
44E9 29        1204:                    $29
  44EA         1205: .                  SET     *
  0EEF         1206:                    ORG     OPSLT*2+.SA
0EEF 44EA      1207:                    #.
  44EA         1208:                    ORG     .
44EA 30        1209:                    $30
44EB 093038    1210:                    FCC     '  08'
44EE B2        1211:                    '2+$80
44EF 29        1212:                    $29
  44F0         1213: .                  SET     *
  0EEB         1214:                    ORG     OPSLE*2+.SA
0EEB 44F0      1215:                    #.
  44F0         1216:                    ORG     .
44F0 30        1217:                    $30
44F1 093038    1218:                    FCC     ' 08'
44F4 B3        1219:                    '3+$80
44F5 29        1220:                    $29
  44F6         1221: .                  SET     *
  0EF7         1222:                    ORG     OPSGT*2+.SA
0EF7 44F6      1223:                    #.
  44F6         1224:                    ORG     .
44F6 30        1225:                    $30
44F7 093038    1226:                    FCC     ' 08'
44FA B4        1227:                    '4+$80
44FB 29        1228:                    $29
  44FC         1229: .                  SET     *
  0EF3         1230:                    ORG     OPSGE*2+.SA
0EF3 44FC      1231:                    #.
  44FC         1232:                    ORG     .
44FC 30        1233:                    $30
44FD 093038    1234:                    FCC     ' 08'
4500 B5        1235:                    '5+$80
4501 29        1236:                    $29
  4502         1237: .                  SET     *
  0E2F         1238:                    ORG     OPON*2+.SA
0E2F 4502      1239:                    #.
  4502         1240:                    ORG     .
4502 30        1241:                    $30




ASM/6800 1.3H4: 4503                    
08/16/82 00:00:00; Page 282; Form 1     
B2.ASM
4503 093038    1242:                    FCC     ' 08'
4506 B6        1243:                    '6+$80
4507 29        1244:                    $29
  4508         1245: .                  SET     *
  0F0B         1246:                    ORG     OPXOR*2+.SA
0F0B 4508      1247:                    #.
  4508         1248:                    ORG     .
4508 30        1249:                    $30
4509 093038    1250:                    FCC     ' 08'
450C B7        1251:                    '7+$80
450D 29        1252:                    $29
  450E         1253: .                  SET     *
  0E3D         1254:                    ORG     OPOKE*2+.SA
0E3D 450E      1255:                    #.
  450E         1256:                    ORG     .
450E 30        1257:                    $30
450F 093038    1258:                    FCC     ' 08'
4512 B8        1259:                    '8+$80
4513 29        1260:                    $29
  4514         1261: .                  SET     *
  0F7B         1262:                    ORG     OPEEK*2+.SA
0F7B 4514      1263:                    #.
  4514         1264:                    ORG     .
4514 30        1265:                    $30
4515 093038    1266:                    FCC     ' 08'
4518 B9        1267:                    '9+$80
4519 29        1268:                    $29
  451A         1269: .                  SET     *
  0E97         1270:                    ORG     OPUSE*2+.SA
0E97 451A      1271:                    #.
  451A         1272:                    ORG     .
451A 30        1273:                    $30
451B 093039    1274:                    FCC     '  09'
451E B0        1275:                    '0+$80
451F 29        1276:                    $29
  4520         1277: .                  SET     *
  0E75         1278:                    ORG     OPRMPT*2+.SA
0E75 4520      1279:                    #.
  4520         1280:                    ORG     .
4520 30        1281:                    $30




ASM/6800 1.3H4: 4521                    
08/16/82 00:00:00; Page 283; Form 1     
B2.ASM
4521 093039    1282:                    FCC     ' 09'
4524 B1        1283:                    '1+$80
4525 29        1284:                    $29
  4526         1285: .                  SET     *
  0F71         1286:                    ORG     OPINT*2+.SA
0F71 4526      1287:                    #.
  4526         1288:                    ORG     .
4526 30        1289:                    $30
4527 093039    1290:                    FCC     ' 09'
452A B2        1291:                    '2+$80
452B 29        1292:                    $29
  452C         1293: .                  SET     *
  0F83         1294:                    ORG     OPERR*2+.SA
0F83 452C      1295:                    #.
  452C         1296:                    ORG     .
452C 30        1297:                    $30
452D 093039    1298:                    FCC     ' 09'
4530 B3        1299:                    '3+$80
4531 29        1300:                    $29
  4532         1301: .                  SET     *
  0E4F         1302:                    ORG     OPOPN*2+.SA
0E4F 4532      1303:                    #.
  4532         1304:                    ORG     .
4532 30        1305:                    $30
4533 093039    1306:                    FCC     ' 09'
4536 B4        1307:                    '4+$80
4537 29        1308:                    $29
  4538         1309: .                  SET     *
  0E53         1310:                    ORG     OPCLS*2+.SA
0E53 4538      1311:                    #.
  4538         1312:                    ORG     .
4538 30        1313:                    $30
4539 093039    1314:                    FCC     ' 09'
453C B5        1315:                    '5+$80
453D 29        1316:                    $29
  453E         1317: .                  SET     *
  0E51         1318:                    ORG     OPCREAT*2+.SA
0E51 453E      1319:                    #.
  453E         1320:                    ORG     .
453E 30        1321:                    $30




ASM/6800 1.3H4: 453F                    
08/16/82 00:00:00; Page 284; Form 1     
B2.ASM
453F 093039    1322:                    FCC     ' 09'
4542 B6        1323:                    '6+$80
4543 29        1324:                    $29
  4544         1325: .                  SET     *
  0E35         1326:                    ORG     OPCHAIN*2+.SA
0E35 4544      1327:                    #.
  4544         1328:                    ORG     .
4544 30        1329:                    $30
4545 093039    1330:                    FCC     ' 09'
4548 B7        1331:                    '7+$80
4549 29        1332:                    $29
  454A         1333: .                  SET     *
  0D47         1334:                    ORG     OPLFREFL*2+.SA
0D47 454A      1335:                    #.
  454A         1336:                    ORG     .
454A 30        1337:                    $30
454B 093039    1338:                    FCC     '  09'
454E B8        1339:                    '8+$80
454F 29        1340:                    $29
  4550         1341: .                  SET     *
  0F85         1342:                    ORG     OPELN*2+.SA
0F85 4550      1343:                    #.
  4550         1344:                    ORG     .
4550 30        1345:                    $30
4551 093039    1346:                    FCC     ' 09'
4554 B9        1347:                    '9+$80
4555 29        1348:                    $29
  4556         1349: .                  SET     *
  0F87         1350:                    ORG     OPPI*2+.SA
0F87 4556      1351:                    #.
  4556         1352:                    ORG     .
4556 30        1353:                    $30
4557 093130    1354:                    FCC     ' 10'
455A B0        1355:                    '0+$80
455B 29        1356:                    $29
  455C         1357: .                  SET     *
  0F7F         1358:                    ORG     OPFIND*2+.SA
0F7F 455C      1359:                    #.
  455C         1360:                    ORG     .
455C 30        1361:                    $30




ASM/6800 1.3H4: 455D                    
08/16/82 00:00:00; Page 285; Form 1     
B2.ASM
455D 093130    1362:                    FCC     ' 10'
4560 B1        1363:                    '1+$80
4561 29        1364:                    $29
  4562         1365: .                  SET     *
  0E99         1366:                    ORG     OPUSL*2+.SA
0E99 4562      1367:                    #.
  4562         1368:                    ORG     .
4562 30        1369:                    $30
4563 093130    1370:                    FCC     ' 10'
4566 B2        1371:                    '2+$80
4567 29        1372:                    $29
  4568         1373: .                  SET     *
  0DC7         1374:                    ORG     OPJUC*2+.SA
0DC7 4568      1375:                    #.
  4568         1376:                    ORG     .
4568 30        1377:                    $30
4569 093130    1378:                    FCC     ' 10'
456C B3        1379:                    '3+$80
456D 29        1380:                    $29
  022C         1381: OPINIT             EQU     .SC
  022D         1382: .SC                SET     .SC+1
  456E         1383: .                  SET     *
  0FA1         1384:                    ORG     OPINIT*2+.SA
0FA1 456E      1385:                    #.
  456E         1386:                    ORG     .
456E 30        1387:                    $30
456F 093130    1388:                    FCC     ' 10'
4572 B4        1389:                    '4+$80
4573 29        1390:                    $29
  4574         1391: .                  SET     *
  0E5D         1392:                    ORG     OPZCHN*2+.SA
0E5D 4574      1393:                    #.
  4574         1394:                    ORG     .
4574 30        1395:                    $30
4575 093130    1396:                    FCC     ' 10'
4578 B5        1397:                    '5+$80
4579 29        1398:                    $29
  457A         1399: .                  SET     *
  0E31         1400:                    ORG     OPONG*2+.SA
0E31 457A      1401:                    #.




ASM/6800 1.3H4: 0E31                    
08/16/82 00:00:00; Page 286; Form 1     
B2.ASM
  457A         1402:                    ORG     .
457A 30        1403:                    $30
457B 093130    1404:                    FCC     '  10'
457E B6        1405:                    '6+$80
457F 29        1406:                    $29
  4580         1407: .                  SET     *
  0E55         1408:                    ORG     OPDEL*2+.SA
0E55 4580      1409:                    #.
  4580         1410:                    ORG     .
4580 30        1411:                    $30
4581 093130    1412:                    FCC     ' 10'
4584 B7        1413:                    '7+$80
4585 29        1414:                    $29
  4586         1415: .                  SET     *
  0E57         1416:                    ORG     OPREN*2+.SA
0E57 4586      1417:                    #.
  4586         1418:                    ORG     .
4586 30        1419:                    $30
4587 093130    1420:                    FCC     ' 10'
458A B8        1421:                    '8+$80
458B 29        1422:                    $29
  458C         1423: .                  SET     *
  0DF5         1424:                    ORG     OPSSL*2+.SA
0DF5 458C      1425:                    #.
  458C         1426:                    ORG     .
458C 30        1427:                    $30
458D 093130    1428:                    FCC     ' 10'
4590 B9        1429:                    '9+$80
4591 29        1430:                    $29
  4592         1431: .                  SET     *
  0DA7         1432:                    ORG     OPSTORE*2+.SA
0DA7 4592      1433:                    #.
  4592         1434:                    ORG     .
4592 30        1435:                    $30
4593 093131    1436:                    FCC     ' 11'
4596 B0        1437:                    '0+$80
4597 29        1438:                    $29
  4598         1439: .                  SET     *
  0F75         1440:                    ORG     OPSGN*2+.SA
0F75 4598      1441:                    #.




ASM/6800 1.3H4: 0F75                    
08/16/82 00:00:00; Page 287; Form 1     
B2.ASM
  4598         1442:                    ORG     .
4598 30        1443:                    $30
4599 093131    1444:                    FCC     ' 11'
459C B1        1445:                    '1+$80
459D 29        1446:                    $29
  459E         1447: .                  SET     *
  0ED7         1448:                    ORG     OPLBOOL*2+.SA
0ED7 459E      1449:                    #.
  459E         1450:                    ORG     .
459E 30        1451:                    $30
459F 093131    1452:                    FCC     ' 11'
45A2 B3        1453:                    '3+$80
45A3 29        1454:                    $29
  45A4         1455: .                  SET     *
  0E9D         1456:                    ORG     OPPRUS*2+.SA
0E9D 45A4      1457:                    #.
  45A4         1458:                    ORG     .
45A4 30        1459:                    $30
45A5 093131    1460:                    FCC     '  11'
45A8 B4        1461:                    '4+$80
45A9 29        1462:                    $29
  45AA         1463: .                  SET     *
  0D49         1464:                    ORG     OPSETLABEL*2+.SA
0D49 45AA      1465:                    #.
  45AA         1466:                    ORG     .
45AA 30        1467:                    $30
45AB 093131    1468:                    FCC     '   11'
45AE B5        1469:                    '5+$80
45AF 29        1470:                    $29
  45B0         1471: .                  SET     *
  0F5B         1472:                    ORG     OPMAXLEN*2+.SA
0F5B 45B0      1473:                    #.
  45B0         1474:                    ORG     .
45B0 30        1475:                    $30
45B1 093131    1476:                    FCC     '  11'
45B4 B6        1477:                    '6+$80
45B5 29        1478:                    $29
  45B6         1479: .                  SET     *
  0E69         1480:                    ORG     OPSYSCALL1ARG*2+.SA
0E69 45B6      1481:                    #.




ASM/6800 1.3H4: 0E69                    
08/16/82 00:00:00; Page 288; Form 1     
B2.ASM
  45B6         1482:                    ORG     .
45B6 30        1483:                    $30
45B7 093131    1484:                    FCC     '  11'
45BA B7        1485:                    '7+$80
45BB 29        1486:                    $29
  45BC         1487: .                  SET     *
  0E67         1488:                    ORG     OPSYSCALL2ARG*2+.SA
0E67 45BC      1489:                    #.
  45BC         1490:                    ORG     .
45BC 30        1491:                    $30
45BD 093131    1492:                    FCC     '  11'
45C0 B8        1493:                    '8+$80
45C1 29        1494:                    $29
  45C2         1495: .                  SET     *
  0E65         1496:                    ORG     OPSYSCALL3ARG*2+.SA
0E65 45C2      1497:                    #.
  45C2         1498:                    ORG     .
45C2 30        1499:                    $30
45C3 093131    1500:                    FCC     '  11'
45C6 B9        1501:                    '9+$80
45C7 29        1502:                    $29
  45C8         1503: .                  SET     *
  0E63         1504:                    ORG     OPSYSCALL4ARG*2+.SA
0E63 45C8      1505:                    #.
  45C8         1506:                    ORG     .
45C8 30        1507:                    $30
45C9 093132    1508:                    FCC     '  12'
45CC B0        1509:                    '0+$80
45CD 29        1510:                    $29
  45CE         1511: .                  SET     *
  0F8F         1512:                    ORG     OPCOPYRIGHT*2+.SA
0F8F 45CE      1513:                    #.
  45CE         1514:                    ORG     .
45CE 30        1515:                    $30
45CF 093132    1516:                    FCC     '  12'
45D2 B1        1517:                    '1+$80
45D3 29        1518:                    $29
  022D         1519: OPEXTENDED         EQU     .SC
  022E         1520: .SC                SET     .SC+1
  45D4         1521: .                  SET     *




ASM/6800 1.3H4: 45D3                    
08/16/82 00:00:00; Page 289; Form 1     
B2.ASM
  0FA3         1522:                    ORG     OPEXTENDED*2+.SA
0FA3 45D4      1523:                    #.
  45D4         1524:                    ORG     .
45D4 30        1525:                    $30
45D5 093132    1526:                    FCC     ' 12'
45D8 B2        1527:                    '2+$80
45D9 29        1528:                    $29
  45DA         1529: .                  SET     *
  0E23         1530:                    ORG     OPSUBRET*2+.SA
0E23 45DA      1531:                    #.
  45DA         1532:                    ORG     .
45DA 30        1533:                    $30
45DB 093132    1534:                    FCC     '  12'
45DE B3        1535:                    '3+$80
45DF 29        1536:                    $29
  45E0         1537: .                  SET     *
  0F45         1538:                    ORG     OPFNCALL*2+.SA
0F45 45E0      1539:                    #.
  45E0         1540:                    ORG     .
45E0 30        1541:                    $30
45E1 093132    1542:                    FCC     ' 12'
45E4 B4        1543:                    '4+$80
45E5 29        1544:                    $29
  45E6         1545: .                  SET     *
  0DBB         1546:                    ORG     OPLBINT*2+.SA
0DBB 45E6      1547:                    #.
  45E6         1548:                    ORG     .
45E6 30        1549:                    $30
45E7 093132    1550:                    FCC     ' 12'
45EA B5        1551:                    '5+$80
45EB 29        1552:                    $29
  45EC         1553: .                  SET     *
  0E15         1554:                    ORG     OPEXITLOOP*2+.SA
0E15 45EC      1555:                    #.
  45EC         1556:                    ORG     .
45EC 30        1557:                    $30
45ED 093132    1558:                    FCC     ' 12'
45F0 B6        1559:                    '6+$80
45F1 29        1560:                    $29
  45F2         1561: .                  SET     *




ASM/6800 1.3H4: 45F1                    
08/16/82 00:00:00; Page 290; Form 1     
B2.ASM
  0E2B         1562:                    ORG     OPTRP*2+.SA
0E2B 45F2      1563:                    #.
  45F2         1564:                    ORG     .
45F2 30        1565:                    $30
45F3 093132    1566:                    FCC     ' 12'
45F6 B7        1567:                    '7+$80
45F7 29        1568:                    $29
  45F8         1569: .                  SET     *
  0F63         1570:                    ORG     OPATN*2+.SA
0F63 45F8      1571:                    #.
  45F8         1572:                    ORG     .
45F8 022D      1573:                    OPEXTENDED
45FA 2F        1574:                    $2F
45FB 30        1575:                    $30
45FC 093030    1576:                    FCC     '  00'
45FF B0        1577:                    '0+$80
4600 29        1578:                    $29
  4601         1579: .                  SET     *
  0F65         1580:                    ORG     OPSIN*2+.SA
0F65 4601      1581:                    #.
  4601         1582:                    ORG     .
4601 022D      1583:                    OPEXTENDED
4603 2F        1584:                    $2F
4604 30        1585:                    $30
4605 093030    1586:                    FCC     ' 00'
4608 B1        1587:                    '1+$80
4609 29        1588:                    $29
  460A         1589: .                  SET     *
  0F67         1590:                    ORG     OPCOS*2+.SA
0F67 460A      1591:                    #.
  460A         1592:                    ORG     .
460A 022D      1593:                    OPEXTENDED
460C 2F        1594:                    $2F
460D 30        1595:                    $30
460E 093030    1596:                    FCC     ' 00'
4611 B2        1597:                    '2+$80
4612 29        1598:                    $29
  4613         1599: .                  SET     *
  0F6B         1600:                    ORG     OPLOG*2+.SA
0F6B 4613      1601:                    #.




ASM/6800 1.3H4: 0F6B                    
08/16/82 00:00:00; Page 291; Form 1     
B2.ASM
  4613         1602:                    ORG     .
4613 022D      1603:                    OPEXTENDED
4615 2F        1604:                    $2F
4616 30        1605:                    $30
4617 093030    1606:                    FCC     ' 00'
461A B3        1607:                    '3+$80
461B 29        1608:                    $29
  461C         1609: .                  SET     *
  0F6D         1610:                    ORG     OPEXP*2+.SA
0F6D 461C      1611:                    #.
  461C         1612:                    ORG     .
461C 022D      1613:                    OPEXTENDED
461E 2F        1614:                    $2F
461F 30        1615:                    $30
4620 093030    1616:                    FCC     ' 00'
4623 B4        1617:                    '4+$80
4624 29        1618:                    $29
  4625         1619: .                  SET     *
  0F6F         1620:                    ORG     OPSQR*2+.SA
0F6F 4625      1621:                    #.
  4625         1622:                    ORG     .
4625 022D      1623:                    OPEXTENDED
4627 2F        1624:                    $2F
4628 30        1625:                    $30
4629 093030    1626:                    FCC     ' 00'
462C B5        1627:                    '5+$80
462D 29        1628:                    $29
  462E         1629: .                  SET     *
  0F81         1630:                    ORG     OPRND*2+.SA
0F81 462E      1631:                    #.
  462E         1632:                    ORG     .
462E 022D      1633:                    OPEXTENDED
4630 2F        1634:                    $2F
4631 30        1635:                    $30
4632 093030    1636:                    FCC     ' 00'
4635 B6        1637:                    '6+$80
4636 29        1638:                    $29
  4637         1639: .                  SET     *
  0F73         1640:                    ORG     OPABS*2+.SA
0F73 4637      1641:                    #.




ASM/6800 1.3H4: 0F73                    
08/16/82 00:00:00; Page 292; Form 1     
B2.ASM
  4637         1642:                    ORG     .
4637 022D      1643:                    OPEXTENDED
4639 2F        1644:                    $2F
463A 30        1645:                    $30
463B 093030    1646:                    FCC     '  00'
463E B7        1647:                    '7+$80
463F 29        1648:                    $29
  4640         1649: .                  SET     *
  0E3F         1650:                    ORG     OPDBG*2+.SA
0E3F 4640      1651:                    #.
  4640         1652:                    ORG     .
4640 022D      1653:                    OPEXTENDED
4642 2F        1654:                    $2F
4643 30        1655:                    $30
4644 093030    1656:                    FCC     ' 00'
4647 B8        1657:                    '8+$80
4648 29        1658:                    $29
  4649         1659: .                  SET     *
  0F1B         1660:                    ORG     OPOWER*2+.SA
0F1B 4649      1661:                    #.
  4649         1662:                    ORG     .
4649 022D      1663:                    OPEXTENDED
464B 2F        1664:                    $2F
464C 30        1665:                    $30
464D 093030    1666:                    FCC     ' 00'
4650 B9        1667:                    '9+$80
4651 29        1668:                    $29
  4652         1669: .                  SET     *
  0E2D         1670:                    ORG     OPERRST*2+.SA
0E2D 4652      1671:                    #.
  4652         1672:                    ORG     .
4652 022D      1673:                    OPEXTENDED
4654 2F        1674:                    $2F
4655 30        1675:                    $30
4656 093031    1676:                    FCC     ' 01'
4659 B0        1677:                    '0+$80
465A 29        1678:                    $29
  465B         1679: .                  SET     *
  0DF7         1680:                    ORG     OPSETSEED*2+.SA
0DF7 465B      1681:                    #.




ASM/6800 1.3H4: 0DF7                    
08/16/82 00:00:00; Page 293; Form 1     
B2.ASM
  465B         1682:                    ORG     .
465B 022D      1683:                    OPEXTENDED
465D 2F        1684:                    $2F
465E 30        1685:                    $30
465F 093031    1686:                    FCC     ' 01'
4662 B1        1687:                    '1+$80
4663 29        1688:                    $29
  4664         1689: .                  SET     *
  0F77         1690:                    ORG     OPCOL*2+.SA
0F77 4664      1691:                    #.
  4664         1692:                    ORG     .
4664 022D      1693:                    OPEXTENDED
4666 2F        1694:                    $2F
4667 30        1695:                    $30
4668 093031    1696:                    FCC     ' 01'
466B B2        1697:                    '2+$80
466C 29        1698:                    $29
  466D         1699: .                  SET     *
  0E1F         1700:                    ORG     OPGPOP*2+.SA
0E1F 466D      1701:                    #.
  466D         1702:                    ORG     .
466D 022D      1703:                    OPEXTENDED
466F 2F        1704:                    $2F
4670 30        1705:                    $30
4671 093031    1706:                    FCC     ' 01'
4674 B3        1707:                    '3+$80
4675 29        1708:                    $29
  4676         1709: .                  SET     *
  0F8B         1710:                    ORG     OPDAT*2+.SA
0F8B 4676      1711:                    #.
  4676         1712:                    ORG     .
4676 022D      1713:                    OPEXTENDED
4678 2F        1714:                    $2F
4679 30        1715:                    $30
467A 093031    1716:                    FCC     '  01'
467D B4        1717:                    '4+$80
467E 29        1718:                    $29
  467F         1719: .                  SET     *
  0F8D         1720:                    ORG     OPTIM*2+.SA
0F8D 467F      1721:                    #.




ASM/6800 1.3H4: 0F8D                    
08/16/82 00:00:00; Page 294; Form 1     
B2.ASM
  467F         1722:                    ORG     .
467F 022D      1723:                    OPEXTENDED
4681 2F        1724:                    $2F
4682 30        1725:                    $30
4683 093031    1726:                    FCC     ' 01'
4686 B5        1727:                    '5+$80
4687 29        1728:                    $29
  4688         1729: .                  SET     *
  0F91         1730:                    ORG     OPNUM*2+.SA
0F91 4688      1731:                    #.
  4688         1732:                    ORG     .
4688 022D      1733:                    OPEXTENDED
468A 2F        1734:                    $2F
468B 30        1735:                    $30
468C 093031    1736:                    FCC     '  01'
468F B6        1737:                    '6+$80
4690 29        1738:                    $29
  4691         1739: .                  SET     *
  0F93         1740:                    ORG     OPNUMF*2+.SA
0F93 4691      1741:                    #.
  4691         1742:                    ORG     .
4691 022D      1743:                    OPEXTENDED
4693 2F        1744:                    $2F
4694 30        1745:                    $30
4695 093031    1746:                    FCC     ' 01'
4698 B7        1747:                    '7+$80
4699 29        1748:                    $29
  469A         1749: .                  SET     *
  0F79         1750:                    ORG     OPVAL*2+.SA
0F79 469A      1751:                    #.
  469A         1752:                    ORG     .
469A 022D      1753:                    OPEXTENDED
469C 2F        1754:                    $2F
469D 30        1755:                    $30
469E 093031    1756:                    FCC     ' 01'
46A1 B8        1757:                    '8+$80
46A2 29        1758:                    $29
  46A3         1759: .                  SET     *
  0F69         1760:                    ORG     OPTAN*2+.SA
0F69 46A3      1761:                    #.




ASM/6800 1.3H4: 0F69                    
08/16/82 00:00:00; Page 295; Form 1     
B2.ASM
  46A3         1762:                    ORG     .
46A3 022D      1763:                    OPEXTENDED
46A5 2F        1764:                    $2F
46A6 30        1765:                    $30
46A7 093031    1766:                    FCC     '  01'
46AA B9        1767:                    '9+$80
46AB 29        1768:                    $29
  46AC         1769: .                  SET     *
  0F95         1770:                    ORG     OPHEX*2+.SA
0F95 46AC      1771:                    #.
  46AC         1772:                    ORG     .
46AC 022D      1773:                    OPEXTENDED
46AE 2F        1774:                    $2F
46AF 30        1775:                    $30
46B0 093032    1776:                    FCC     '  02'
46B3 B1        1777:                    '1+$80
46B4 29        1778:                    $29
  46B5         1779: .                  SET     *
  0E01         1780:                    ORG     OPGOELN*2+.SA
0E01 46B5      1781:                    #.
  46B5         1782:                    ORG     .
46B5 022D      1783:                    OPEXTENDED
46B7 2F        1784:                    $2F
46B8 30        1785:                    $30
46B9 093032    1786:                    FCC     '  02'
46BC B2        1787:                    '2+$80
46BD 29        1788:                    $29
  46BE         1789: .                  SET     *
  0F97         1790:                    ORG     OPUPPERC*2+.SA
0F97 46BE      1791:                    #.
  46BE         1792:                    ORG     .
46BE 022D      1793:                    OPEXTENDED
46C0 2F        1794:                    $2F
46C1 30        1795:                    $30
46C2 093032    1796:                    FCC     '  02'
46C5 B3        1797:                    '3+$80
46C6 29        1798:                    $29
  46C7         1799: .                  SET     *
  0F99         1800:                    ORG     OPLOWERC*2+.SA
0F99 46C7      1801:                    #.




ASM/6800 1.3H4: 0F99                    
08/16/82 00:00:00; Page 296; Form 1     
B2.ASM
  46C7         1802:                    ORG     .
46C7 022D      1803:                    OPEXTENDED
46C9 2F        1804:                    $2F
46CA 30        1805:                    $30
46CB 093032    1806:                    FCC     '   02'
46CE B4        1807:                    '4+$80
46CF 29        1808:                    $29
  46D0         1809: .                  SET     *
  0CE9         1810:                    ORG     OPEXIT*2+.SA
0CE9 46D0      1811:                    #.
  46D0         1812:                    ORG     .
46D0 022D      1813:                    OPEXTENDED
46D2 2F        1814:                    $2F
46D3 30        1815:                    $30
46D4 093032    1816:                    FCC     ' 02'
46D7 B5        1817:                    '5+$80
46D8 29        1818:                    $29
  46D9         1819: .                  SET     *
  0F57         1820:                    ORG     OPLENVECTOR*2+.SA
0F57 46D9      1821:                    #.
  46D9         1822:                    ORG     .
46D9 022D      1823:                    OPEXTENDED
46DB 2F        1824:                    $2F
46DC 30        1825:                    $30
46DD 093032    1826:                    FCC     ' 02'
46E0 B6        1827:                    '6+$80
46E1 29        1828:                    $29
  46E2         1829: .                  SET     *
  0F5D         1830:                    ORG     OPROWSARRAY*2+.SA
0F5D 46E2      1831:                    #.
  46E2         1832:                    ORG     .
46E2 022D      1833:                    OPEXTENDED
46E4 2F        1834:                    $2F
46E5 30        1835:                    $30
46E6 093032    1836:                    FCC     ' 02'
46E9 B7        1837:                    '7+$80
46EA 29        1838:                    $29
  46EB         1839: .                  SET     *
  0F5F         1840:                    ORG     OPCOLSARRAY*2+.SA
0F5F 46EB      1841:                    #.




ASM/6800 1.3H4: 0F5F                    
08/16/82 00:00:00; Page 297; Form 1     
B2.ASM
  46EB         1842:                    ORG     .
46EB 022D      1843:                    OPEXTENDED
46ED 2F        1844:                    $2F
46EE 30        1845:                    $30
46EF 093032    1846:                    FCC     ' 02'
46F2 B8        1847:                    '8+$80
46F3 29        1848:                    $29
  46F4         1849: .                  SET     *
  0CFF         1850:                    ORG     OPFUNRET*2+.SA
0CFF 46F4      1851:                    #.
  46F4         1852:                    ORG     .
46F4 022D      1853:                    OPEXTENDED
46F6 2F        1854:                    $2F
46F7 30        1855:                    $30
46F8 093032    1856:                    FCC     ' 02'
46FB B9        1857:                    '9+$80
46FC 29        1858:                    $29
  46FD         1859: .                  SET     *
  0F9B         1860:                    ORG     OPCHR*2+.SA
0F9B 46FD      1861:                    #.
  46FD         1862:                    ORG     .
46FD 022D      1863:                    OPEXTENDED
46FF 2F        1864:                    $2F
4700 30        1865:                    $30
4701 093033    1866:                    FCC     ' 03'
4704 B0        1867:                    '0+$80
4705 29        1868:                    $29
  4706         1869: .                  SET     *
  0E41         1870:                    ORG     OPERRCAUSE*2+.SA
0E41 4706      1871:                    #.
  4706         1872:                    ORG     .
4706 022D      1873:                    OPEXTENDED
4708 2F        1874:                    $2F
4709 30        1875:                    $30
470A 093033    1876:                    FCC     '  03'
470D B1        1877:                    '1+$80
470E 29        1878:                    $29
  470F         1879: .                  SET     *
  0DFF         1880:                    ORG     OPSSA*2+.SA
0DFF 470F      1881:                    #.




ASM/6800 1.3H4: 0DFF                    
08/16/82 00:00:00; Page 298; Form 1     
B2.ASM
  470F         1882:                    ORG     .
470F 022D      1883:                    OPEXTENDED
4711 2F        1884:                    $2F
4712 30        1885:                    $30
4713 093033    1886:                    FCC     ' 03'
4716 B2        1887:                    '2+$80
4717 29        1888:                    $29
  4718         1889: .                  SET     *
  0D9F         1890:                    ORG     OPSAINIT*2+.SA
0D9F 4718      1891:                    #.
  4718         1892:                    ORG     .
4718 022D      1893:                    OPEXTENDED
471A 2F        1894:                    $2F
471B 30        1895:                    $30
471C 093033    1896:                    FCC     '  03'
471F B3        1897:                    '3+$80
4720 29        1898:                    $29
  4721         1899: .                  SET     *
  0F31         1900:                    ORG     OPLSCALAR*2+.SA
0F31 4721      1901:                    #.
  4721         1902:                    ORG     .
4721 2E        1903:                    $2E
4722 3201      1904:                    $32,1
4724 30        1905:                    $30
4725 2B        1906:                    FCC     '+'
4726 A8        1907:                    '(+$80
4727 3201      1908:                    $32,1
4729 30        1909:                    $30
472A 3C363429  1910:                    FCC     '<64)*$80+'
4733 A8        1911:                    '(+$80
4734 3201      1912:                    $32,1
4736 30        1913:                    $30
4737 3E2F3634  1914:                    FCC     '>/64)*352'
4740 B0        1915:                    '0+$80
4741 2F        1916:                    $2F
4742 29        1917:                    $29
  4743         1918: .                  SET     *
  0DCD         1919:                    ORG     OPSSCALAR*2+.SA
0DCD 4743      1920:                    #.
  4743         1921:                    ORG     .




ASM/6800 1.3H4: 4743                    
08/16/82 00:00:00; Page 299; Form 1     
B2.ASM
4743 2E        1922:                    $2E
4744 3201      1923:                    $32,1
4746 30        1924:                    $30
4747 2B        1925:                    FCC     '+'
4748 A8        1926:                    '(+$80
4749 3201      1927:                    $32,1
474B 30        1928:                    $30
474C 3C363429  1929:                    FCC     '<64)*$C0+'
4755 A8        1930:                    '(+$80
4756 3201      1931:                    $32,1
4758 30        1932:                    $30
4759 3E2F3634  1933:                    FCC     '>/64)*300'
4762 B8        1934:                    '8+$80
4763 2F        1935:                    $2F
4764 29        1936:                    $29
  4765         1937: .                  SET     *
  0DB3         1938:                    ORG     ALLOCATESCALAR*2+.SA
0DB3 4765      1939:                    #.
  4765         1940:                    ORG     .
4765 30        1941:                    $30
4766 09455155  1942:                    FCC     ' EQU            .NS'
476E D6        1943:                    'V+$80
476F 2F        1944:                    $2F
4770 30        1945:                    $30
4771 2E4E5356  1946:                    FCC     '.NSV           SET .NSV+'
477F B1        1947:                    '1+$80
4780 29        1948:                    $29
  4781         1949: .                  SET     *
  0E0D         1950:                    ORG     SADDR*2+.SA
0E0D 4781      1951:                    #.
  4781         1952:                    ORG     .
4781 D4        1953:                    ADDR
4782 30        1954:                    $30
4783 3A2B2E54  1955:                    FCC     ':+.TNSS+6'
478C AA        1956:                    '*+$80
478D 29        1957:                    $29
  478E         1958: .                  SET     *
  0D3D         1959:                    ORG     LABEL*2+.SA
0D3D 478E      1960:                    #.
  478E         1961:                    ORG     .




ASM/6800 1.3H4: 478E                    
08/16/82 00:00:00; Page 300; Form 1     
B2.ASM
478E 30        1962:                    $30
               1963:                    FCC     ''
478F BA        1964:                    ':+$80
4790 29        1965:                    $29
  4791         1966: .                  SET     *
  0D3B         1967:                    ORG     GENLBL*2+.SA
0D3B 4791      1968:                    #.
  4791         1969:                    ORG     .
4791 30        1970:                    $30
4792 3A        1971:                    FCC     ':'
4793 BA        1972:                    ':+$80
4794 29        1973:                    $29
  4795         1974: .                  SET     *
  0CED         1975:                    ORG     EQUHERE*2+.SA
0CED 4795      1976:                    #.
  4795         1977:                    ORG     .
4795 30        1978:                    $30
4796 09455155  1979:                    FCC     ' EQU            '
479B AA        1980:                    '*+$80
479C 29        1981:                    $29
  479D         1982: .                  SET     *
  0E09         1983:                    ORG     SETHERE*2+.SA
0E09 479D      1984:                    #.
  479D         1985:                    ORG     .
479D 30        1986:                    $30
479E 09534554  1987:                    FCC     ' SET            '
47A3 AA        1988:                    '*+$80
47A4 29        1989:                    $29
  47A5         1990: .                  SET     *
  0D43         1991:                    ORG     EQUDATA*2+.SA
0D43 47A5      1992:                    #.
  47A5         1993:                    ORG     .
47A5 30        1994:                    $30
47A6 09455155  1995:                    FCC     '  EQU            :'
47AC BA        1996:                    ':+$80
47AD 29        1997:                    $29
  47AE         1998: .                  SET     *
  0DA1         1999:                    ORG     INIT*2+.SA
0DA1 47AE      2000:                    #.
  47AE         2001:                    ORG     .




ASM/6800 1.3H4: 47AE                    
08/16/82 00:00:00; Page 301; Form 1     
B2.ASM
47AE 022C      2002:                    OPINIT
47B0 2F        2003:                    $2F
47B1 D6        2004:                    DADDR
47B2 30        2005:                    $30
47B3 3A        2006:                    FCC     ':'
47B4 BA        2007:                    ':+$80
47B5 2F        2008:                    $2F
47B6 D5        2009:                    INTEGER
47B7 29        2010:                    $29
  47B8         2011: .                  SET     *
  0D45         2012:                    ORG     RESDATA*2+.SA
0D45 47B8      2013:                    #.
  47B8         2014:                    ORG     .
47B8 30        2015:                    $30
47B9 3A3A0953  2016:                    FCC     '::  SET          ::'
47C2 AB        2017:                    '++$80
47C3 29        2018:                    $29
  47C4         2019: .                  SET     *
  0CF5         2020:                    ORG     DADDR*2+.SA
0CF5 47C4      2021:                    #.
  47C4         2022:                    ORG     .
47C4 D4        2023:                    ADDR
47C5 30        2024:                    $30
47C6 3A        2025:                    FCC     ':'
47C7 AB        2026:                    '++$80
47C8 29        2027:                    $29
  47C9         2028: .                  SET     *
  0DAB         2029:                    ORG     SIXBYTEINTEGER*2+.SA
0DAB 47C9      2030:                    #.
  47C9         2031:                    ORG     .
47C9 D5        2032:                    INTEGER
47CA 30        2033:                    $30
               2034:                    FCC     ''
47CB B0        2035:                    '0+$80
47CC 2F        2036:                    $2F
47CD D5        2037:                    INTEGER
47CE 30        2038:                    $30
               2039:                    FCC     ''
47CF B0        2040:                    '0+$80
47D0 2F        2041:                    $2F




ASM/6800 1.3H4: 47D1                    
08/16/82 00:00:00; Page 302; Form 1     
B2.ASM
47D1 D5        2042:                    INTEGER
47D2 3201      2043:                    $32,1
47D4 29        2044:                    $29
  47D5         2045: .                  SET     *
  0DB5         2046:                    ORG     SIXBYTEFNUM*2+.SA
0DB5 47D5      2047:                    #.
  47D5         2048:                    ORG     .
47D5 30        2049:                    $30
47D6 09464643  2050:                    FCC     ' FFC'
47DA 89        2051:                    '        +$80
47DB 3201      2052:                    $32,1
47DD 29        2053:                    $29
  47DE         2054: .                  SET     *
  0DB7         2055:                    ORG     SIXBYTEHEXINTEGER*2+.SA
0DB7 47DE      2056:                    #.
  47DE         2057:                    ORG     .
47DE D5        2058:                    INTEGER
47DF 30        2059:                    $30
               2060:                    FCC     ''
47E0 B0        2061:                    '0+$80
47E1 2F        2062:                    $2F
47E2 D5        2063:                    INTEGER
47E3 30        2064:                    $30
               2065:                    FCC     ''
47E4 B0        2066:                    '0+$80
47E5 2F        2067:                    $2F
47E6 D5        2068:                    INTEGER
47E7 30        2069:                    $30
               2070:                    FCC     ''
47E8 A4        2071:                    '$+$80
47E9 3201      2072:                    $32,1
47EB 29        2073:                    $29
  47EC         2074: .                  SET     *
  0DB1         2075:                    ORG     INITSCALARHEAD*2+.SA
0DB1 47EC      2076:                    #.
  47EC         2077:                    ORG     .
47EC 022C      2078:                    OPINIT
47EE 2F        2079:                    $2F
47EF 0162      2080:                    SADDR
47F1 30        2081:                    $30




ASM/6800 1.3H4: 47F2                    
08/16/82 00:00:00; Page 303; Form 1     
B2.ASM
47F2 2E4E53    2082:                    FCC     '.NS'
47F5 D6        2083:                    'V+$80
47F6 2F        2084:                    $2F
47F7 D5        2085:                    INTEGER
47F8 30        2086:                    $30
               2087:                    FCC     ''
47F9 B6        2088:                    '6+$80
47FA 29        2089:                    $29
  47FB         2090: .                  SET     *
  0DA9         2091:                    ORG     INITVECTORHEAD*2+.SA
0DA9 47FB      2092:                    #.
  47FB         2093:                    ORG     .
47FB 3201      2094:                    $32,1
47FD FD        2095:                    EQUDATA
47FE 2F        2096:                    $2F
47FF F9        2097:                    GENLBL
4800 3301      2098:                    $33,1
4802 D2        2099:                    EQUHERE
4803 30        2100:                    $30
4804 2B        2101:                    FCC     '+'
4805 B7        2102:                    '7+$80
4806 2F        2103:                    $2F
4807 012C      2104:                    INIT
4809 30        2105:                    $30
               2106:                    FCC     ''
480A A8        2107:                    '(+$80
480B F9        2108:                    GENLBL
480C 3302      2109:                    $33,2
480E 30        2110:                    $30
480F 292A362B  2111:                    FCC     ')*6+'
4813 B2        2112:                    '2+$80
4814 2F        2113:                    $2F
4815 D5        2114:                    INTEGER
4816 F9        2115:                    GENLBL
4817 3302      2116:                    $33,2
4819 30        2117:                    $30
481A 2D        2118:                    FCC     '-'
481B B1        2119:                    '1+$80
481C 29        2120:                    $29
  481D         2121: .                  SET     *




ASM/6800 1.3H4: 481C                    
08/16/82 00:00:00; Page 304; Form 1     
B2.ASM
  0DAF         2122:                    ORG     INITVECTORTAIL*2+.SA
0DAF 481D      2123:                    #.
  481D         2124:                    ORG     .
481D F9        2125:                    GENLBL
481E 3302      2126:                    $33,2
4820 30        2127:                    $30
4821 09455155  2128:                    FCC     ' EQU            (*'
4828 AD        2129:                    '-+$80
4829 F9        2130:                    GENLBL
482A 3301      2131:                    $33,1
482C 30        2132:                    $30
482D 292F      2133:                    FCC     ')/'
482F B6        2134:                    '6+$80
4830 2F        2135:                    $2F
4831 FE        2136:                    RESDATA
4832 F9        2137:                    GENLBL
4833 3302      2138:                    $33,2
4835 30        2139:                    $30
4836 2A362B    2140:                    FCC     '*6+'
4839 B2        2141:                    '2+$80
483A 29        2142:                    $29
  483B         2143: .                  SET     *
  0CD1         2144:                    ORG     ORIGIN*2+.SA
0CD1 483B      2145:                    #.
  483B         2146:                    ORG     .
483B 30        2147:                    $30
483C 094F5247  2148:                    FCC     '  ORG'
4840 89        2149:                    '       +$80
4841 29        2150:                    $29
  4842         2151: .                  SET     *
  0CEF         2152:                    ORG     BYTE*2+.SA
0CEF 4842      2153:                    #.
  4842         2154:                    ORG     .
4842 30        2155:                    $30
4843 09        2156:                    FCC     ' '
4844 AB        2157:                    '++$80
4845 29        2158:                    $29
  4846         2159: .                  SET     *
  0CEB         2160:                    ORG     RES*2+.SA
0CEB 4846      2161:                    #.




ASM/6800 1.3H4: 0CEB                    
08/16/82 00:00:00; Page 305; Form 1     
B2.ASM
  4846         2162:                    ORG     .
4846 30        2163:                    $30
4847 09524D42  2164:                    FCC     ' RMB'
484B 89        2165:                    '        +$80
484C 29        2166:                    $29
  484D         2167: .                  SET     *
  0DC3         2168:                    ORG     TEXT*2+.SA
0DC3 484D      2169:                    #.
  484D         2170:                    ORG     .
484D 30        2171:                    $30
484E 09464343  2172:                    FCC     ' FCC'
4852 89        2173:                    '       +$80
4853 29        2174:                    $29
  4854         2175: .                  SET     *
  0CF1         2176:                    ORG     ADDR*2+.SA
0CF1 4854      2177:                    #.
  4854         2178:                    ORG     .
4854 30        2179:                    $30
4855 09        2180:                    FCC     ' '
4856 A3        2181:                    '#+$80
4857 29        2182:                    $29
  4858         2183: .                  SET     *
  0CF3         2184:                    ORG     INTEGER*2+.SA
0CF3 4858      2185:                    #.
  4858         2186:                    ORG     .
4858 30        2187:                    $30
4859 09        2188:                    FCC     ' '
485A A3        2189:                    '#+$80
485B 29        2190:                    $29
  485C         2191: .                  SET     *
  0D0D         2192:                    ORG     CODEBODY*2+.SA
0D0D 485C      2193:                    #.
  485C         2194:                    ORG     .
485C 30        2195:                    $30
485D 2E434F44  2196:                    FCC     '.COD'
4861 C5        2197:                    'E+$80
4862 29        2198:                    $29
  4863         2199: :21                EQU     *
               2200:                    END




ASM/6800 1.3H4: 4862                    
08/16/82 00:00:00; Page 306; Form 1     Symbols Sorted by Name
B2.ASM
Symbols Sorted by Name:

 ./485C          .KEYWORDLIST/1584               .PK/1584        .SA/0B49        .SC/022E        .TA/0C89
 .TC/0016        .VC/0002        .VV/0009        :11/1181        :110/1228       :1100/240B      :1101/240E
 :1102/24C0      :1103/244F      :1104/243A      :1105/242B      :1106/2431      :1107/2439      :1108/244E
 :1109/2448      :110A/24BC      :110B/2484      :110C/246F      :110D/2460      :110E/2466      :110F/246E
 :111/1230       :1110/2483      :1111/247D      :1112/24BC      :1113/24A7      :1114/2498      :1115/249E
 :1116/24A6      :1117/24BB      :1118/24B5      :1119/24D4      :111A/24DE      :111B/24E8      :111C/24F5
 :111D/24F4      :111E/2504      :111F/2513      :112/123A       :1120/2509      :1121/2510      :1122/251B
 :1123/2522      :1124/252E      :1125/253D      :1126/2533      :1127/253A      :1128/2547      :1129/2546
 :112A/2551      :112B/2550      :112C/255E      :112D/255D      :112E/257E      :112F/268E      :113/1245
 :1130/2592      :1131/2591      :1132/268D      :1133/25AF      :1134/25DA      :1135/25CC      :1136/25D9
 :1137/25D9      :1138/2603      :1139/25F5      :113A/2602      :113B/2602      :113C/262C      :113D/261E
 :113E/262B      :113F/262B      :114/124F       :1140/2634      :1141/2639      :1142/265D      :1143/2643
 :1144/2665      :1145/2678      :1146/266B      :1147/268D      :1148/268C      :1149/269B      :114A/2702
 :114B/26A4      :114C/26D9      :114D/26CD      :114E/26BE      :114F/26CC      :115/1258       :1150/26CC
 :1151/26D8      :1152/26D8      :1153/2701      :1154/26FD      :1155/26E3      :1156/2717      :1157/2723
 :1158/272A      :1159/2744      :115A/275E      :115B/275E      :115C/2763      :115D/277A      :115E/2795
 :115F/278A      :116/1263       :1160/2794      :1161/27DE      :1162/27A1      :1163/27A7      :1164/27B6
 :1165/27DD      :1166/27E7      :1167/27F6      :1168/27FD      :1169/281B      :116A/2809      :116B/2816
 :116C/2821      :116D/2940      :116E/2855      :116F/2888      :117/126E       :1170/2883      :1171/289C
 :1172/28AD      :1173/28B5      :1174/28D0      :1175/28DB      :1176/28DB      :1177/28EE      :1178/28FB
 :1179/28FB      :117A/290D      :117B/2910      :117C/292D      :117D/292D      :117E/2920      :117F/292C
 :118/127A       :1180/292C      :1181/292B      :1182/296A      :1183/2948      :1184/294D      :1185/2969
 :1186/2955      :1187/295D      :1188/2965      :1189/2971      :118A/2978      :118B/298D      :118C/2988
 :118D/298C      :118E/2994      :118F/29A3      :119/1283       :1190/29A2      :1191/29CA      :1192/29BF
 :1193/29D5      :1194/29E6      :1195/29ED      :1196/2A1B      :1197/2A08      :1198/2A1A      :1199/2A16
 :119A/2A24      :119B/2A46      :119C/2A3F      :119D/2A87      :119E/2A65      :119F/2A60      :11A/128E
 :11A0/2A64      :11A1/2A86      :11A2/2A86      :11A3/2AB5      :11A4/2A93      :11A5/2A9D      :11A6/2A9D
 :11A7/2AA6      :11A8/2AAD      :11A9/2AB6      :11AA/2AC4      :11AB/2ACD      :11AC/2AD2      :11AD/2AFE
 :11AE/2AEC      :11AF/2AE2      :11B/1298       :11B0/2AE7      :11B1/2AF1      :11B2/2B3C      :11B3/2B20
 :11B4/2B36      :11B5/2B3F      :11B6/2B98      :11B7/2BBD      :11B8/2BC8      :11B9/2C3C      :11BA/2C06
 :11BB/2BDD      :11BC/2BE2      :11BD/2BFE      :11BE/2C05      :11BF/2C05      :11C/12A3       :11C0/2C3B
 :11C1/2C3B      :11C2/2C12      :11C3/2C17      :11C4/2C33      :11C5/2C3A      :11C6/2C3A      :11C7/2C69
 :11C8/2C46      :11C9/2C4E      :11CA/2C5E      :11CB/2C56      :11CC/2C5B      :11CD/2C68      :11CE/2C7B
 :11CF/2CA7      :11D/12AD       :11D0/2C8B      :11D1/2C99      :11D2/2C99      :11D3/2CE9      :11D4/2CAF
 :11D5/2CB8      :11D6/2CE8      :11D7/2CC0      :11D8/2CC8      :11D9/2CD0      :11DA/2CDA      :11DB/2CE4
 :11DC/2CF0      :11DD/2CF9      :11DE/2D02      :11DF/2D09      :11E/12B7       :11E0/2D5A      :11E1/2D38
 :11E2/2D54      :11E3/2D5D      :11E4/2DC7      :11E5/2DA6      :11E6/2DC6      :11E7/2DC1      :11E8/2DB9
 :11E9/2DC0      :11EA/2DC0      :11EB/2DE6      :11EC/2DE6      :11ED/2DD3      :11EE/2DE5      :11EF/2DE0




ASM/6800 1.3H4: 4862                    
08/16/82 00:00:00; Page 307; Form 1     Symbols Sorted by Name
B2.ASM
 :11F/12C2       :11F0/2DF1      :11F1/2DFE      :11F2/2E0B      :11F3/2E20      :11F4/2E13      :11F5/2E1D
 :11F6/2E27      :11F7/2E33      :11F8/2E46      :11F9/2E45      :11FA/2E45      :11FB/2E4E      :11FC/2E54
 :11FD/2E59      :11FE/2E64      :11FF/2E95      :12/118D        :120/12CD       :1200/2E8E      :1201/2E87
 :1202/2E80      :1203/2E86      :1204/2E8D      :1205/2E94      :1206/2E9F      :1207/2EAD      :1208/2EA9
 :1209/2EB6      :120A/2EBE      :120B/2EDC      :120C/2ECD      :120D/2EEE      :120E/2EF6      :120F/2F0B
 :121/12D5       :1210/2F07      :1211/2F0A      :1212/2F16      :1213/2F6B      :1214/2F1F      :1215/2F50
 :1216/2F46      :1217/2F37      :1218/2F45      :1219/2F45      :121A/2F4F      :121B/2F6A      :121C/2F66
 :121D/3060      :121E/2F7F      :121F/2F7E      :122/12DE       :1220/305F      :1221/2F9C      :1222/2FC7
 :1223/2FB9      :1224/2FC6      :1225/2FF0      :1226/2FE2      :1227/2FEF      :1228/3019      :1229/300B
 :122A/3018      :122B/3021      :122C/3026      :122D/304A      :122E/3030      :122F/305F      :123/12EA
 :1230/305E      :1231/3075      :1232/3081      :1233/30B4      :1234/30A0      :1235/3095      :1236/3094
 :1237/309F      :1238/30B3      :1239/30AD      :123A/30AC      :123B/30D3      :123C/30C8      :123D/30C7
 :123E/30D2      :123F/30E1      :124/12F6       :1240/30EE      :1241/30F2      :1242/30FD      :1243/30FC
 :1244/3115      :1245/310A      :1246/3114      :1247/3114      :1248/311F      :1249/3130      :124A/312F
 :124B/3142      :124C/313C      :124D/313B      :124E/3154      :124F/3153      :125/1300       :1250/3169
 :1251/3163      :1252/3162      :1253/31A3      :1254/3176      :1255/317F      :1256/3191      :1257/3187
 :1258/318E      :1259/3194      :125A/319C      :125B/31A2      :125C/31BB      :125D/31B0      :125E/31BA
 :125F/31BA      :126/1308       :1260/31CD      :1261/31C3      :1262/31CA      :1263/32C2      :1264/31E1
 :1265/31E0      :1266/32C1      :1267/31FE      :1268/3229      :1269/321B      :126A/3228      :126B/3252
 :126C/3244      :126D/3251      :126E/327B      :126F/326D      :127/1312       :1270/327A      :1271/3283
 :1272/3288      :1273/32AC      :1274/3292      :1275/32C1      :1276/32C0      :1277/3339      :1278/32CB
 :1279/32F6      :127A/32EF      :127B/32E0      :127C/32EE      :127D/32EE      :127E/32F5      :127F/3338
 :128/131C       :1280/3334      :1281/3300      :1282/3341      :1283/3356      :1284/3362      :1285/3374
 :1286/336A      :1287/3371      :1288/338C      :1289/3381      :128A/338B      :128B/338B      :128C/33A7
 :128D/33AF      :128E/33AF      :128F/33D7      :129/1328       :1290/33DF      :1291/33DF      :1292/33F3
 :1293/33FA      :1294/3428      :1295/3402      :1296/340B      :1297/3427      :1298/3413      :1299/341B
 :129A/3423      :129B/342F      :129C/3436      :129D/345F      :129E/345F      :129F/346E      :12A/1330
 :12A0/3486      :12A1/347E      :12A2/3486      :12A3/34B9      :12A4/3494      :12A5/349D      :12A6/34B8
 :12A7/34A5      :12A8/34AD      :12A9/34B5      :12AA/34C0      :12AB/34C7      :12AC/3543      :12AD/34E6
 :12AE/34EE      :12AF/34EE      :12B/133E       :12B0/3510      :12B1/3520      :12B2/3542      :12B3/3532
 :12B4/353C      :12B5/353B      :12B6/3542      :12B7/359C      :12B8/3553      :12B9/355F      :12BA/359B
 :12BB/3579      :12BC/358B      :12BD/358A      :12BE/359A      :12BF/360F      :12C/134B       :12C0/360E
 :12C1/35AF      :12C2/35C3      :12C3/35C8      :12C4/35D8      :12C5/3609      :12C6/3645      :12C7/3626
 :12C8/361D      :12C9/3644      :12CA/3639      :12CB/3631      :12CC/3644      :12CD/3678      :12CE/365A
 :12CF/3651      :12D/1355       :12D0/3677      :12D1/366C      :12D2/3664      :12D3/3677      :12D4/368C
 :12D5/3693      :12D6/36A2      :12D7/36AE      :12D8/36B4      :12D9/36BF      :12DA/36CB      :12DB/36D5
 :12DC/36DC      :12DD/3704      :12DE/3728      :12DF/3733      :12E/1361       :12E0/3740      :12E1/374B
 :12E2/376C      :12E3/377B      :12E4/3787      :12E5/3793      :12E6/37A7      :12E7/37A6      :12E8/37B0
 :12E9/37D0      :12EA/37C1      :12EB/37CC      :12EC/37CF      :12ED/37E9      :12EE/37E8      :12EF/37E8
 :12F/136C       :12F0/381A      :12F1/3802      :12F2/3812      :12F3/382B      :12F4/3830      :12F5/383B




ASM/6800 1.3H4: 4862                    
08/16/82 00:00:00; Page 308; Form 1     Symbols Sorted by Name
B2.ASM
 :12F6/384B      :12F7/387F      :12F8/387B      :12F9/3863      :12FA/3873      :12FB/387E      :12FC/389C
 :12FD/389B      :12FE/38B8      :12FF/38B7      :13/1199        :130/1378       :1300/38C4      :1301/38CD
 :1302/38D9      :1303/38E5      :1304/3908      :1305/38FA      :1306/3907      :1307/3907      :1308/39A6
 :1309/3928      :130A/391A      :130B/3927      :130C/3927      :130D/3948      :130E/393A      :130F/3947
 :131/1384       :1310/3947      :1311/3967      :1312/3959      :1313/3966      :1314/3966      :1315/3987
 :1316/3979      :1317/3986      :1318/3986      :1319/39A6      :131A/3998      :131B/39A5      :131C/39A5
 :131D/39AB      :131E/39BB      :131F/39F9      :132/138F       :1320/39CC      :1321/39C7      :1322/39F8
 :1323/39F5      :1324/39DA      :1325/39E4      :1326/39EF      :1327/3A07      :1328/3A15      :1329/3A23
 :132A/3A32      :132B/3A3C      :132C/3A37      :132D/3A4B      :132E/3A59      :132F/3A67      :133/1399
 :1330/3A75      :1331/3A8B      :1332/3A87      :1333/3A8A      :1334/3AA1      :1335/3AA0      :1336/3AAD
 :1337/3ABE      :1338/3ABD      :1339/3AD9      :133A/3AD8      :133B/3AED      :133C/3AEC      :133D/3AF9
 :133E/3B02      :133F/3B07      :134/13A3       :1340/3D76      :1341/3B8E      :1342/3B63      :1343/3B81
 :1344/3B74      :1345/3B80      :1346/3B7C      :1347/3B8D      :1348/3B89      :1349/3D75      :134A/3C26
 :134B/3B9C      :134C/3C02      :134D/3BE1      :134E/3BC3      :134F/3BB9      :135/13AE       :1350/3BC2
 :1351/3BE0      :1352/3BD3      :1353/3C01      :1354/3C01      :1355/3BF3      :1356/3BFD      :1357/3C25
 :1358/3C25      :1359/3C17      :135A/3C21      :135B/3CBE      :135C/3C34      :135D/3C9A      :135E/3C79
 :135F/3C5B      :136/13BB       :1360/3C51      :1361/3C5A      :1362/3C78      :1363/3C6B      :1364/3C99
 :1365/3C99      :1366/3C8B      :1367/3C95      :1368/3CBD      :1369/3CBD      :136A/3CAF      :136B/3CB9
 :136C/3CCD      :136D/3CC9      :136E/3CD5      :136F/3CE1      :137/13CB       :1370/3D16      :1371/3CF9
 :1372/3D0C      :1373/3D02      :1374/3D0B      :1375/3D15      :1376/3D1E      :1377/3D23      :1378/3D2D
 :1379/3D2D      :137A/3D75      :137B/3D37      :137C/3D68      :137D/3D5A      :137E/3D53      :137F/3D56
 :138/13D4       :1380/3D67      :1381/3D74      :1382/3DDE      :1383/3D97      :1384/3D89      :1385/3D93
 :1386/3DDB      :1387/3DC8      :1388/3DA8      :1389/3DB2      :138A/3DC1      :138B/3DC7      :138C/3DD7
 :138D/3DD3      :138E/3DE3      :138F/3DF1      :139/13E2       :1390/3E2B      :1391/3DFE      :1392/3E03
 :1393/3E06      :1394/3E26      :1395/3E2A      :1396/3E8F      :1397/3E41      :1398/3E4A      :1399/3E47
 :139A/3E70      :139B/3E54      :139C/3E5E      :139D/3E5A      :139E/3E6C      :139F/3E69      :13A/13EB
 :13A0/3EA2      :13A1/3ED3      :13A2/3EE2      :13A3/3EEF      :13A4/3EEF      :13A5/3EF4      :13A6/3F03
 :13A7/3F03      :13A8/3F07      :13A9/3F2D      :13AA/3F15      :13AB/3F20      :13AC/3F29      :13AD/3F40
 :13AE/3F40      :13AF/3F3F      :13B/13F7       :13B0/3F44      :13B1/3F4C      :13B2/413A      :13B3/3F57
 :13B4/3F62      :13B5/3F70      :13B6/3F6F      :13B7/3F80      :13B8/3F8C      :13B9/3FBF      :13BA/3F9E
 :13BB/3FBE      :13BC/3FA8      :13BD/3FBA      :13BE/3FB6      :13BF/3FEB      :13C/1402       :13C0/3FE7
 :13C1/3FE3      :13C2/3FDA      :13C3/4002      :13C4/3FFD      :13C5/4001      :13C6/4017      :13C7/4013
 :13C8/4024      :13C9/4031      :13CA/403E      :13CB/404B      :13CC/4058      :13CD/4065      :13CE/4072
 :13CF/407F      :13D/140C       :13D0/408C      :13D1/4099      :13D2/40A6      :13D3/40B3      :13D4/40C0
 :13D5/40CD      :13D6/40DA      :13D7/40F1      :13D8/40FB      :13D9/4105      :13DA/410F      :13DB/4119
 :13DC/4125      :13DD/4131      :13DE/413A      :13DF/413F      :13E/1418       :13E0/419E      :13E1/414C
 :13E2/419D      :13E3/4155      :13E4/415D      :13E5/4162      :13E6/416A      :13E7/416F      :13E8/417F
 :13E9/4183      :13EA/4188      :13EB/4191      :13EC/419D      :13ED/41AC      :13EE/41A7      :13EF/41AB
 :13F/1421       :13F0/41D7      :13F1/41E2      :13F2/41F3      :13F3/4200      :13F4/4211      :13F5/4287
 :13F6/421B      :13F7/4225      :13F8/4232      :13F9/4249      :13FA/4256      :13FB/4268      :13FC/427A




ASM/6800 1.3H4: 4862                    
08/16/82 00:00:00; Page 309; Form 1     Symbols Sorted by Name
B2.ASM
 :13FD/4287      :13FE/428C      :13FF/42A6      :14/11A2        :140/142B       :1400/42F6      :1401/42C2
 :1402/42DF      :1403/42F6      :1404/42FB      :1405/4315      :1406/4338      :1407/4329      :1408/4337
 :1409/4337      :141/1434       :142/143D       :143/1446       :144/144F       :145/1458       :146/1461
 :147/146A       :148/1473       :149/147C       :14A/1485       :14B/148E       :14C/1497       :14D/14A0
 :14E/14AA       :14F/14B4       :15/11AF        :150/14BD       :151/14C6       :152/14CE       :153/14D7
 :154/14DF       :155/14E8       :156/14F1       :157/14FB       :158/1508       :159/1512       :15A/151D
 :15B/1526       :15C/152F       :15D/153A       :15E/1545       :15F/1555       :16/11B9        :160/155F
 :161/156A       :162/1574       :163/1584       :164/1594       :165/1B96       :166/199F       :167/19B2
 :168/19B1       :169/19B6       :16A/19D2       :16B/19D1       :16C/19C6       :16D/19D6       :16E/19E9
 :16F/19E8       :17/11CC        :170/19ED       :171/19F4       :172/19F8       :173/19FF       :174/1A03
 :175/1A0A       :176/1C10       :177/1BFF       :178/1C4F       :179/1C26       :17A/1C33       :17B/1C65
 :17C/1C59       :17D/1C62       :17E/1CA6       :17F/1C86       :18/11D9        :180/1C76       :181/1C82
 :182/1C85       :183/1CA3       :184/1CA3       :185/1C93       :186/1C9F       :187/1CA2       :188/1D1E
 :189/1D39       :18A/1D38       :18B/1D38       :18C/1D56       :18D/1D55       :18E/1D55       :18F/1D76
 :19/11E1        :190/1D66       :191/1D6C       :192/1D75       :193/1D82       :194/1D9B       :195/1D9C
 :196/1DA2       :197/1DAC       :198/1DB4       :199/1DBA       :19A/1DC0       :19B/1DC7       :19C/1DCD
 :19D/1DD8       :19E/1DDE       :19F/1DE4       :1A/11EC        :1A0/1DED       :1A1/1E1A       :1A2/1DF6
 :1A3/1DFF       :1A4/1E08       :1A5/1E11       :1A6/1E1A       :1A7/1E23       :1A8/1E29       :1A9/1E2A
 :1AA/1E32       :1AB/1E5F       :1AC/1E3F       :1AD/1E44       :1AE/1E7D       :1AF/1E7D       :1B/11F6
 :1B0/1E72       :1B1/1E81       :1B2/1E88       :1B3/1EB2       :1B4/1EC1       :1B5/1EC9       :1B6/1EEB
 :1B7/1EDC       :1B8/1EE1       :1B9/1EF8       :1BA/1EF8       :1BB/1EF7       :1BC/1EFC       :1BD/1F04
 :1BE/1F0A       :1BF/20FC       :1C/11FF        :1C0/20EF       :1C1/20F8       :1C2/2102       :1C3/2111
 :1C4/2119       :1C5/2122       :1C6/212B       :1C7/2133       :1C8/213C       :1C9/2145       :1CA/214E
 :1CB/2157       :1CC/215F       :1CD/2167       :1CE/216F       :1CF/2177       :1D/120A        :1D0/2180
 :1D1/2189       :1D2/2192       :1D3/219B       :1D4/21A0       :1D5/21A9       :1D6/21B2       :1D7/21BB
 :1D8/21C4       :1D9/21CD       :1DA/21D6       :1DB/21DF       :1DC/21E8       :1DD/21F1       :1DE/21FA
 :1DF/2203       :1E/1213        :1E0/220C       :1E1/2215       :1E2/221E       :1E3/2227       :1E4/2250
 :1E5/225E       :1E6/226F       :1E7/2263       :1E8/226A       :1E9/2380       :1EA/227A       :1EB/227D
 :1EC/233C       :1ED/22B1       :1EE/233B       :1EF/230C       :1F/121F        :1F0/2336       :1F1/2321
 :1F2/233B       :1F3/237F       :1F4/237F       :1F5/24CC       :1F6/238A       :1F7/238F       :1F8/239B
 :1F9/2398       :1FA/23ED       :1FB/23BC       :1FC/23EC       :1FD/23EC       :1FE/24CB       :1FF/2416
 :21/4863        :210/121F       :211/1228       :212/1230       :213/123A       :214/1245       :215/124F
 :216/1258       :217/1263       :218/126E       :219/127A       :21A/1283       :21B/128E       :21C/1298
 :21D/12A3       :21E/12AD       :21F/12B7       :22/1184        :220/12C2       :221/12CD       :222/12D5
 :223/12DE       :224/12EA       :225/12F6       :226/1300       :227/1308       :228/1312       :229/131C
 :22A/1328       :22B/1330       :22C/133E       :22D/134B       :22E/1355       :22F/1361       :23/118D
 :230/136C       :231/1378       :232/1384       :233/138F       :234/1399       :235/13A3       :236/13AE
 :237/13BB       :238/13CB       :239/13D4       :23A/13E2       :23B/13EB       :23C/13F7       :23D/1402
 :23E/140C       :23F/1418       :24/1199        :240/1421       :241/142B       :242/1434       :243/143D
 :244/1446       :245/144F       :246/1458       :247/1461       :248/146A       :249/1473       :24A/147C




ASM/6800 1.3H4: 4862                    
08/16/82 00:00:00; Page 310; Form 1     Symbols Sorted by Name
B2.ASM
 :24B/1485       :24C/148E       :24D/1497       :24E/14A0       :24F/14AA       :25/11A2        :250/14B4
 :251/14BD       :252/14C6       :253/14CE       :254/14D7       :255/14DF       :256/14E8       :257/14F1
 :258/14FB       :259/1508       :25A/1512       :25B/151D       :25C/1526       :25D/152F       :25E/153A
 :25F/1545       :26/11AF        :260/1555       :261/155F       :262/156A       :263/1574       :264/1584
 :27/11B9        :28/11CC        :29/11D9        :2A/11E1        :2B/11EC        :2C/11F6        :2D/11FF
 :2E/120A        :2F/1213        :31/1149        ABS/147C        ADDR/00D4       ADDRESSANYTYPE/0006
 ADDRESSARRAYTYPE/0008           ADDRESSSCALARTYPE/0007          ALLOCATESCALAR/0135             AND/14CE
 ANYCHAR/000F    ARGUMENT/0177   ARGUMENTLIST/014B               ARRAY/0002      ARRAYREF/0204
 ARRAYREF1/0205  ASC/1418        ASSIGNSTMT/010F                 ATN/1434        BACKUP/010A
 BASIC/00C0      BASICCOMMON/00CD                BASICDIMS/00CE  BASICSTMTS/00CF
 BOOLTYPE/0002   BUILTINSTRFUN/01FF              BYTE/00D3       BYTELST/012D    BYTEOBJ/013C
 CALL/138F       CALLSTMT/0122   CANTSTORELABEL/010A             CAT/1526        CATSIZESTMT/00C8
 CHAIN/1384      CHAINSTMT/0121  CHAR/000E       CHARDQ/1770     CHARFAIL/1780   CHARSQ/1760
 CHNL/0182       CHNLWOPTPOS/0192                CHR$/1421       CLAUSE/00EA     CLOSE/1361
 CLOSESTMT/011D  CODEBODY/00E2   COL/148E        COLLECTINTEGER/16A0             COLLECTINTEGERFAIL/16EA
 COLLECTINTEGERFAIL1/16E9        COLLECTINTEGERLOOP/16AD         COLUMNS/14FB    COM/142B
 COMMON/118D     COMMONSCALAR/0009               COMMONSTMT/00DD                 COMPILEDONE/0006
 COMPILEPHASE/0000               COMPILINGCATSIZE/0001           COMPILINGCOMMON/0003
 COMPILINGDATAORIGIN/0002        COMPILINGDIMS/0004              COMPILINGPGMORIGIN/0000
 COMPILINGSTMTS/0005             CONCATENATION/11B9              CONDITION/0163  CONDITIONBF/0200
 CONJUNCT/01C1   CONSTANT/012E   CONVERTBOOLTONUMERIC/01D8       CONVERTNUMERICTOBOOL/01C5
 COPYRIGHT$/1545                 COS/1446        CREATE/1355     CREATESTMT/011C                 CYCLE/123A
 CYCLESTMT/0113  DADDR/00D6      DATA/11AF       DATAORIGINSTMT/00CC             DATE$/152F
 DEBLANK/0004    DEBLANK1/15F0   DEBLANK2/15ED   DEBLANK3/15EA   DEBLANK4/15E7   DEBLANKL/15B9
 DEBLANKTOKEN/15BC               DEBUG/13A3      DEBUGSTMT/0124  DEF/13CB        DEFINED/0101
 DEFINEDSTRINGQ/0103             DEFSCALAR/015F  DEFSID/0155     DELETE/136C     DELETESTMT/011E
 DIM/1184        DIMBODY/0128    DIMLABEL/00DE   DIMOBJ/012A     DIMSTMT/00DF    DO/12CD
 DOBLOCK/01B2    DOSTMT/00F4     DOUBLEDEFLINE/00F7              DOUBLEDEFSTR/0108
 DOUBLEDEFVAR/0107               DOUBLESUBREQ/0105               EATTOKEN/010D   ELN/11F6        ELSE/1312
 ELSEBODY/01B9   ELSEIF/131C     ELSEIFKEYWORD/01BC              ELSEJMP/01B8    ELSEKEYWORD/01BB
 END/12D5        ENDOFLINE/00E0  ENDOFLINEOPTCOMMENT/00D7        ENDSTMT/00ED   *ENTERMETA/0119
 EOF/14E8        EQUALNUMEXP/0141                EQUDATA/00FD    EQUHERE/00D2    ERR/14BD        ERROR/11E1
*ERRORDONE/15B7  ERRORRULE/0003  ERRORSKIPPED/15A4               ERRORSKIPPED1/15B0
 ERRORSKIPPED2/15AB              ERRORTOKEN/1594                 ERRSTMT/0125    EXECUTABLELINE/00EE
 EXECUTABLESTMT/00F5             EXIT/12AD       EXITSTMT/0127   EXP/1461        EXPRESSION/01BE
 EXTERNAL/13D4   EXTERNALSUBFUNHEADER/00D9       FAILURE/000C    FALSE/1512      FDIGITFAIL/187F
 FDIGITS/186D    FDIGITS1/1870   FDIGITSL/1875   FI/1328         FIND/14AA      *FINDSTAR/0110
*FINDSTARN/0113  FNUM/0012       FNUM1/182D      FNUM2/1837      FNUME/183F      FNUMES/1852
 FNUMF/1862      FNUMFAIL/186B   FNUMSUCCESS/184D                FOR/121F        FORBLOCK/0168
 FORCLAUSE/0167  FORMAT/126E     FORMATLINE/00E7                 FORSTMT/00F0    FREFLABEL/0006




ASM/6800 1.3H4: 4862                    
08/16/82 00:00:00; Page 311; Form 1     Symbols Sorted by Name
B2.ASM
 FREFSUBROUTINE/000E             FUNCTION/0003   FUNCTIONCALL/01FC               FUNCTIONCOMPILATION/00CA
 FUNCTIONDEFN/00EB               GENLBL/00F9     GETLOOKAHEADCHARACTER/18BF      GETLOOKAHEADRTS/18CF
 GETSTRINGBODYCHAR/1747          GETSTRINGBODYCHARXIT/1751       GETTOKENCHAR/0107               GOSUB/11FF
 GOSUBSTMT/0114  GOTO/11EC       GOTOSTMT/0111   HEX$/156A       HEXNUM/000B     HEXNUMDONE/1710
 HEXNUMFAIL/1715                 IF/1300         IFBLOCK/01B6    IFCLAUSE/01B7   IFSTMT/00EF
 INCLUDE/11CC    INCLUDESTMT/00C6                INFORLOOP/000A  INIT/012C       INITSCALARHEAD/0134
 INITVECTORHEAD/0130             INITVECTORTAIL/0133             INLIST/0198     INNVAR/019A
 INPUT/1283      INPUTSETPOS/0193                INPUTSTMT/0117  INSVAR/0199     INT/1473
 INTEGER/00D5    ISDIGIT/1667    ISDIGITFAIL/166E                ISDIGITRTS/166D                 ISHEX/1658
 ISLABEL/0007    ISLETTER/162D   ISLETTERRTS/163B                ISNTLETTER/163C
 KEYLOOP/15FC    KEYOK/160E      KEYWORD/0005    KEYWORDSTMT/0110                KEYWORDTOKEN/15F5
 LABEL/00FA      LABELGEN/00FC   LABELID/0010    LABELIDFAIL/17A9                LABELIDLOOP/1793
 LABELLEDBLOCK/00E4              LABELLEDFIRSTEXECUTABLELINE/00E1                LABELUSEDASVAR/0102
 LB/00C1         LEFT$/13F7      LEN/13E2        LET/124F        LINEBODY/00E6   LINELABEL/00E3
 LINENUM/00F6    LOCALSUBFUNHEADER/017D          LOG/1458        LOOKAHEADCOUNT/18D0
 LOOKAHEADELSE/0013              LOOKAHEADELSEFAIL/18BD          LOOKAHEADELSEIF/0014
 LOOKAHEADELSETAILCHECK/18A0     LOWERCASE$/1584                *M6800/0001     *M6801/0000     *M6809/0000
 MAXLEN/13EB     MID$/1402       MUSTBEEND/0180  MUSTBEFI/01BA   MUSTBENEXT/016A
 NEWPARAMETER/0181               NEXT/1245       NID/0006        NIDFAIL/1626    NIDLOOP/1617
 NIDOK/1628      NOFUNCTSHERE/0106               NOMATCHINGFOR/010C              NOPARAMETERSHERE/010E
 NOSUBSCRIPTS/0140               NOSUBVARS/0109  NOT/14DF        NOTARITHOP/0201
 NOTENDOFSTMT/01BF               NOTENDOFSTMTORTARGET/01C0       NOTLEGALIFCOMMON/0129
 NOTSOCLEARTERM/01F3             NUM/000A        NUM$/1555       NUMBERFAIL/168D
 NUMBOOLORSTRTYPE/0003           NUMERICARGUMENT/014C            NUMERICTYPE/0001
 NUMEXP/00DA     NUMF$/155F      NUMORBOOLTYPE/0000              NUMORSTREXP/016E
 NUMORSTRTYPE/0004               NUMVARIABLEORUSERFUNCTIONREF/01EE               OBVIOUSLYBOOLEANTERM/01F2
 OBVIOUSLYNUMERICTERM/01F0       OBVIOUSLYSTRINGTERM/01F1        OBVIOUSSTRINGTARGET/014E        ON/11D9
 ONEDIGITNUM/0008                ONESUB1/01F5    ONESUBSCRIPT/0145               ONSTMT/0120
 OPABS/0215      OPADD/01DE      OPAND/01E7      OPAPA/0149      OPASA/01FA      OPASS/014A      OPASV/01FB
 OPATN/020D      OPBF/0164       OPBT/0165       OPCALL/014D     OPCAT/01DC      OPCHAIN/0176
 OPCHNL/0191     OPCHR/0229      OPCIN/01DB      OPCLS/0185      OPCND/01DD      OPCOL/0217
 OPCOLSARRAY/020B                OPCOM/020C      OPCOPYRIGHT/0223                OPCOS/020F
 OPCREAT/0184    OPDAT/0221      OPDBG/017B      OPDEL/0186      OPDIV/01E6      OPDUP/022B      OPEEK/0219
 OPELN/021E      OPEN/134B       OPENSTMT/011B   OPEOF/0203      OPEQ/01CD       OPERR/021D
 OPERRCAUSE/017C                 OPERRST/0172    OPEXIT/00D0     OPEXITLOOP/0166                 OPEXP/0212
 OPEXTENDED/022D                 OPFIND/021B     OPFNCALL/01FE   OPFOR/0161      OPFUNRET/00DB
 OPGE/01D4       OPGOELN/015C    OPGPOP/016B     OPGSB/016C      OPGT/01D6       OPHEX/0226
 OPINIT/022C     OPINL/0197      OPINP/019C      OPINS/019B      OPINT/0214      OPINV/0202      OPIOR/01E0
 OPJMP/00F8      OPJUC/013F      OPLADDR/015A    OPLBINT/0139    OPLBOOL/01C7    OPLDB/021A      OPLE/01D0
 OPLEN/0208      OPLENVECTOR/0207                OPLFI/013B      OPLFREFL/00FF   OPLINE/00FB




ASM/6800 1.3H4: 4862                    
08/16/82 00:00:00; Page 312; Form 1     Symbols Sorted by Name
B2.ASM
 OPLINT/013A     OPLOAD/0143     OPLOG/0211      OPLOWERC/0228   OPLSC/022A      OPLSCALAR/01F4
 OPLSD/0159      OPLSMI/0138     OPLT/01D2       OPLV/01F6       OPMAXLEN/0209   OPMUL/01E5      OPNE/01C6
 OPNEG/0206      OPNEXT/0169     OPNUM/0224      OPNUMF/0225     OPOKE/017A      OPON/0173       OPONG/0174
 OPOPN/0183      OPOWER/01E9     OPPCR/019F      OPPI/021F       OPPRUS/01AA     OPPS/0195       OPPSP/01A6
 OPPV/01A5       OPREN/0187      OPRESTR/0189    OPRET/016F      OPRIGHT/0158    OPRMPT/0196
 OPRND/021C      OPROWSARRAY/020A                OPRS/01AD       OPRV/01AC       OPSAINIT/012B
 OPSEQ/01CE      OPSETLABEL/0100                 OPSETSEED/0157  OPSGE/01D5      OPSGN/0216      OPSGT/01D7
 OPSHF/01E4      OPSIN/020E      OPSLE/01D1      OPSLT/01D3      OPSNE/01CF      OPSQR/0213      OPSS1/0152
 OPSS2/0151      OPSSA/015B      OPSSCALAR/0142  OPSSL/0156      OPST/0144       OPSTB/0153
 OPSTORE/012F    OPSTP/0170      OPSTS/014F      OPSUB/01DF      OPSUBRET/016D   OPSYSCALL1ARG/0190
 OPSYSCALL2ARG/018F              OPSYSCALL3ARG/018E              OPSYSCALL4ARG/018D              OPTAB/01A1
 OPTABCOL/01A4   OPTAN/0210      OPTDISJUNCT/01C2                OPTEND/01B1     OPTENDOFLINE/00C3
 OPTIM/0222      OPTIONALFI/01BD                 OPTRELATION/01CC                OPTRP/0171
 OPUPPERC/0227   OPUSE/01A7      OPUSL/01A8      OPVAL/0218      OPVPA/0146      OPVSA/01F7      OPVSS/0147
 OPVSV/01F8      OPWS/01B0       OPWV/01AF       OPXOR/01E1      OPZCHN/018A     OR/14D7
 ORIGIN/00C4     PARAMETER/000D  PARAMETERDEFINITIONS/00D8       PEEK/14A0       PGMORIGINSTMT/00C7
 PI/14C6         POKE/1399       POKESTMT/0123   POP/120A        POSITION/1330   POSITIONSTMT/011A
 POTENTIALLABEL/0008             POWER/01E2      PRINT/1258      PRINTLIST/019E  PRINTSTMT/0112
 PRINTSTRING/01A3                PRINTV/01A2     PRODUCT/01D9    PRODUCTOP/01E3  PROGHEADER/00C9
 PROGRAM/11A2    PUSHPARAMTEMPADDR/0179         *PUTCHAR/0116    RB/00C2         RDVAR/01AB      READ/128E
 READSTMT/0118   REJECTLOOKAHEAD/18B4            RELATION/01C8  *REM/1199        REMARK/00E9
 REMARKCHAR/0175                 REMARKSTMT/00C5                 REMHEAD/00E8    RENAME/1378
 RENAMESTMT/011F                 REPEAT/12DE     REPEATBLOCK/01B3                REPEATSTMT/00F1
 RES/00D1        RESDATA/00FE    RESTOFCLAUSE/00E5               RESTOFDISJUNCT/01C4
 RESTOFDISJUNCTRETURNNUMERIC/01C3                RESTOFRELATION/01CA             RESTORE/133E
 RESULT/0001     RETURN/1213     RETURNSTMT/0115                 RIGHT$/140C     RND/14B4
 ROUTINEBLOCK/017F               ROUTINEBODY/017E                ROWS/14F1       SADDR/0162
 SCALAR/0005     SETHERE/0160    SETPOSITION/0188                SGN/1485        SID/0007
 SIDFAIL/1656    SIDLOOP/1645    SIN/143D        SINGLESUBREQ/0104               SIXBYTEFNUM/0136
 SIXBYTEHEXINTEGER/0137          SIXBYTEINTEGER/0131             SKIPBLANKS/17DA
 SKIPBLANKS2/181A                SKIPBLANKS3/1814                SKIPBLANKS4/180E
 SKIPBLANKSL/17DD                SKIPBLANKSRTS/1822              SQR/146A       *STARTTOKEN/0104
 STEP/1230       STEPLIMALLOCATED/000B           STOP/12A3       STOPSTMT/0116   STRARRAY/000F
 STRCON/0194     STREXP/00DC     STRING/000D     STRING1/1736    STRINGARGUMENT/0154
*STRINGEXIT/173E                 STRINGFAIL/1745                 STRINGFUNCTION/0004
 STRINGGUTS/000C                 STRINGGUTSL/1717                STRINGGUTSOK/1726
 STRINGLOOP/1739                 STRINGQUOTE/1752                STRINGTYPE/0005
 STRVAR/0000     STRVARIABLEORUSERFUNCTIONREF/01EF               STRVARREF/0150  SUBROUTINE/13BB
 SUBROUTINECOMPILATION/00CB      SUBROUTINEDEFN/00EC             SUBSTRING/01FD  SUCCESS/000D
 SUM/01C9        SUMOP/01DA      SYNTACTICTERM/01EA              SYSCALL/13AE    SYSCALL1/018B




ASM/6800 1.3H4: 4862                    
08/16/82 00:00:00; Page 313; Form 1     Symbols Sorted by Name
B2.ASM
 SYSCALL2/018C   SYSCALLSTMT/0126                TAB/127A        TAN/144F        TARGET/015D
 TARGETSUB/015E  TENTO255/0009   TERM/01E8       TERMGIVINGNUMERIC/01A0          TERMGIVINGSTRING/01ED
 TEXT/013D       THEN/1308       THENELSELABEL/0011              THENELSELABELCHECK/01B4
 THENELSELOOP/17B3               TIME$/153A      TO/1228         TRUE/1508       TWOSUB1/01F9
 TWOSUB2/0220    TWOSUBSCRIPTS/0148              TYPESUBROUTINE/000C             UDFSID/010B
 UNCONDELSE/01B5                 UNLESS/12EA     UNTIL/12C2      UNTILSTMT/00F3  UPPERCASE$/1574
 USING/1263      USINGOBJECT/01A9                USINGPART/019D  VAL/1497        VARIABLEONLY/0178
 VARUSEDASLABEL/010D             VECTOR/0001     VECTORINITLIST/0132             VECTORINITVALUE/013E
 VERIFYNOTFLOATING/1679          VERIFYNUMERICRESULT/01EC        VERIFYSTRINGRESULT/01EB         WHEN/12F6
 WHILE/12B7      WHILESTMT/00F2  WRITE/1298      WRITESTMT/0119  WRONGTYPE/01CB  WRVAR/01AE      XOR/151D
 ZEROS/0015      ZEROSFAIL/1911  ZEROSL/1905




ASM/6800 1.3H4: 4862                    
08/16/82 00:00:00; Page 314; Form 1     Symbols Sorted by Value
B2.ASM
Symbols Sorted by Value:

 COMPILEPHASE/0000               COMPILINGPGMORIGIN/0000        *M6801/0000     *M6809/0000
 NUMORBOOLTYPE/0000              STRVAR/0000     COMPILINGCATSIZE/0001          *M6800/0001
 NUMERICTYPE/0001                RESULT/0001     VECTOR/0001     .VC/0002        ARRAY/0002
 BOOLTYPE/0002   COMPILINGDATAORIGIN/0002        COMPILINGCOMMON/0003            ERRORRULE/0003
 FUNCTION/0003   NUMBOOLORSTRTYPE/0003           COMPILINGDIMS/0004              DEBLANK/0004
 NUMORSTRTYPE/0004               STRINGFUNCTION/0004             COMPILINGSTMTS/0005
 KEYWORD/0005    SCALAR/0005     STRINGTYPE/0005                 ADDRESSANYTYPE/0006
 COMPILEDONE/0006                FREFLABEL/0006  NID/0006        ADDRESSSCALARTYPE/0007
 ISLABEL/0007    SID/0007        ADDRESSARRAYTYPE/0008           ONEDIGITNUM/0008
 POTENTIALLABEL/0008             .VV/0009        COMMONSCALAR/0009               TENTO255/0009
 INFORLOOP/000A  NUM/000A        HEXNUM/000B     STEPLIMALLOCATED/000B           FAILURE/000C
 STRINGGUTS/000C                 TYPESUBROUTINE/000C             PARAMETER/000D  STRING/000D
 SUCCESS/000D    CHAR/000E       FREFSUBROUTINE/000E             ANYCHAR/000F    STRARRAY/000F
 LABELID/0010    THENELSELABEL/0011              FNUM/0012       LOOKAHEADELSE/0013
 LOOKAHEADELSEIF/0014            ZEROS/0015      .TC/0016        BASIC/00C0      LB/00C1         RB/00C2
 OPTENDOFLINE/00C3               ORIGIN/00C4     REMARKSTMT/00C5                 INCLUDESTMT/00C6
 PGMORIGINSTMT/00C7              CATSIZESTMT/00C8                PROGHEADER/00C9
 FUNCTIONCOMPILATION/00CA        SUBROUTINECOMPILATION/00CB      DATAORIGINSTMT/00CC
 BASICCOMMON/00CD                BASICDIMS/00CE  BASICSTMTS/00CF                 OPEXIT/00D0
 RES/00D1        EQUHERE/00D2    BYTE/00D3       ADDR/00D4       INTEGER/00D5    DADDR/00D6
 ENDOFLINEOPTCOMMENT/00D7        PARAMETERDEFINITIONS/00D8       EXTERNALSUBFUNHEADER/00D9
 NUMEXP/00DA     OPFUNRET/00DB   STREXP/00DC     COMMONSTMT/00DD                 DIMLABEL/00DE
 DIMSTMT/00DF    ENDOFLINE/00E0  LABELLEDFIRSTEXECUTABLELINE/00E1                CODEBODY/00E2
 LINELABEL/00E3  LABELLEDBLOCK/00E4              RESTOFCLAUSE/00E5               LINEBODY/00E6
 FORMATLINE/00E7                 REMHEAD/00E8    REMARK/00E9     CLAUSE/00EA     FUNCTIONDEFN/00EB
 SUBROUTINEDEFN/00EC             ENDSTMT/00ED    EXECUTABLELINE/00EE             IFSTMT/00EF
 FORSTMT/00F0    REPEATSTMT/00F1                 WHILESTMT/00F2  UNTILSTMT/00F3  DOSTMT/00F4
 EXECUTABLESTMT/00F5             LINENUM/00F6    DOUBLEDEFLINE/00F7              OPJMP/00F8
 GENLBL/00F9     LABEL/00FA      OPLINE/00FB     LABELGEN/00FC   EQUDATA/00FD    RESDATA/00FE
 OPLFREFL/00FF   OPSETLABEL/0100                 DEFINED/0101    LABELUSEDASVAR/0102
 DEFINEDSTRINGQ/0103             SINGLESUBREQ/0104              *STARTTOKEN/0104
 DOUBLESUBREQ/0105               NOFUNCTSHERE/0106               DOUBLEDEFVAR/0107
 GETTOKENCHAR/0107               DOUBLEDEFSTR/0108               NOSUBVARS/0109  BACKUP/010A
 CANTSTORELABEL/010A             UDFSID/010B     NOMATCHINGFOR/010C              EATTOKEN/010D
 VARUSEDASLABEL/010D             NOPARAMETERSHERE/010E           ASSIGNSTMT/010F
*FINDSTAR/0110   KEYWORDSTMT/0110                GOTOSTMT/0111   PRINTSTMT/0112  CYCLESTMT/0113
*FINDSTARN/0113  GOSUBSTMT/0114  RETURNSTMT/0115                *PUTCHAR/0116    STOPSTMT/0116
 INPUTSTMT/0117  READSTMT/0118  *ENTERMETA/0119  WRITESTMT/0119  POSITIONSTMT/011A




ASM/6800 1.3H4: 4862                    
08/16/82 00:00:00; Page 315; Form 1     Symbols Sorted by Value
B2.ASM
 OPENSTMT/011B   CREATESTMT/011C                 CLOSESTMT/011D  DELETESTMT/011E
 RENAMESTMT/011F                 ONSTMT/0120     CHAINSTMT/0121  CALLSTMT/0122   POKESTMT/0123
 DEBUGSTMT/0124  ERRSTMT/0125    SYSCALLSTMT/0126                EXITSTMT/0127   DIMBODY/0128
 NOTLEGALIFCOMMON/0129           DIMOBJ/012A     OPSAINIT/012B   INIT/012C       BYTELST/012D
 CONSTANT/012E   OPSTORE/012F    INITVECTORHEAD/0130             SIXBYTEINTEGER/0131
 VECTORINITLIST/0132             INITVECTORTAIL/0133             INITSCALARHEAD/0134
 ALLOCATESCALAR/0135             SIXBYTEFNUM/0136                SIXBYTEHEXINTEGER/0137
 OPLSMI/0138     OPLBINT/0139    OPLINT/013A     OPLFI/013B      BYTEOBJ/013C    TEXT/013D
 VECTORINITVALUE/013E            OPJUC/013F      NOSUBSCRIPTS/0140               EQUALNUMEXP/0141
 OPSSCALAR/0142  OPLOAD/0143     OPST/0144       ONESUBSCRIPT/0145               OPVPA/0146      OPVSS/0147
 TWOSUBSCRIPTS/0148              OPAPA/0149      OPASS/014A      ARGUMENTLIST/014B
 NUMERICARGUMENT/014C            OPCALL/014D     OBVIOUSSTRINGTARGET/014E        OPSTS/014F
 STRVARREF/0150  OPSS2/0151      OPSS1/0152      OPSTB/0153      STRINGARGUMENT/0154
 DEFSID/0155     OPSSL/0156      OPSETSEED/0157  OPRIGHT/0158    OPLSD/0159      OPLADDR/015A
 OPSSA/015B      OPGOELN/015C    TARGET/015D     TARGETSUB/015E  DEFSCALAR/015F  SETHERE/0160
 OPFOR/0161      SADDR/0162      CONDITION/0163  OPBF/0164       OPBT/0165       OPEXITLOOP/0166
 FORCLAUSE/0167  FORBLOCK/0168   OPNEXT/0169     MUSTBENEXT/016A                 OPGPOP/016B
 OPGSB/016C      OPSUBRET/016D   NUMORSTREXP/016E                OPRET/016F      OPSTP/0170      OPTRP/0171
 OPERRST/0172    OPON/0173       OPONG/0174      REMARKCHAR/0175                 OPCHAIN/0176
 ARGUMENT/0177   VARIABLEONLY/0178               PUSHPARAMTEMPADDR/0179          OPOKE/017A      OPDBG/017B
 OPERRCAUSE/017C                 LOCALSUBFUNHEADER/017D          ROUTINEBODY/017E
 ROUTINEBLOCK/017F               MUSTBEEND/0180  NEWPARAMETER/0181               CHNL/0182       OPOPN/0183
 OPCREAT/0184    OPCLS/0185      OPDEL/0186      OPREN/0187      SETPOSITION/0188
 OPRESTR/0189    OPZCHN/018A     SYSCALL1/018B   SYSCALL2/018C   OPSYSCALL4ARG/018D
 OPSYSCALL3ARG/018E              OPSYSCALL2ARG/018F              OPSYSCALL1ARG/0190
 OPCHNL/0191     CHNLWOPTPOS/0192                INPUTSETPOS/0193                STRCON/0194
 OPPS/0195       OPRMPT/0196     OPINL/0197      INLIST/0198     INSVAR/0199     INNVAR/019A
 OPINS/019B      OPINP/019C      USINGPART/019D  PRINTLIST/019E  OPPCR/019F      TERMGIVINGNUMERIC/01A0
 OPTAB/01A1      PRINTV/01A2     PRINTSTRING/01A3                OPTABCOL/01A4   OPPV/01A5       OPPSP/01A6
 OPUSE/01A7      OPUSL/01A8      USINGOBJECT/01A9                OPPRUS/01AA     RDVAR/01AB      OPRV/01AC
 OPRS/01AD       WRVAR/01AE      OPWV/01AF       OPWS/01B0       OPTEND/01B1     DOBLOCK/01B2
 REPEATBLOCK/01B3                THENELSELABELCHECK/01B4         UNCONDELSE/01B5
 IFBLOCK/01B6    IFCLAUSE/01B7   ELSEJMP/01B8    ELSEBODY/01B9   MUSTBEFI/01BA   ELSEKEYWORD/01BB
 ELSEIFKEYWORD/01BC              OPTIONALFI/01BD                 EXPRESSION/01BE
 NOTENDOFSTMT/01BF               NOTENDOFSTMTORTARGET/01C0       CONJUNCT/01C1   OPTDISJUNCT/01C2
 RESTOFDISJUNCTRETURNNUMERIC/01C3                RESTOFDISJUNCT/01C4             CONVERTNUMERICTOBOOL/01C5
 OPNE/01C6       OPLBOOL/01C7    RELATION/01C8   SUM/01C9        RESTOFRELATION/01CA
 WRONGTYPE/01CB  OPTRELATION/01CC                OPEQ/01CD       OPSEQ/01CE      OPSNE/01CF      OPLE/01D0
 OPSLE/01D1      OPLT/01D2       OPSLT/01D3      OPGE/01D4       OPSGE/01D5      OPGT/01D6       OPSGT/01D7
 CONVERTBOOLTONUMERIC/01D8       PRODUCT/01D9    SUMOP/01DA      OPCIN/01DB      OPCAT/01DC      OPCND/01DD




ASM/6800 1.3H4: 4862                    
08/16/82 00:00:00; Page 316; Form 1     Symbols Sorted by Value
B2.ASM
 OPADD/01DE      OPSUB/01DF      OPIOR/01E0      OPXOR/01E1      POWER/01E2      PRODUCTOP/01E3
 OPSHF/01E4      OPMUL/01E5      OPDIV/01E6      OPAND/01E7      TERM/01E8       OPOWER/01E9
 SYNTACTICTERM/01EA              VERIFYSTRINGRESULT/01EB         VERIFYNUMERICRESULT/01EC
 TERMGIVINGSTRING/01ED           NUMVARIABLEORUSERFUNCTIONREF/01EE
 STRVARIABLEORUSERFUNCTIONREF/01EF               OBVIOUSLYNUMERICTERM/01F0       OBVIOUSLYSTRINGTERM/01F1
 OBVIOUSLYBOOLEANTERM/01F2       NOTSOCLEARTERM/01F3             OPLSCALAR/01F4  ONESUB1/01F5
 OPLV/01F6       OPVSA/01F7      OPVSV/01F8      TWOSUB1/01F9    OPASA/01FA      OPASV/01FB
 FUNCTIONCALL/01FC               SUBSTRING/01FD  OPFNCALL/01FE   BUILTINSTRFUN/01FF
 CONDITIONBF/0200                NOTARITHOP/0201                 OPINV/0202      OPEOF/0203
 ARRAYREF/0204   ARRAYREF1/0205  OPNEG/0206      OPLENVECTOR/0207                OPLEN/0208
 OPMAXLEN/0209   OPROWSARRAY/020A                OPCOLSARRAY/020B                OPCOM/020C      OPATN/020D
 OPSIN/020E      OPCOS/020F      OPTAN/0210      OPLOG/0211      OPEXP/0212      OPSQR/0213      OPINT/0214
 OPABS/0215      OPSGN/0216      OPCOL/0217      OPVAL/0218      OPEEK/0219      OPLDB/021A
 OPFIND/021B     OPRND/021C      OPERR/021D      OPELN/021E      OPPI/021F       TWOSUB2/0220
 OPDAT/0221      OPTIM/0222      OPCOPYRIGHT/0223                OPNUM/0224      OPNUMF/0225
 OPHEX/0226      OPUPPERC/0227   OPLOWERC/0228   OPCHR/0229      OPLSC/022A      OPDUP/022B
 OPINIT/022C     OPEXTENDED/022D                 .SC/022E        .SA/0B49        .TA/0C89        :31/1149
 :11/1181        :22/1184        DIM/1184        :12/118D        :23/118D        COMMON/118D
 :13/1199        :24/1199       *REM/1199        :14/11A2        :25/11A2        PROGRAM/11A2
 :15/11AF        :26/11AF        DATA/11AF       :16/11B9        :27/11B9        CONCATENATION/11B9
 :17/11CC        :28/11CC        INCLUDE/11CC    :18/11D9        :29/11D9        ON/11D9         :19/11E1
 :2A/11E1        ERROR/11E1      :1A/11EC        :2B/11EC        GOTO/11EC       :1B/11F6        :2C/11F6
 ELN/11F6        :1C/11FF        :2D/11FF        GOSUB/11FF      :1D/120A        :2E/120A        POP/120A
 :1E/1213        :2F/1213        RETURN/1213     :1F/121F        :210/121F       FOR/121F        :110/1228
 :211/1228       TO/1228         :111/1230       :212/1230       STEP/1230       :112/123A       :213/123A
 CYCLE/123A      :113/1245       :214/1245       NEXT/1245       :114/124F       :215/124F       LET/124F
 :115/1258       :216/1258       PRINT/1258      :116/1263       :217/1263       USING/1263      :117/126E
 :218/126E       FORMAT/126E     :118/127A       :219/127A       TAB/127A        :119/1283       :21A/1283
 INPUT/1283      :11A/128E       :21B/128E       READ/128E       :11B/1298       :21C/1298       WRITE/1298
 :11C/12A3       :21D/12A3       STOP/12A3       :11D/12AD       :21E/12AD       EXIT/12AD       :11E/12B7
 :21F/12B7       WHILE/12B7      :11F/12C2       :220/12C2       UNTIL/12C2      :120/12CD       :221/12CD
 DO/12CD         :121/12D5       :222/12D5       END/12D5        :122/12DE       :223/12DE
 REPEAT/12DE     :123/12EA       :224/12EA       UNLESS/12EA     :124/12F6       :225/12F6       WHEN/12F6
 :125/1300       :226/1300       IF/1300         :126/1308       :227/1308       THEN/1308       :127/1312
 :228/1312       ELSE/1312       :128/131C       :229/131C       ELSEIF/131C     :129/1328       :22A/1328
 FI/1328         :12A/1330       :22B/1330       POSITION/1330   :12B/133E       :22C/133E
 RESTORE/133E    :12C/134B       :22D/134B       OPEN/134B       :12D/1355       :22E/1355
 CREATE/1355     :12E/1361       :22F/1361       CLOSE/1361      :12F/136C       :230/136C
 DELETE/136C     :130/1378       :231/1378       RENAME/1378     :131/1384       :232/1384       CHAIN/1384
 :132/138F       :233/138F       CALL/138F       :133/1399       :234/1399       POKE/1399       :134/13A3




ASM/6800 1.3H4: 4862                    
08/16/82 00:00:00; Page 317; Form 1     Symbols Sorted by Value
B2.ASM
 :235/13A3       DEBUG/13A3      :135/13AE       :236/13AE       SYSCALL/13AE    :136/13BB       :237/13BB
 SUBROUTINE/13BB                 :137/13CB       :238/13CB       DEF/13CB        :138/13D4       :239/13D4
 EXTERNAL/13D4   :139/13E2       :23A/13E2       LEN/13E2        :13A/13EB       :23B/13EB
 MAXLEN/13EB     :13B/13F7       :23C/13F7       LEFT$/13F7      :13C/1402       :23D/1402       MID$/1402
 :13D/140C       :23E/140C       RIGHT$/140C     :13E/1418       :23F/1418       ASC/1418        :13F/1421
 :240/1421       CHR$/1421       :140/142B       :241/142B       COM/142B        :141/1434       :242/1434
 ATN/1434        :142/143D       :243/143D       SIN/143D        :143/1446       :244/1446       COS/1446
 :144/144F       :245/144F       TAN/144F        :145/1458       :246/1458       LOG/1458        :146/1461
 :247/1461       EXP/1461        :147/146A       :248/146A       SQR/146A        :148/1473       :249/1473
 INT/1473        :149/147C       :24A/147C       ABS/147C        :14A/1485       :24B/1485       SGN/1485
 :14B/148E       :24C/148E       COL/148E        :14C/1497       :24D/1497       VAL/1497        :14D/14A0
 :24E/14A0       PEEK/14A0       :14E/14AA       :24F/14AA       FIND/14AA       :14F/14B4       :250/14B4
 RND/14B4        :150/14BD       :251/14BD       ERR/14BD        :151/14C6       :252/14C6       PI/14C6
 :152/14CE       :253/14CE       AND/14CE        :153/14D7       :254/14D7       OR/14D7         :154/14DF
 :255/14DF       NOT/14DF        :155/14E8       :256/14E8       EOF/14E8        :156/14F1       :257/14F1
 ROWS/14F1       :157/14FB       :258/14FB       COLUMNS/14FB    :158/1508       :259/1508       TRUE/1508
 :159/1512       :25A/1512       FALSE/1512      :15A/151D       :25B/151D       XOR/151D        :15B/1526
 :25C/1526       CAT/1526        :15C/152F       :25D/152F       DATE$/152F      :15D/153A       :25E/153A
 TIME$/153A      :15E/1545       :25F/1545       COPYRIGHT$/1545                 :15F/1555       :260/1555
 NUM$/1555       :160/155F       :261/155F       NUMF$/155F      :161/156A       :262/156A       HEX$/156A
 :162/1574       :263/1574       UPPERCASE$/1574                 .KEYWORDLIST/1584               .PK/1584
 :163/1584       :264/1584       LOWERCASE$/1584                 :164/1594       ERRORTOKEN/1594
 ERRORSKIPPED/15A4               ERRORSKIPPED2/15AB              ERRORSKIPPED1/15B0
*ERRORDONE/15B7  DEBLANKL/15B9   DEBLANKTOKEN/15BC               DEBLANK4/15E7   DEBLANK3/15EA
 DEBLANK2/15ED   DEBLANK1/15F0   KEYWORDTOKEN/15F5               KEYLOOP/15FC    KEYOK/160E
 NIDLOOP/1617    NIDFAIL/1626    NIDOK/1628      ISLETTER/162D   ISLETTERRTS/163B
 ISNTLETTER/163C                 SIDLOOP/1645    SIDFAIL/1656    ISHEX/1658      ISDIGIT/1667
 ISDIGITRTS/166D                 ISDIGITFAIL/166E                VERIFYNOTFLOATING/1679
 NUMBERFAIL/168D                 COLLECTINTEGER/16A0             COLLECTINTEGERLOOP/16AD
 COLLECTINTEGERFAIL1/16E9        COLLECTINTEGERFAIL/16EA         HEXNUMDONE/1710
 HEXNUMFAIL/1715                 STRINGGUTSL/1717                STRINGGUTSOK/1726
 STRING1/1736    STRINGLOOP/1739                *STRINGEXIT/173E                 STRINGFAIL/1745
 GETSTRINGBODYCHAR/1747          GETSTRINGBODYCHARXIT/1751       STRINGQUOTE/1752
 CHARSQ/1760     CHARDQ/1770     CHARFAIL/1780   LABELIDLOOP/1793                LABELIDFAIL/17A9
 THENELSELOOP/17B3               SKIPBLANKS/17DA                 SKIPBLANKSL/17DD
 SKIPBLANKS4/180E                SKIPBLANKS3/1814                SKIPBLANKS2/181A
 SKIPBLANKSRTS/1822              FNUM1/182D      FNUM2/1837      FNUME/183F      FNUMSUCCESS/184D
 FNUMES/1852     FNUMF/1862      FNUMFAIL/186B   FDIGITS/186D    FDIGITS1/1870   FDIGITSL/1875
 FDIGITFAIL/187F                 LOOKAHEADELSETAILCHECK/18A0     REJECTLOOKAHEAD/18B4
 LOOKAHEADELSEFAIL/18BD          GETLOOKAHEADCHARACTER/18BF      GETLOOKAHEADRTS/18CF




ASM/6800 1.3H4: 4862                    
08/16/82 00:00:00; Page 318; Form 1     Symbols Sorted by Value
B2.ASM
 LOOKAHEADCOUNT/18D0             ZEROSL/1905     ZEROSFAIL/1911  :166/199F       :168/19B1       :167/19B2
 :169/19B6       :16C/19C6       :16B/19D1       :16A/19D2       :16D/19D6       :16F/19E8       :16E/19E9
 :170/19ED       :171/19F4       :172/19F8       :173/19FF       :174/1A03       :175/1A0A       :165/1B96
 :177/1BFF       :176/1C10       :179/1C26       :17A/1C33       :178/1C4F       :17C/1C59       :17D/1C62
 :17B/1C65       :180/1C76       :181/1C82       :182/1C85       :17F/1C86       :185/1C93       :186/1C9F
 :187/1CA2       :183/1CA3       :184/1CA3       :17E/1CA6       :188/1D1E       :18A/1D38       :18B/1D38
 :189/1D39       :18D/1D55       :18E/1D55       :18C/1D56       :190/1D66       :191/1D6C       :192/1D75
 :18F/1D76       :193/1D82       :194/1D9B       :195/1D9C       :196/1DA2       :197/1DAC       :198/1DB4
 :199/1DBA       :19A/1DC0       :19B/1DC7       :19C/1DCD       :19D/1DD8       :19E/1DDE       :19F/1DE4
 :1A0/1DED       :1A2/1DF6       :1A3/1DFF       :1A4/1E08       :1A5/1E11       :1A1/1E1A       :1A6/1E1A
 :1A7/1E23       :1A8/1E29       :1A9/1E2A       :1AA/1E32       :1AC/1E3F       :1AD/1E44       :1AB/1E5F
 :1B0/1E72       :1AE/1E7D       :1AF/1E7D       :1B1/1E81       :1B2/1E88       :1B3/1EB2       :1B4/1EC1
 :1B5/1EC9       :1B7/1EDC       :1B8/1EE1       :1B6/1EEB       :1BB/1EF7       :1B9/1EF8       :1BA/1EF8
 :1BC/1EFC       :1BD/1F04       :1BE/1F0A       :1C0/20EF       :1C1/20F8       :1BF/20FC       :1C2/2102
 :1C3/2111       :1C4/2119       :1C5/2122       :1C6/212B       :1C7/2133       :1C8/213C       :1C9/2145
 :1CA/214E       :1CB/2157       :1CC/215F       :1CD/2167       :1CE/216F       :1CF/2177       :1D0/2180
 :1D1/2189       :1D2/2192       :1D3/219B       :1D4/21A0       :1D5/21A9       :1D6/21B2       :1D7/21BB
 :1D8/21C4       :1D9/21CD       :1DA/21D6       :1DB/21DF       :1DC/21E8       :1DD/21F1       :1DE/21FA
 :1DF/2203       :1E0/220C       :1E1/2215       :1E2/221E       :1E3/2227       :1E4/2250       :1E5/225E
 :1E7/2263       :1E8/226A       :1E6/226F       :1EA/227A       :1EB/227D       :1ED/22B1       :1EF/230C
 :1F1/2321       :1F0/2336       :1EE/233B       :1F2/233B       :1EC/233C       :1F3/237F       :1F4/237F
 :1E9/2380       :1F6/238A       :1F7/238F       :1F9/2398       :1F8/239B       :1FB/23BC       :1FC/23EC
 :1FD/23EC       :1FA/23ED       :1100/240B      :1101/240E      :1FF/2416       :1105/242B      :1106/2431
 :1107/2439      :1104/243A      :1109/2448      :1108/244E      :1103/244F      :110D/2460      :110E/2466
 :110F/246E      :110C/246F      :1111/247D      :1110/2483      :110B/2484      :1114/2498      :1115/249E
 :1116/24A6      :1113/24A7      :1118/24B5      :1117/24BB      :110A/24BC      :1112/24BC      :1102/24C0
 :1FE/24CB       :1F5/24CC       :1119/24D4      :111A/24DE      :111B/24E8      :111D/24F4      :111C/24F5
 :111E/2504      :1120/2509      :1121/2510      :111F/2513      :1122/251B      :1123/2522      :1124/252E
 :1126/2533      :1127/253A      :1125/253D      :1129/2546      :1128/2547      :112B/2550      :112A/2551
 :112D/255D      :112C/255E      :112E/257E      :1131/2591      :1130/2592      :1133/25AF      :1135/25CC
 :1136/25D9      :1137/25D9      :1134/25DA      :1139/25F5      :113A/2602      :113B/2602      :1138/2603
 :113D/261E      :113E/262B      :113F/262B      :113C/262C      :1140/2634      :1141/2639      :1143/2643
 :1142/265D      :1144/2665      :1146/266B      :1145/2678      :1148/268C      :1132/268D      :1147/268D
 :112F/268E      :1149/269B      :114B/26A4      :114E/26BE      :114F/26CC      :1150/26CC      :114D/26CD
 :1151/26D8      :1152/26D8      :114C/26D9      :1155/26E3      :1154/26FD      :1153/2701      :114A/2702
 :1156/2717      :1157/2723      :1158/272A      :1159/2744      :115A/275E      :115B/275E      :115C/2763
 :115D/277A      :115F/278A      :1160/2794      :115E/2795      :1162/27A1      :1163/27A7      :1164/27B6
 :1165/27DD      :1161/27DE      :1166/27E7      :1167/27F6      :1168/27FD      :116A/2809      :116B/2816
 :1169/281B      :116C/2821      :116E/2855      :1170/2883      :116F/2888      :1171/289C      :1172/28AD
 :1173/28B5      :1174/28D0      :1175/28DB      :1176/28DB      :1177/28EE      :1178/28FB      :1179/28FB




ASM/6800 1.3H4: 4862                    
08/16/82 00:00:00; Page 319; Form 1     Symbols Sorted by Value
B2.ASM
 :117A/290D      :117B/2910      :117E/2920      :1181/292B      :117F/292C      :1180/292C      :117C/292D
 :117D/292D      :116D/2940      :1183/2948      :1184/294D      :1186/2955      :1187/295D      :1188/2965
 :1185/2969      :1182/296A      :1189/2971      :118A/2978      :118C/2988      :118D/298C      :118B/298D
 :118E/2994      :1190/29A2      :118F/29A3      :1192/29BF      :1191/29CA      :1193/29D5      :1194/29E6
 :1195/29ED      :1197/2A08      :1199/2A16      :1198/2A1A      :1196/2A1B      :119A/2A24      :119C/2A3F
 :119B/2A46      :119F/2A60      :11A0/2A64      :119E/2A65      :11A1/2A86      :11A2/2A86      :119D/2A87
 :11A4/2A93      :11A5/2A9D      :11A6/2A9D      :11A7/2AA6      :11A8/2AAD      :11A3/2AB5      :11A9/2AB6
 :11AA/2AC4      :11AB/2ACD      :11AC/2AD2      :11AF/2AE2      :11B0/2AE7      :11AE/2AEC      :11B1/2AF1
 :11AD/2AFE      :11B3/2B20      :11B4/2B36      :11B2/2B3C      :11B5/2B3F      :11B6/2B98      :11B7/2BBD
 :11B8/2BC8      :11BB/2BDD      :11BC/2BE2      :11BD/2BFE      :11BE/2C05      :11BF/2C05      :11BA/2C06
 :11C2/2C12      :11C3/2C17      :11C4/2C33      :11C5/2C3A      :11C6/2C3A      :11C0/2C3B      :11C1/2C3B
 :11B9/2C3C      :11C8/2C46      :11C9/2C4E      :11CB/2C56      :11CC/2C5B      :11CA/2C5E      :11CD/2C68
 :11C7/2C69      :11CE/2C7B      :11D0/2C8B      :11D1/2C99      :11D2/2C99      :11CF/2CA7      :11D4/2CAF
 :11D5/2CB8      :11D7/2CC0      :11D8/2CC8      :11D9/2CD0      :11DA/2CDA      :11DB/2CE4      :11D6/2CE8
 :11D3/2CE9      :11DC/2CF0      :11DD/2CF9      :11DE/2D02      :11DF/2D09      :11E1/2D38      :11E2/2D54
 :11E0/2D5A      :11E3/2D5D      :11E5/2DA6      :11E8/2DB9      :11E9/2DC0      :11EA/2DC0      :11E7/2DC1
 :11E6/2DC6      :11E4/2DC7      :11ED/2DD3      :11EF/2DE0      :11EE/2DE5      :11EB/2DE6      :11EC/2DE6
 :11F0/2DF1      :11F1/2DFE      :11F2/2E0B      :11F4/2E13      :11F5/2E1D      :11F3/2E20      :11F6/2E27
 :11F7/2E33      :11F9/2E45      :11FA/2E45      :11F8/2E46      :11FB/2E4E      :11FC/2E54      :11FD/2E59
 :11FE/2E64      :1202/2E80      :1203/2E86      :1201/2E87      :1204/2E8D      :1200/2E8E      :1205/2E94
 :11FF/2E95      :1206/2E9F      :1208/2EA9      :1207/2EAD      :1209/2EB6      :120A/2EBE      :120C/2ECD
 :120B/2EDC      :120D/2EEE      :120E/2EF6      :1210/2F07      :1211/2F0A      :120F/2F0B      :1212/2F16
 :1214/2F1F      :1217/2F37      :1218/2F45      :1219/2F45      :1216/2F46      :121A/2F4F      :1215/2F50
 :121C/2F66      :121B/2F6A      :1213/2F6B      :121F/2F7E      :121E/2F7F      :1221/2F9C      :1223/2FB9
 :1224/2FC6      :1222/2FC7      :1226/2FE2      :1227/2FEF      :1225/2FF0      :1229/300B      :122A/3018
 :1228/3019      :122B/3021      :122C/3026      :122E/3030      :122D/304A      :1230/305E      :1220/305F
 :122F/305F      :121D/3060      :1231/3075      :1232/3081      :1236/3094      :1235/3095      :1237/309F
 :1234/30A0      :123A/30AC      :1239/30AD      :1238/30B3      :1233/30B4      :123D/30C7      :123C/30C8
 :123E/30D2      :123B/30D3      :123F/30E1      :1240/30EE      :1241/30F2      :1243/30FC      :1242/30FD
 :1245/310A      :1246/3114      :1247/3114      :1244/3115      :1248/311F      :124A/312F      :1249/3130
 :124D/313B      :124C/313C      :124B/3142      :124F/3153      :124E/3154      :1252/3162      :1251/3163
 :1250/3169      :1254/3176      :1255/317F      :1257/3187      :1258/318E      :1256/3191      :1259/3194
 :125A/319C      :125B/31A2      :1253/31A3      :125D/31B0      :125E/31BA      :125F/31BA      :125C/31BB
 :1261/31C3      :1262/31CA      :1260/31CD      :1265/31E0      :1264/31E1      :1267/31FE      :1269/321B
 :126A/3228      :1268/3229      :126C/3244      :126D/3251      :126B/3252      :126F/326D      :1270/327A
 :126E/327B      :1271/3283      :1272/3288      :1274/3292      :1273/32AC      :1276/32C0      :1266/32C1
 :1275/32C1      :1263/32C2      :1278/32CB      :127B/32E0      :127C/32EE      :127D/32EE      :127A/32EF
 :127E/32F5      :1279/32F6      :1281/3300      :1280/3334      :127F/3338      :1277/3339      :1282/3341
 :1283/3356      :1284/3362      :1286/336A      :1287/3371      :1285/3374      :1289/3381      :128A/338B
 :128B/338B      :1288/338C      :128C/33A7      :128D/33AF      :128E/33AF      :128F/33D7      :1290/33DF




ASM/6800 1.3H4: 4862                    
08/16/82 00:00:00; Page 320; Form 1     Symbols Sorted by Value
B2.ASM
 :1291/33DF      :1292/33F3      :1293/33FA      :1295/3402      :1296/340B      :1298/3413      :1299/341B
 :129A/3423      :1297/3427      :1294/3428      :129B/342F      :129C/3436      :129D/345F      :129E/345F
 :129F/346E      :12A1/347E      :12A0/3486      :12A2/3486      :12A4/3494      :12A5/349D      :12A7/34A5
 :12A8/34AD      :12A9/34B5      :12A6/34B8      :12A3/34B9      :12AA/34C0      :12AB/34C7      :12AD/34E6
 :12AE/34EE      :12AF/34EE      :12B0/3510      :12B1/3520      :12B3/3532      :12B5/353B      :12B4/353C
 :12B2/3542      :12B6/3542      :12AC/3543      :12B8/3553      :12B9/355F      :12BB/3579      :12BD/358A
 :12BC/358B      :12BE/359A      :12BA/359B      :12B7/359C      :12C1/35AF      :12C2/35C3      :12C3/35C8
 :12C4/35D8      :12C5/3609      :12C0/360E      :12BF/360F      :12C8/361D      :12C7/3626      :12CB/3631
 :12CA/3639      :12C9/3644      :12CC/3644      :12C6/3645      :12CF/3651      :12CE/365A      :12D2/3664
 :12D1/366C      :12D0/3677      :12D3/3677      :12CD/3678      :12D4/368C      :12D5/3693      :12D6/36A2
 :12D7/36AE      :12D8/36B4      :12D9/36BF      :12DA/36CB      :12DB/36D5      :12DC/36DC      :12DD/3704
 :12DE/3728      :12DF/3733      :12E0/3740      :12E1/374B      :12E2/376C      :12E3/377B      :12E4/3787
 :12E5/3793      :12E7/37A6      :12E6/37A7      :12E8/37B0      :12EA/37C1      :12EB/37CC      :12EC/37CF
 :12E9/37D0      :12EE/37E8      :12EF/37E8      :12ED/37E9      :12F1/3802      :12F2/3812      :12F0/381A
 :12F3/382B      :12F4/3830      :12F5/383B      :12F6/384B      :12F9/3863      :12FA/3873      :12F8/387B
 :12FB/387E      :12F7/387F      :12FD/389B      :12FC/389C      :12FF/38B7      :12FE/38B8      :1300/38C4
 :1301/38CD      :1302/38D9      :1303/38E5      :1305/38FA      :1306/3907      :1307/3907      :1304/3908
 :130A/391A      :130B/3927      :130C/3927      :1309/3928      :130E/393A      :130F/3947      :1310/3947
 :130D/3948      :1312/3959      :1313/3966      :1314/3966      :1311/3967      :1316/3979      :1317/3986
 :1318/3986      :1315/3987      :131A/3998      :131B/39A5      :131C/39A5      :1308/39A6      :1319/39A6
 :131D/39AB      :131E/39BB      :1321/39C7      :1320/39CC      :1324/39DA      :1325/39E4      :1326/39EF
 :1323/39F5      :1322/39F8      :131F/39F9      :1327/3A07      :1328/3A15      :1329/3A23      :132A/3A32
 :132C/3A37      :132B/3A3C      :132D/3A4B      :132E/3A59      :132F/3A67      :1330/3A75      :1332/3A87
 :1333/3A8A      :1331/3A8B      :1335/3AA0      :1334/3AA1      :1336/3AAD      :1338/3ABD      :1337/3ABE
 :133A/3AD8      :1339/3AD9      :133C/3AEC      :133B/3AED      :133D/3AF9      :133E/3B02      :133F/3B07
 :1342/3B63      :1344/3B74      :1346/3B7C      :1345/3B80      :1343/3B81      :1348/3B89      :1347/3B8D
 :1341/3B8E      :134B/3B9C      :134F/3BB9      :1350/3BC2      :134E/3BC3      :1352/3BD3      :1351/3BE0
 :134D/3BE1      :1355/3BF3      :1356/3BFD      :1353/3C01      :1354/3C01      :134C/3C02      :1359/3C17
 :135A/3C21      :1357/3C25      :1358/3C25      :134A/3C26      :135C/3C34      :1360/3C51      :1361/3C5A
 :135F/3C5B      :1363/3C6B      :1362/3C78      :135E/3C79      :1366/3C8B      :1367/3C95      :1364/3C99
 :1365/3C99      :135D/3C9A      :136A/3CAF      :136B/3CB9      :1368/3CBD      :1369/3CBD      :135B/3CBE
 :136D/3CC9      :136C/3CCD      :136E/3CD5      :136F/3CE1      :1371/3CF9      :1373/3D02      :1374/3D0B
 :1372/3D0C      :1375/3D15      :1370/3D16      :1376/3D1E      :1377/3D23      :1378/3D2D      :1379/3D2D
 :137B/3D37      :137E/3D53      :137F/3D56      :137D/3D5A      :1380/3D67      :137C/3D68      :1381/3D74
 :1349/3D75      :137A/3D75      :1340/3D76      :1384/3D89      :1385/3D93      :1383/3D97      :1388/3DA8
 :1389/3DB2      :138A/3DC1      :138B/3DC7      :1387/3DC8      :138D/3DD3      :138C/3DD7      :1386/3DDB
 :1382/3DDE      :138E/3DE3      :138F/3DF1      :1391/3DFE      :1392/3E03      :1393/3E06      :1394/3E26
 :1395/3E2A      :1390/3E2B      :1397/3E41      :1399/3E47      :1398/3E4A      :139B/3E54      :139D/3E5A
 :139C/3E5E      :139F/3E69      :139E/3E6C      :139A/3E70      :1396/3E8F      :13A0/3EA2      :13A1/3ED3
 :13A2/3EE2      :13A3/3EEF      :13A4/3EEF      :13A5/3EF4      :13A6/3F03      :13A7/3F03      :13A8/3F07




ASM/6800 1.3H4: 4862                    
08/16/82 00:00:00; Page 321; Form 1     Symbols Sorted by Value
B2.ASM
 :13AA/3F15      :13AB/3F20      :13AC/3F29      :13A9/3F2D      :13AF/3F3F      :13AD/3F40      :13AE/3F40
 :13B0/3F44      :13B1/3F4C      :13B3/3F57      :13B4/3F62      :13B6/3F6F      :13B5/3F70      :13B7/3F80
 :13B8/3F8C      :13BA/3F9E      :13BC/3FA8      :13BE/3FB6      :13BD/3FBA      :13BB/3FBE      :13B9/3FBF
 :13C2/3FDA      :13C1/3FE3      :13C0/3FE7      :13BF/3FEB      :13C4/3FFD      :13C5/4001      :13C3/4002
 :13C7/4013      :13C6/4017      :13C8/4024      :13C9/4031      :13CA/403E      :13CB/404B      :13CC/4058
 :13CD/4065      :13CE/4072      :13CF/407F      :13D0/408C      :13D1/4099      :13D2/40A6      :13D3/40B3
 :13D4/40C0      :13D5/40CD      :13D6/40DA      :13D7/40F1      :13D8/40FB      :13D9/4105      :13DA/410F
 :13DB/4119      :13DC/4125      :13DD/4131      :13B2/413A      :13DE/413A      :13DF/413F      :13E1/414C
 :13E3/4155      :13E4/415D      :13E5/4162      :13E6/416A      :13E7/416F      :13E8/417F      :13E9/4183
 :13EA/4188      :13EB/4191      :13E2/419D      :13EC/419D      :13E0/419E      :13EE/41A7      :13EF/41AB
 :13ED/41AC      :13F0/41D7      :13F1/41E2      :13F2/41F3      :13F3/4200      :13F4/4211      :13F6/421B
 :13F7/4225      :13F8/4232      :13F9/4249      :13FA/4256      :13FB/4268      :13FC/427A      :13F5/4287
 :13FD/4287      :13FE/428C      :13FF/42A6      :1401/42C2      :1402/42DF      :1400/42F6      :1403/42F6
 :1404/42FB      :1405/4315      :1407/4329      :1408/4337      :1409/4337      :1406/4338      ./485C
 :21/4863

1748 Symbols.


 *** No Assembly Errors.
